ARM GAS  /cygdrive/c/DOCUME~1/PHELPS~1/LOCALS~1/Temp/cccwBzib.s 			page 1


   1              		.file	"usb.c"
   8 0000 BC000000 		.text
   8      02005600 
   8      00000201 
   8      FB0E0A00 
   8      01010101 
   9              	.Ltext0:
  10              		.data
  11              		.align	2
  12              		.type	LineCoding, %object
  13              		.size	LineCoding, 8
  14              	LineCoding:
  15 0000 40420F00 		.word	1000000
  16 0004 00       		.byte	0
  17 0005 00       		.byte	0
  18 0006 08       		.byte	8
  19 0007 00       		.space	1
  20              		.section	.rodata
  21              		.type	abDescriptors, %object
  22              		.size	abDescriptors, 142
  23              	abDescriptors:
  24 0000 12       		.byte	18
  25 0001 01       		.byte	1
  26 0002 01       		.byte	1
  27 0003 01       		.byte	1
  28 0004 02       		.byte	2
  29 0005 00       		.byte	0
  30 0006 00       		.byte	0
  31 0007 40       		.byte	64
  32 0008 FF       		.byte	-1
  33 0009 FF       		.byte	-1
  34 000a 05       		.byte	5
  35 000b 00       		.byte	0
  36 000c 00       		.byte	0
  37 000d 01       		.byte	1
  38 000e 01       		.byte	1
  39 000f 02       		.byte	2
  40 0010 03       		.byte	3
  41 0011 01       		.byte	1
  42 0012 09       		.byte	9
  43 0013 02       		.byte	2
  44 0014 43       		.byte	67
  45 0015 00       		.byte	0
  46 0016 02       		.byte	2
  47 0017 01       		.byte	1
  48 0018 00       		.byte	0
  49 0019 C0       		.byte	-64
  50 001a 32       		.byte	50
  51 001b 09       		.byte	9
  52 001c 04       		.byte	4
  53 001d 00       		.byte	0
ARM GAS  /cygdrive/c/DOCUME~1/PHELPS~1/LOCALS~1/Temp/cccwBzib.s 			page 2


  54 001e 00       		.byte	0
  55 001f 01       		.byte	1
  56 0020 02       		.byte	2
  57 0021 02       		.byte	2
  58 0022 01       		.byte	1
  59 0023 00       		.byte	0
  60 0024 05       		.byte	5
  61 0025 24       		.byte	36
  62 0026 00       		.byte	0
  63 0027 10       		.byte	16
  64 0028 01       		.byte	1
  65 0029 05       		.byte	5
  66 002a 24       		.byte	36
  67 002b 01       		.byte	1
  68 002c 01       		.byte	1
  69 002d 01       		.byte	1
  70 002e 04       		.byte	4
  71 002f 24       		.byte	36
  72 0030 02       		.byte	2
  73 0031 02       		.byte	2
  74 0032 05       		.byte	5
  75 0033 24       		.byte	36
  76 0034 06       		.byte	6
  77 0035 00       		.byte	0
  78 0036 01       		.byte	1
  79 0037 07       		.byte	7
  80 0038 05       		.byte	5
  81 0039 81       		.byte	-127
  82 003a 03       		.byte	3
  83 003b 08       		.byte	8
  84 003c 00       		.byte	0
  85 003d 0A       		.byte	10
  86 003e 09       		.byte	9
  87 003f 04       		.byte	4
  88 0040 01       		.byte	1
  89 0041 00       		.byte	0
  90 0042 02       		.byte	2
  91 0043 0A       		.byte	10
  92 0044 00       		.byte	0
  93 0045 00       		.byte	0
  94 0046 00       		.byte	0
  95 0047 07       		.byte	7
  96 0048 05       		.byte	5
  97 0049 05       		.byte	5
  98 004a 02       		.byte	2
  99 004b 40       		.byte	64
 100 004c 00       		.byte	0
 101 004d 00       		.byte	0
 102 004e 07       		.byte	7
 103 004f 05       		.byte	5
 104 0050 82       		.byte	-126
 105 0051 02       		.byte	2
 106 0052 40       		.byte	64
 107 0053 00       		.byte	0
 108 0054 00       		.byte	0
 109 0055 04       		.byte	4
 110 0056 03       		.byte	3
ARM GAS  /cygdrive/c/DOCUME~1/PHELPS~1/LOCALS~1/Temp/cccwBzib.s 			page 3


 111 0057 09       		.byte	9
 112 0058 04       		.byte	4
 113 0059 0E       		.byte	14
 114 005a 03       		.byte	3
 115 005b 4C       		.byte	76
 116 005c 00       		.byte	0
 117 005d 50       		.byte	80
 118 005e 00       		.byte	0
 119 005f 43       		.byte	67
 120 0060 00       		.byte	0
 121 0061 55       		.byte	85
 122 0062 00       		.byte	0
 123 0063 53       		.byte	83
 124 0064 00       		.byte	0
 125 0065 42       		.byte	66
 126 0066 00       		.byte	0
 127 0067 14       		.byte	20
 128 0068 03       		.byte	3
 129 0069 55       		.byte	85
 130 006a 00       		.byte	0
 131 006b 53       		.byte	83
 132 006c 00       		.byte	0
 133 006d 42       		.byte	66
 134 006e 00       		.byte	0
 135 006f 53       		.byte	83
 136 0070 00       		.byte	0
 137 0071 65       		.byte	101
 138 0072 00       		.byte	0
 139 0073 72       		.byte	114
 140 0074 00       		.byte	0
 141 0075 69       		.byte	105
 142 0076 00       		.byte	0
 143 0077 61       		.byte	97
 144 0078 00       		.byte	0
 145 0079 6C       		.byte	108
 146 007a 00       		.byte	0
 147 007b 12       		.byte	18
 148 007c 03       		.byte	3
 149 007d 44       		.byte	68
 150 007e 00       		.byte	0
 151 007f 45       		.byte	69
 152 0080 00       		.byte	0
 153 0081 41       		.byte	65
 154 0082 00       		.byte	0
 155 0083 44       		.byte	68
 156 0084 00       		.byte	0
 157 0085 43       		.byte	67
 158 0086 00       		.byte	0
 159 0087 30       		.byte	48
 160 0088 00       		.byte	0
 161 0089 44       		.byte	68
 162 008a 00       		.byte	0
 163 008b 45       		.byte	69
 164 008c 00       		.byte	0
 165 008d 00       		.byte	0
 166              		.text
 167              		.align	2
ARM GAS  /cygdrive/c/DOCUME~1/PHELPS~1/LOCALS~1/Temp/cccwBzib.s 			page 4


 168              		.type	BulkOut, %function
 169              	BulkOut:
 170              	.LFB2:
 171              		.file 1 "usb.c"
   1:usb.c         **** #include "global.h"			// include our global project settings
   2:usb.c         **** #include "processor.h"		// include processor initialization functions
   3:usb.c         **** #include "lpc2000.h"		// include LPC210x defines
   4:usb.c         **** #include "buffer.h"
   5:usb.c         **** #include "usb.h"
   6:usb.c         **** 
   7:usb.c         **** static unsigned char uartRxData[UART_RX_BUFFER_SIZE];
   8:usb.c         **** static unsigned char uartTxData[UART_TX_BUFFER_SIZE];
   9:usb.c         **** cBuffer uartRxBuffer;				///< uart receive buffer
  10:usb.c         **** cBuffer uartTxBuffer;				///< uart transmit buffer
  11:usb.c         **** unsigned short uartRxOverflow;		///< receive overflow counter
  12:usb.c         **** 
  13:usb.c         **** // data structure for GET_LINE_CODING / SET_LINE_CODING class requests
  14:usb.c         **** typedef struct {
  15:usb.c         **** 	U32		dwDTERate;
  16:usb.c         **** 	U8		bCharFormat;
  17:usb.c         **** 	U8		bParityType;
  18:usb.c         **** 	U8		bDataBits;
  19:usb.c         **** } TLineCoding;
  20:usb.c         **** 
  21:usb.c         **** //static TLineCoding LineCoding = {115200, 0, 0, 8};
  22:usb.c         **** static TLineCoding LineCoding = {1000000, 0, 0, 8};
  23:usb.c         **** static U8 abBulkBuf[64];
  24:usb.c         **** static U8 abClassReqData[8];
  25:usb.c         **** 
  26:usb.c         **** // forward declaration of interrupt handler
  27:usb.c         **** static void USBIntHandler(void) __attribute__ ((interrupt("IRQ")));
  28:usb.c         **** 
  29:usb.c         **** 
  30:usb.c         **** static const U8 abDescriptors[] = {
  31:usb.c         **** 
  32:usb.c         **** // device descriptor
  33:usb.c         **** 	0x12,
  34:usb.c         **** 	DESC_DEVICE,
  35:usb.c         **** 	LE_WORD(0x0101),			// bcdUSB
  36:usb.c         **** 	0x02,						// bDeviceClass
  37:usb.c         **** 	0x00,						// bDeviceSubClass
  38:usb.c         **** 	0x00,						// bDeviceProtocol
  39:usb.c         **** 	MAX_PACKET_SIZE0,			// bMaxPacketSize
  40:usb.c         **** 	LE_WORD(0xFFFF),			// idVendor
  41:usb.c         **** 	LE_WORD(0x0005),			// idProduct
  42:usb.c         **** 	LE_WORD(0x0100),			// bcdDevice
  43:usb.c         **** 	0x01,						// iManufacturer
  44:usb.c         **** 	0x02,						// iProduct
  45:usb.c         **** 	0x03,						// iSerialNumber
  46:usb.c         **** 	0x01,						// bNumConfigurations
  47:usb.c         **** 
  48:usb.c         **** // configuration descriptor
  49:usb.c         **** 	0x09,
  50:usb.c         **** 	DESC_CONFIGURATION,
  51:usb.c         **** 	LE_WORD(67),				// wTotalLength
  52:usb.c         **** 	0x02,						// bNumInterfaces
  53:usb.c         **** 	0x01,						// bConfigurationValue
ARM GAS  /cygdrive/c/DOCUME~1/PHELPS~1/LOCALS~1/Temp/cccwBzib.s 			page 5


  54:usb.c         **** 	0x00,						// iConfiguration
  55:usb.c         **** 	0xC0,						// bmAttributes
  56:usb.c         **** 	0x32,						// bMaxPower
  57:usb.c         **** // control class interface
  58:usb.c         **** 	0x09,
  59:usb.c         **** 	DESC_INTERFACE,
  60:usb.c         **** 	0x00,						// bInterfaceNumber
  61:usb.c         **** 	0x00,						// bAlternateSetting
  62:usb.c         **** 	0x01,						// bNumEndPoints
  63:usb.c         **** 	0x02,						// bInterfaceClass
  64:usb.c         **** 	0x02,						// bInterfaceSubClass
  65:usb.c         **** 	0x01,						// bInterfaceProtocol, linux requires value of 1 for the cdc_acm module
  66:usb.c         **** 	0x00,						// iInterface
  67:usb.c         **** // header functional descriptor
  68:usb.c         **** 	0x05,
  69:usb.c         **** 	CS_INTERFACE,
  70:usb.c         **** 	0x00,
  71:usb.c         **** 	LE_WORD(0x0110),
  72:usb.c         **** // call management functional descriptor
  73:usb.c         **** 	0x05,
  74:usb.c         **** 	CS_INTERFACE,
  75:usb.c         **** 	0x01,
  76:usb.c         **** 	0x01,						// bmCapabilities = device handles call management
  77:usb.c         **** 	0x01,						// bDataInterface
  78:usb.c         **** // ACM functional descriptor
  79:usb.c         **** 	0x04,
  80:usb.c         **** 	CS_INTERFACE,
  81:usb.c         **** 	0x02,
  82:usb.c         **** 	0x02,						// bmCapabilities
  83:usb.c         **** // union functional descriptor
  84:usb.c         **** 	0x05,
  85:usb.c         **** 	CS_INTERFACE,
  86:usb.c         **** 	0x06,
  87:usb.c         **** 	0x00,						// bMasterInterface
  88:usb.c         **** 	0x01,						// bSlaveInterface0
  89:usb.c         **** // notification EP
  90:usb.c         **** 	0x07,
  91:usb.c         **** 	DESC_ENDPOINT,
  92:usb.c         **** 	INT_IN_EP,					// bEndpointAddress
  93:usb.c         **** 	0x03,						// bmAttributes = intr
  94:usb.c         **** 	LE_WORD(8),					// wMaxPacketSize
  95:usb.c         **** 	0x0A,						// bInterval
  96:usb.c         **** // data class interface descriptor
  97:usb.c         **** 	0x09,
  98:usb.c         **** 	DESC_INTERFACE,
  99:usb.c         **** 	0x01,						// bInterfaceNumber
 100:usb.c         **** 	0x00,						// bAlternateSetting
 101:usb.c         **** 	0x02,						// bNumEndPoints
 102:usb.c         **** 	0x0A,						// bInterfaceClass = data
 103:usb.c         **** 	0x00,						// bInterfaceSubClass
 104:usb.c         **** 	0x00,						// bInterfaceProtocol
 105:usb.c         **** 	0x00,						// iInterface
 106:usb.c         **** // data EP OUT
 107:usb.c         **** 	0x07,
 108:usb.c         **** 	DESC_ENDPOINT,
 109:usb.c         **** 	BULK_OUT_EP,				// bEndpointAddress
 110:usb.c         **** 	0x02,						// bmAttributes = bulk
ARM GAS  /cygdrive/c/DOCUME~1/PHELPS~1/LOCALS~1/Temp/cccwBzib.s 			page 6


 111:usb.c         **** 	LE_WORD(MAX_PACKET_SIZE),	// wMaxPacketSize
 112:usb.c         **** 	0x00,						// bInterval
 113:usb.c         **** // data EP in
 114:usb.c         **** 	0x07,
 115:usb.c         **** 	DESC_ENDPOINT,
 116:usb.c         **** 	BULK_IN_EP,					// bEndpointAddress
 117:usb.c         **** 	0x02,						// bmAttributes = bulk
 118:usb.c         **** 	LE_WORD(MAX_PACKET_SIZE),	// wMaxPacketSize
 119:usb.c         **** 	0x00,						// bInterval
 120:usb.c         **** 	
 121:usb.c         **** 	// string descriptors
 122:usb.c         **** 	0x04,
 123:usb.c         **** 	DESC_STRING,
 124:usb.c         **** 	LE_WORD(0x0409),
 125:usb.c         **** 
 126:usb.c         **** 	0x0E,
 127:usb.c         **** 	DESC_STRING,
 128:usb.c         **** 	'L', 0, 'P', 0, 'C', 0, 'U', 0, 'S', 0, 'B', 0,
 129:usb.c         **** 
 130:usb.c         **** 	0x14,
 131:usb.c         **** 	DESC_STRING,
 132:usb.c         **** 	'U', 0, 'S', 0, 'B', 0, 'S', 0, 'e', 0, 'r', 0, 'i', 0, 'a', 0, 'l', 0,
 133:usb.c         **** 
 134:usb.c         **** 	0x12,
 135:usb.c         **** 	DESC_STRING,
 136:usb.c         **** 	'D', 0, 'E', 0, 'A', 0, 'D', 0, 'C', 0, '0', 0, 'D', 0, 'E', 0,
 137:usb.c         **** 
 138:usb.c         **** // terminating zero
 139:usb.c         **** 	0
 140:usb.c         **** };
 141:usb.c         **** 
 142:usb.c         **** 
 143:usb.c         **** /**
 144:usb.c         **** 	Local function to handle incoming bulk data
 145:usb.c         **** 		
 146:usb.c         **** 	@param [in] bEP
 147:usb.c         **** 	@param [in] bEPStatus
 148:usb.c         ****  */
 149:usb.c         **** static void BulkOut(U8 bEP, U8 bEPStatus)
 150:usb.c         **** {
 172              		.loc 1 150 0
 173              		@ args = 0, pretend = 0, frame = 0
 174              		@ frame_needed = 0, uses_anonymous_args = 0
 175              	.LVL0:
 176 0000 30402DE9 		stmfd	sp!, {r4, r5, lr}
 177              	.LCFI0:
 178 0004 FF4000E2 		and	r4, r0, #255
 151:usb.c         **** 	int i, iLen;
 152:usb.c         **** 
 153:usb.c         **** 	
 154:usb.c         **** 	//if (fifo_free(&rxfifo) < MAX_PACKET_SIZE) {
 155:usb.c         **** 	if (bufferIsNotFull(&uartRxBuffer) < MAX_PACKET_SIZE) {
 179              		.loc 1 155 0
 180 0008 50009FE5 		ldr	r0, .L9
 181              	.LVL1:
 182 000c FEFFFFEB 		bl	bufferIsNotFull
 183              	.LVL2:
ARM GAS  /cygdrive/c/DOCUME~1/PHELPS~1/LOCALS~1/Temp/cccwBzib.s 			page 7


 184 0010 3F0050E3 		cmp	r0, #63
 185 0014 3080BD98 		ldmlsfd	sp!, {r4, r5, pc}
 156:usb.c         **** 		// may not fit into fifo
 157:usb.c         **** 		return;
 158:usb.c         **** 	}
 159:usb.c         **** 
 160:usb.c         **** 	// get data from USB into intermediate buffer
 161:usb.c         **** 	iLen = USBHwEPRead(bEP, abBulkBuf, sizeof(abBulkBuf));
 186              		.loc 1 161 0
 187 0018 44509FE5 		ldr	r5, .L9+4
 188 001c 0400A0E1 		mov	r0, r4
 189 0020 0510A0E1 		mov	r1, r5
 190 0024 4020A0E3 		mov	r2, #64
 191 0028 FEFFFFEB 		bl	USBHwEPRead
 162:usb.c         **** 	for (i = 0; i < iLen; i++) {
 192              		.loc 1 162 0
 193 002c 000050E3 		cmp	r0, #0
 194              	.LVL3:
 195 0030 3080BDD8 		ldmlefd	sp!, {r4, r5, pc}
 196 0034 0540A0E1 		mov	r4, r5
 197              	.LVL4:
 198 0038 055080E0 		add	r5, r0, r5
 199              	.L5:
 163:usb.c         **** 		// put into FIFO
 164:usb.c         **** 		//if (!fifo_put(&rxfifo, abBulkBuf[i])) {
 165:usb.c         **** 		if(!bufferAddToEnd(&uartRxBuffer, abBulkBuf[i])) {	
 200              		.loc 1 165 0
 201 003c 1C009FE5 		ldr	r0, .L9
 202              	.LVL5:
 203 0040 0010D4E5 		ldrb	r1, [r4, #0]	@ zero_extendqisi2
 204 0044 FEFFFFEB 		bl	bufferAddToEnd
 205 0048 000050E3 		cmp	r0, #0
 206 004c 3080BD08 		ldmeqfd	sp!, {r4, r5, pc}
 166:usb.c         **** 			// overflow... :(
 167:usb.c         **** 			//ASSERT(FALSE);
 168:usb.c         **** 			break;
 207              		.loc 1 168 0
 208 0050 014084E2 		add	r4, r4, #1
 209              		.loc 1 162 0
 210 0054 050054E1 		cmp	r4, r5
 211 0058 0D00001A 		bne	.L5
 212 005c 3080BDE8 		ldmfd	sp!, {r4, r5, pc}
 213              	.L10:
 214              		.align	2
 215              	.L9:
 216 0060 00000000 		.word	uartRxBuffer
 217 0064 80000000 		.word	abBulkBuf
 218              	.LFE2:
 219              		.size	BulkOut, .-BulkOut
 220              		.align	2
 221              		.type	BulkIn, %function
 222              	BulkIn:
 223              	.LFB3:
 169:usb.c         **** 		}
 170:usb.c         **** 	}
 171:usb.c         **** }
 172:usb.c         **** 
ARM GAS  /cygdrive/c/DOCUME~1/PHELPS~1/LOCALS~1/Temp/cccwBzib.s 			page 8


 173:usb.c         **** 
 174:usb.c         **** /**
 175:usb.c         **** 	Local function to handle outgoing bulk data
 176:usb.c         **** 		
 177:usb.c         **** 	@param [in] bEP
 178:usb.c         **** 	@param [in] bEPStatus
 179:usb.c         ****  */
 180:usb.c         **** static void BulkIn(U8 bEP, U8 bEPStatus)
 181:usb.c         **** {
 224              		.loc 1 181 0
 225              		@ args = 0, pretend = 0, frame = 0
 226              		@ frame_needed = 0, uses_anonymous_args = 0
 227              	.LVL6:
 228 0068 70402DE9 		stmfd	sp!, {r4, r5, r6, lr}
 229              	.LCFI1:
 230 006c FF6000E2 		and	r6, r0, #255
 182:usb.c         **** 	int i, iLen;
 183:usb.c         **** 	unsigned char c;
 184:usb.c         **** 
 185:usb.c         **** 	//if (fifo_avail(&txfifo) == 0) {
 186:usb.c         **** 	if (!bufferIsNotFull(&uartTxBuffer)) {
 231              		.loc 1 186 0
 232 0070 58009FE5 		ldr	r0, .L21
 233              	.LVL7:
 234 0074 FEFFFFEB 		bl	bufferIsNotFull
 235              	.LVL8:
 236 0078 000050E3 		cmp	r0, #0
 187:usb.c         **** 		// no more data, disable further NAK interrupts until next USB frame
 188:usb.c         **** 		USBHwNakIntEnable(0);
 189:usb.c         **** 		return;
 237              		.loc 1 189 0
 238 007c 0040A013 		movne	r4, #0
 239              	.LVL9:
 240 0080 4C509F15 		ldrne	r5, .L21+4
 241              		.loc 1 186 0
 242 0084 2200001A 		bne	.L15
 243              		.loc 1 188 0
 244 0088 FEFFFFEB 		bl	USBHwNakIntEnable
 245 008c 7080BDE8 		ldmfd	sp!, {r4, r5, r6, pc}
 246              	.L15:
 190:usb.c         **** 	}
 191:usb.c         **** 
 192:usb.c         **** 	// get bytes from transmit FIFO into intermediate buffer
 193:usb.c         **** 	for (i = 0; i < MAX_PACKET_SIZE; i++) {
 194:usb.c         **** 		c = bufferGetFromFront(&uartTxBuffer);
 247              		.loc 1 194 0
 248 0090 38009FE5 		ldr	r0, .L21
 249 0094 FEFFFFEB 		bl	bufferGetFromFront
 195:usb.c         **** 		if(!c) {
 250              		.loc 1 195 0
 251 0098 000050E3 		cmp	r0, #0
 252 009c 2B00000A 		beq	.L16
 196:usb.c         **** 		//if (!fifo_get(&txfifo, &abBulkBuf[i])) {
 197:usb.c         **** 			break;
 198:usb.c         **** 		} else {
 199:usb.c         **** 			abBulkBuf[i] = c;
 253              		.loc 1 199 0
ARM GAS  /cygdrive/c/DOCUME~1/PHELPS~1/LOCALS~1/Temp/cccwBzib.s 			page 9


 254 00a0 0500C4E7 		strb	r0, [r4, r5]
 255              		.loc 1 193 0
 256 00a4 014084E2 		add	r4, r4, #1
 257 00a8 400054E3 		cmp	r4, #64
 258 00ac 2D00000A 		beq	.L18
 259 00b0 220000EA 		b	.L15
 260              	.L16:
 200:usb.c         **** 		}
 201:usb.c         **** 	}
 202:usb.c         **** 	iLen = i;
 203:usb.c         **** 	
 204:usb.c         **** 	// send over USB
 205:usb.c         **** 	if (iLen > 0) {
 261              		.loc 1 205 0
 262 00b4 000054E3 		cmp	r4, #0
 263 00b8 7080BDD8 		ldmlefd	sp!, {r4, r5, r6, pc}
 264              	.L18:
 206:usb.c         **** 		USBHwEPWrite(bEP, abBulkBuf, iLen);
 265              		.loc 1 206 0
 266 00bc 0600A0E1 		mov	r0, r6
 267 00c0 0C109FE5 		ldr	r1, .L21+4
 268 00c4 0420A0E1 		mov	r2, r4
 269 00c8 FEFFFFEB 		bl	USBHwEPWrite
 270 00cc 7080BDE8 		ldmfd	sp!, {r4, r5, r6, pc}
 271              	.L22:
 272              		.align	2
 273              	.L21:
 274 00d0 00000000 		.word	uartTxBuffer
 275 00d4 80000000 		.word	abBulkBuf
 276              	.LFE3:
 277              		.size	BulkIn, .-BulkIn
 278              		.align	2
 279              		.type	HandleClassRequest, %function
 280              	HandleClassRequest:
 281              	.LFB4:
 207:usb.c         **** 	}
 208:usb.c         **** }
 209:usb.c         **** 
 210:usb.c         **** 
 211:usb.c         **** /**
 212:usb.c         **** 	Local function to handle the USB-CDC class requests
 213:usb.c         **** 		
 214:usb.c         **** 	@param [in] pSetup
 215:usb.c         **** 	@param [out] piLen
 216:usb.c         **** 	@param [out] ppbData
 217:usb.c         ****  */
 218:usb.c         **** static BOOL HandleClassRequest(TSetupPacket *pSetup, int *piLen, U8 **ppbData)
 219:usb.c         **** {
 282              		.loc 1 219 0
 283              		@ args = 0, pretend = 0, frame = 0
 284              		@ frame_needed = 0, uses_anonymous_args = 0
 285              	.LVL10:
 286 00d8 30402DE9 		stmfd	sp!, {r4, r5, lr}
 287              	.LCFI2:
 288 00dc 0150A0E1 		mov	r5, r1
 220:usb.c         **** 	switch (pSetup->bRequest) {
 289              		.loc 1 220 0
ARM GAS  /cygdrive/c/DOCUME~1/PHELPS~1/LOCALS~1/Temp/cccwBzib.s 			page 10


 290 00e0 0130D0E5 		ldrb	r3, [r0, #1]	@ zero_extendqisi2
 291 00e4 210053E3 		cmp	r3, #33
 292 00e8 4700000A 		beq	.L26
 293              	.LVL11:
 294 00ec 220053E3 		cmp	r3, #34
 295 00f0 FF00A003 		moveq	r0, #255
 296              	.LVL12:
 297 00f4 3080BD08 		ldmeqfd	sp!, {r4, r5, pc}
 298 00f8 200053E3 		cmp	r3, #32
 299 00fc 0000A013 		movne	r0, #0
 300 0100 3080BD18 		ldmnefd	sp!, {r4, r5, pc}
 221:usb.c         **** 
 222:usb.c         **** 	// set line coding
 223:usb.c         **** 	case SET_LINE_CODING:
 224:usb.c         **** //DBG("SET_LINE_CODING\n");
 225:usb.c         **** 		memcpy((U8 *)&LineCoding, *ppbData, 7);
 301              		.loc 1 225 0
 302 0104 0740A0E3 		mov	r4, #7
 303 0108 2C009FE5 		ldr	r0, .L30
 304 010c 001092E5 		ldr	r1, [r2, #0]
 305 0110 0420A0E1 		mov	r2, r4
 306              	.LVL13:
 307 0114 FEFFFFEB 		bl	memcpy
 226:usb.c         **** 		*piLen = 7;
 308              		.loc 1 226 0
 309 0118 004085E5 		str	r4, [r5, #0]
 310 011c FF00A0E3 		mov	r0, #255
 311 0120 3080BDE8 		ldmfd	sp!, {r4, r5, pc}
 312              	.LVL14:
 313              	.L26:
 227:usb.c         **** //DBG("dwDTERate=%u, bCharFormat=%u, bParityType=%u, bDataBits=%u\n",
 228:usb.c         **** //	LineCoding.dwDTERate,
 229:usb.c         **** //	LineCoding.bCharFormat,
 230:usb.c         **** //	LineCoding.bParityType,
 231:usb.c         **** //	LineCoding.bDataBits);
 232:usb.c         **** 		break;
 233:usb.c         **** 
 234:usb.c         **** 	// get line coding
 235:usb.c         **** 	case GET_LINE_CODING:
 236:usb.c         **** //DBG("GET_LINE_CODING\n");
 237:usb.c         **** 		*ppbData = (U8 *)&LineCoding;
 314              		.loc 1 237 0
 315 0124 10309FE5 		ldr	r3, .L30
 316 0128 003082E5 		str	r3, [r2, #0]
 238:usb.c         **** 		*piLen = 7;
 317              		.loc 1 238 0
 318 012c 0730A0E3 		mov	r3, #7
 319 0130 003081E5 		str	r3, [r1, #0]
 320 0134 FF00A0E3 		mov	r0, #255
 321              	.LVL15:
 239:usb.c         **** 		break;
 240:usb.c         **** 
 241:usb.c         **** 	// set control line state
 242:usb.c         **** 	case SET_CONTROL_LINE_STATE:
 243:usb.c         **** 		// bit0 = DTR, bit = RTS
 244:usb.c         **** //DBG("SET_CONTROL_LINE_STATE %X\n", pSetup->wValue);
 245:usb.c         **** 		break;
ARM GAS  /cygdrive/c/DOCUME~1/PHELPS~1/LOCALS~1/Temp/cccwBzib.s 			page 11


 246:usb.c         **** 
 247:usb.c         **** 	default:
 248:usb.c         **** 		return FALSE;
 249:usb.c         **** 	}
 250:usb.c         **** 	return TRUE;
 251:usb.c         **** }
 322              		.loc 1 251 0
 323 0138 3080BDE8 		ldmfd	sp!, {r4, r5, pc}
 324              	.L31:
 325              		.align	2
 326              	.L30:
 327 013c 00000000 		.word	LineCoding
 328              	.LFE4:
 329              		.size	HandleClassRequest, .-HandleClassRequest
 330              		.align	2
 331              		.global	VCOM_init
 332              		.type	VCOM_init, %function
 333              	VCOM_init:
 334              	.LFB5:
 252:usb.c         **** 
 253:usb.c         **** 
 254:usb.c         **** /**
 255:usb.c         **** 	Initialises the VCOM port.
 256:usb.c         **** 	Call this function before using VCOM_putchar or VCOM_getchar
 257:usb.c         ****  */
 258:usb.c         **** void VCOM_init(void)
 259:usb.c         **** {
 335              		.loc 1 259 0
 336              		@ args = 0, pretend = 0, frame = 0
 337              		@ frame_needed = 0, uses_anonymous_args = 0
 338              	.LVL16:
 339 0140 04E02DE5 		str	lr, [sp, #-4]!
 340              	.LCFI3:
 260:usb.c         **** 	//fifo_init(&txfifo, txdata);
 261:usb.c         **** 	//fifo_init(&rxfifo, rxdata);
 262:usb.c         **** 	bufferInit(&uartTxBuffer, uartTxData, UART_TX_BUFFER_SIZE);
 341              		.loc 1 262 0
 342 0144 1C009FE5 		ldr	r0, .L34
 343 0148 1C109FE5 		ldr	r1, .L34+4
 344 014c 4020A0E3 		mov	r2, #64
 345 0150 FEFFFFEB 		bl	bufferInit
 263:usb.c         **** 	bufferInit(&uartRxBuffer, uartRxData, UART_RX_BUFFER_SIZE);
 346              		.loc 1 263 0
 347 0154 14009FE5 		ldr	r0, .L34+8
 348 0158 14109FE5 		ldr	r1, .L34+12
 349 015c 4020A0E3 		mov	r2, #64
 350 0160 FEFFFFEB 		bl	bufferInit
 264:usb.c         **** }
 351              		.loc 1 264 0
 352 0164 04F09DE4 		ldr	pc, [sp], #4
 353              	.L35:
 354              		.align	2
 355              	.L34:
 356 0168 00000000 		.word	uartTxBuffer
 357 016c 40000000 		.word	uartTxData
 358 0170 00000000 		.word	uartRxBuffer
 359 0174 00000000 		.word	uartRxData
ARM GAS  /cygdrive/c/DOCUME~1/PHELPS~1/LOCALS~1/Temp/cccwBzib.s 			page 12


 360              	.LFE5:
 361              		.size	VCOM_init, .-VCOM_init
 362              		.align	2
 363              		.global	VCOM_putchar
 364              		.type	VCOM_putchar, %function
 365              	VCOM_putchar:
 366              	.LFB6:
 265:usb.c         **** 
 266:usb.c         **** 
 267:usb.c         **** /**
 268:usb.c         **** 	Writes one character to VCOM port
 269:usb.c         **** 	
 270:usb.c         **** 	@param [in] c character to write
 271:usb.c         **** 	@returns character written, or EOF if character could not be written
 272:usb.c         **** 	though with recent modifications this will never happen. The loop waits
 273:usb.c         **** 	until space is available in the buffer before writing, poor way to do it.
 274:usb.c         ****  */
 275:usb.c         **** int VCOM_putchar(int c)
 276:usb.c         **** {
 367              		.loc 1 276 0
 368              		@ args = 0, pretend = 0, frame = 0
 369              		@ frame_needed = 0, uses_anonymous_args = 0
 370              	.LVL17:
 371 0178 30402DE9 		stmfd	sp!, {r4, r5, lr}
 372              	.LCFI4:
 373 017c 0050A0E1 		mov	r5, r0
 374 0180 2C409FE5 		ldr	r4, .L45
 375              	.LVL18:
 376              	.L38:
 277:usb.c         **** 	//return fifo_put(&txfifo, c) ? c : EOF;
 278:usb.c         **** 	while(MAX_PACKET_SIZE - bufferIsNotFull(&uartTxBuffer) > 1);
 377              		.loc 1 278 0
 378 0184 0400A0E1 		mov	r0, r4
 379 0188 FEFFFFEB 		bl	bufferIsNotFull
 380 018c 400060E2 		rsb	r0, r0, #64
 381 0190 010050E3 		cmp	r0, #1
 382 0194 5F0000CA 		bgt	.L38
 279:usb.c         **** 	return bufferAddToEnd(&uartTxBuffer, c) ? c : EOF;
 383              		.loc 1 279 0
 384 0198 FF1005E2 		and	r1, r5, #255
 385 019c 0400A0E1 		mov	r0, r4
 386 01a0 FEFFFFEB 		bl	bufferAddToEnd
 387 01a4 000050E3 		cmp	r0, #0
 280:usb.c         **** }
 388              		.loc 1 280 0
 389 01a8 0500A011 		movne	r0, r5
 390 01ac 0000E003 		mvneq	r0, #0
 391 01b0 3080BDE8 		ldmfd	sp!, {r4, r5, pc}
 392              	.L46:
 393              		.align	2
 394              	.L45:
 395 01b4 00000000 		.word	uartTxBuffer
 396              	.LFE6:
 397              		.size	VCOM_putchar, .-VCOM_putchar
 398              		.align	2
 399              		.global	VCOM_getchar
 400              		.type	VCOM_getchar, %function
ARM GAS  /cygdrive/c/DOCUME~1/PHELPS~1/LOCALS~1/Temp/cccwBzib.s 			page 13


 401              	VCOM_getchar:
 402              	.LFB7:
 281:usb.c         **** 
 282:usb.c         **** 
 283:usb.c         **** /**
 284:usb.c         **** 	Reads one character from VCOM port
 285:usb.c         **** 	
 286:usb.c         **** 	@returns character read, or EOF if character could not be read
 287:usb.c         ****  */
 288:usb.c         **** int VCOM_getchar(void)
 289:usb.c         **** {
 403              		.loc 1 289 0
 404              		@ args = 0, pretend = 0, frame = 0
 405              		@ frame_needed = 0, uses_anonymous_args = 0
 406              	.LVL19:
 407 01b8 04E02DE5 		str	lr, [sp, #-4]!
 408              	.LCFI5:
 290:usb.c         **** 	//return fifo_get(&rxfifo, &c) ? c : EOF;
 291:usb.c         **** 	return bufferGetFromFront(&uartRxBuffer);
 409              		.loc 1 291 0
 410 01bc 04009FE5 		ldr	r0, .L49
 411 01c0 FEFFFFEB 		bl	bufferGetFromFront
 292:usb.c         **** }
 412              		.loc 1 292 0
 413 01c4 04F09DE4 		ldr	pc, [sp], #4
 414              	.L50:
 415              		.align	2
 416              	.L49:
 417 01c8 00000000 		.word	uartRxBuffer
 418              	.LFE7:
 419              		.size	VCOM_getchar, .-VCOM_getchar
 420              		.align	2
 421              		.type	USBIntHandler, %function
 422              	USBIntHandler:
 423              	.LFB8:
 293:usb.c         **** 
 294:usb.c         **** 
 295:usb.c         **** /**
 296:usb.c         **** 	Interrupt handler
 297:usb.c         **** 	
 298:usb.c         **** 	Simply calls the USB ISR, then signals end of interrupt to VIC
 299:usb.c         ****  */
 300:usb.c         **** static void USBIntHandler(void)
 301:usb.c         **** {
 424              		.loc 1 301 0
 425              		@ Interrupt Service Routine.
 426              		@ args = 0, pretend = 0, frame = 0
 427              		@ frame_needed = 0, uses_anonymous_args = 0
 428              	.LVL20:
 429 01cc 04E04EE2 		sub	lr, lr, #4
 430 01d0 0F502DE9 		stmfd	sp!, {r0, r1, r2, r3, ip, lr}
 431              	.LCFI6:
 302:usb.c         **** 	USBHwISR();
 432              		.loc 1 302 0
 433 01d4 FEFFFFEB 		bl	USBHwISR
 303:usb.c         **** 	VICVectAddr = 0x00;    // dummy write to VIC to signal end of ISR 	
 434              		.loc 1 303 0
ARM GAS  /cygdrive/c/DOCUME~1/PHELPS~1/LOCALS~1/Temp/cccwBzib.s 			page 14


 435 01d8 0020A0E3 		mov	r2, #0
 436 01dc 0231A0E3 		mov	r3, #-2147483648
 437 01e0 C339A0E1 		mov	r3, r3, asr #19
 438 01e4 302083E5 		str	r2, [r3, #48]
 304:usb.c         **** }
 439              		.loc 1 304 0
 440 01e8 0F90FDE8 		ldmfd	sp!, {r0, r1, r2, r3, ip, pc}^
 441              	.LFE8:
 442              		.size	USBIntHandler, .-USBIntHandler
 443              		.align	2
 444              		.type	USBFrameHandler, %function
 445              	USBFrameHandler:
 446              	.LFB9:
 305:usb.c         **** 
 306:usb.c         **** 
 307:usb.c         **** static void USBFrameHandler(U16 wFrame)
 308:usb.c         **** {
 447              		.loc 1 308 0
 448              		@ args = 0, pretend = 0, frame = 0
 449              		@ frame_needed = 0, uses_anonymous_args = 0
 450              	.LVL21:
 451 01ec 04E02DE5 		str	lr, [sp, #-4]!
 452              	.LCFI7:
 309:usb.c         **** 	//if (fifo_avail(&txfifo) > 0) {
 310:usb.c         **** 	if (bufferIsNotFull(&uartTxBuffer) > 0) {
 453              		.loc 1 310 0
 454 01f0 14009FE5 		ldr	r0, .L57
 455              	.LVL22:
 456 01f4 FEFFFFEB 		bl	bufferIsNotFull
 457 01f8 000050E3 		cmp	r0, #0
 458 01fc 04F09D04 		ldreq	pc, [sp], #4
 311:usb.c         **** 		// data available, enable NAK interrupt on bulk in
 312:usb.c         **** 		USBHwNakIntEnable(INACK_BI);
 459              		.loc 1 312 0
 460 0200 2000A0E3 		mov	r0, #32
 461 0204 FEFFFFEB 		bl	USBHwNakIntEnable
 462 0208 04F09DE4 		ldr	pc, [sp], #4
 463              	.L58:
 464              		.align	2
 465              	.L57:
 466 020c 00000000 		.word	uartTxBuffer
 467              	.LFE9:
 468              		.size	USBFrameHandler, .-USBFrameHandler
 469              		.align	2
 470              		.global	usbSetup
 471              		.type	usbSetup, %function
 472              	usbSetup:
 473              	.LFB10:
 313:usb.c         **** 	}
 314:usb.c         **** }
 315:usb.c         **** 
 316:usb.c         **** void usbSetup(void)
 317:usb.c         **** {
 474              		.loc 1 317 0
 475              		@ args = 0, pretend = 0, frame = 0
 476              		@ frame_needed = 0, uses_anonymous_args = 0
 477              	.LVL23:
ARM GAS  /cygdrive/c/DOCUME~1/PHELPS~1/LOCALS~1/Temp/cccwBzib.s 			page 15


 478 0210 04E02DE5 		str	lr, [sp, #-4]!
 479              	.LCFI8:
 318:usb.c         **** 	
 319:usb.c         **** 	// init DBG
 320:usb.c         **** 	//ConsoleInit(60000000 / (16 * BAUD_RATE));
 321:usb.c         **** 
 322:usb.c         **** 	//DBG("Initialising USB stack\n");
 323:usb.c         **** 
 324:usb.c         **** 	// initialise stack
 325:usb.c         **** 	USBInit();
 480              		.loc 1 325 0
 481 0214 FEFFFFEB 		bl	USBInit
 326:usb.c         **** 
 327:usb.c         **** 	// register descriptors
 328:usb.c         **** 	USBRegisterDescriptors(abDescriptors);
 482              		.loc 1 328 0
 483 0218 8C009FE5 		ldr	r0, .L61
 484 021c FEFFFFEB 		bl	USBRegisterDescriptors
 329:usb.c         **** 
 330:usb.c         **** 	// register class request handler
 331:usb.c         **** 	USBRegisterRequestHandler(REQTYPE_TYPE_CLASS, HandleClassRequest, abClassReqData);
 485              		.loc 1 331 0
 486 0220 0100A0E3 		mov	r0, #1
 487 0224 84109FE5 		ldr	r1, .L61+4
 488 0228 84209FE5 		ldr	r2, .L61+8
 489 022c FEFFFFEB 		bl	USBRegisterRequestHandler
 332:usb.c         **** 
 333:usb.c         **** 	// register endpoint handlers
 334:usb.c         **** 	USBHwRegisterEPIntHandler(INT_IN_EP, NULL);
 490              		.loc 1 334 0
 491 0230 8100A0E3 		mov	r0, #129
 492 0234 0010A0E3 		mov	r1, #0
 493 0238 FEFFFFEB 		bl	USBHwRegisterEPIntHandler
 335:usb.c         **** 	USBHwRegisterEPIntHandler(BULK_IN_EP, BulkIn);
 494              		.loc 1 335 0
 495 023c 8200A0E3 		mov	r0, #130
 496 0240 70109FE5 		ldr	r1, .L61+12
 497 0244 FEFFFFEB 		bl	USBHwRegisterEPIntHandler
 336:usb.c         **** 	USBHwRegisterEPIntHandler(BULK_OUT_EP, BulkOut);
 498              		.loc 1 336 0
 499 0248 0500A0E3 		mov	r0, #5
 500 024c 68109FE5 		ldr	r1, .L61+16
 501 0250 FEFFFFEB 		bl	USBHwRegisterEPIntHandler
 337:usb.c         **** 	
 338:usb.c         **** 	// register frame handler
 339:usb.c         **** 	USBHwRegisterFrameHandler(USBFrameHandler);
 502              		.loc 1 339 0
 503 0254 64009FE5 		ldr	r0, .L61+20
 504 0258 FEFFFFEB 		bl	USBHwRegisterFrameHandler
 340:usb.c         **** 
 341:usb.c         **** 	// enable bulk-in interrupts on NAKs
 342:usb.c         **** 	USBHwNakIntEnable(INACK_BI);
 505              		.loc 1 342 0
 506 025c 2000A0E3 		mov	r0, #32
 507 0260 FEFFFFEB 		bl	USBHwNakIntEnable
 343:usb.c         **** 
 344:usb.c         **** 	// initialise VCOM
ARM GAS  /cygdrive/c/DOCUME~1/PHELPS~1/LOCALS~1/Temp/cccwBzib.s 			page 16


 345:usb.c         **** 	VCOM_init();
 508              		.loc 1 345 0
 509 0264 FEFFFFEB 		bl	VCOM_init
 346:usb.c         **** 
 347:usb.c         **** 	//DBG("Starting USB communication\n");
 348:usb.c         **** 
 349:usb.c         **** 	// set up USB interrupt
 350:usb.c         **** 	VICIntSelect &= ~(1<<22);               // select IRQ for USB
 510              		.loc 1 350 0
 511 0268 0221A0E3 		mov	r2, #-2147483648
 512 026c C229A0E1 		mov	r2, r2, asr #19
 513 0270 0C3092E5 		ldr	r3, [r2, #12]
 514 0274 0135C3E3 		bic	r3, r3, #4194304
 515 0278 0C3082E5 		str	r3, [r2, #12]
 351:usb.c         **** 	VICIntEnable |= (1<<22);
 516              		.loc 1 351 0
 517 027c 103092E5 		ldr	r3, [r2, #16]
 518 0280 013583E3 		orr	r3, r3, #4194304
 519 0284 103082E5 		str	r3, [r2, #16]
 352:usb.c         **** 
 353:usb.c         **** 	(*(&VICVectCntl0+INT_VECT_NUM)) = 0x20 | 22; // choose highest priority ISR slot 	
 520              		.loc 1 353 0
 521 0288 3630A0E3 		mov	r3, #54
 522 028c 003282E5 		str	r3, [r2, #512]
 354:usb.c         **** 	(*(&VICVectAddr0+INT_VECT_NUM)) = (int)USBIntHandler;
 523              		.loc 1 354 0
 524 0290 2C309FE5 		ldr	r3, .L61+24
 525 0294 003182E5 		str	r3, [r2, #256]
 355:usb.c         **** 	
 356:usb.c         **** 	processorEnableInt(CPSR_MASK_IRQ);
 526              		.loc 1 356 0
 527 0298 8000A0E3 		mov	r0, #128
 528 029c FEFFFFEB 		bl	processorEnableInt
 357:usb.c         **** 	//enableIRQ();
 358:usb.c         **** 	
 359:usb.c         **** 	
 360:usb.c         **** 	// connect to bus
 361:usb.c         **** 	USBHwConnect(TRUE);
 529              		.loc 1 361 0
 530 02a0 FF00A0E3 		mov	r0, #255
 531 02a4 FEFFFFEB 		bl	USBHwConnect
 362:usb.c         **** }
 532              		.loc 1 362 0
 533 02a8 04F09DE4 		ldr	pc, [sp], #4
 534              	.L62:
 535              		.align	2
 536              	.L61:
 537 02ac 00000000 		.word	abDescriptors
 538 02b0 D8000000 		.word	HandleClassRequest
 539 02b4 C0000000 		.word	abClassReqData
 540 02b8 68000000 		.word	BulkIn
 541 02bc 00000000 		.word	BulkOut
 542 02c0 EC010000 		.word	USBFrameHandler
 543 02c4 CC010000 		.word	USBIntHandler
 544              	.LFE10:
 545              		.size	usbSetup, .-usbSetup
 546              		.bss
ARM GAS  /cygdrive/c/DOCUME~1/PHELPS~1/LOCALS~1/Temp/cccwBzib.s 			page 17


 547              	uartRxData:
 548 0000 00000000 		.space	64
 548      00000000 
 548      00000000 
 548      00000000 
 548      00000000 
 549              	uartTxData:
 550 0040 00000000 		.space	64
 550      00000000 
 550      00000000 
 550      00000000 
 550      00000000 
 551              	abBulkBuf:
 552 0080 00000000 		.space	64
 552      00000000 
 552      00000000 
 552      00000000 
 552      00000000 
 553              	abClassReqData:
 554 00c0 00000000 		.space	8
 554      00000000 
 555              		.comm	uartRxBuffer,12,4
 556              		.comm	uartTxBuffer,12,4
 557              		.comm	uartRxOverflow,2,2
 558              		.section	.debug_frame,"",%progbits
 559              	.Lframe0:
 560 0000 0C000000 		.4byte	.LECIE0-.LSCIE0
 561              	.LSCIE0:
 562 0004 FFFFFFFF 		.4byte	0xffffffff
 563 0008 01       		.byte	0x1
 564 0009 00       		.ascii	"\000"
 565 000a 01       		.uleb128 0x1
 566 000b 7C       		.sleb128 -4
 567 000c 0E       		.byte	0xe
 568 000d 0C       		.byte	0xc
 569 000e 0D       		.uleb128 0xd
 570 000f 00       		.uleb128 0x0
 571              		.align	2
 572              	.LECIE0:
 573              	.LSFDE0:
 574 0010 18000000 		.4byte	.LEFDE0-.LASFDE0
 575              	.LASFDE0:
 576 0014 00000000 		.4byte	.Lframe0
 577 0018 00000000 		.4byte	.LFB2
 578 001c 68000000 		.4byte	.LFE2-.LFB2
 579 0020 44       		.byte	0x4
 580              		.4byte	.LCFI0-.LFB2
 581 0021 0E       		.byte	0xe
 582 0022 0C       		.uleb128 0xc
 583 0023 8E       		.byte	0x8e
 584 0024 01       		.uleb128 0x1
 585 0025 85       		.byte	0x85
 586 0026 02       		.uleb128 0x2
 587 0027 84       		.byte	0x84
 588 0028 03       		.uleb128 0x3
 589 0029 000000   		.align	2
 590              	.LEFDE0:
ARM GAS  /cygdrive/c/DOCUME~1/PHELPS~1/LOCALS~1/Temp/cccwBzib.s 			page 18


 591              	.LSFDE2:
 592 002c 18000000 		.4byte	.LEFDE2-.LASFDE2
 593              	.LASFDE2:
 594 0030 00000000 		.4byte	.Lframe0
 595 0034 68000000 		.4byte	.LFB3
 596 0038 70000000 		.4byte	.LFE3-.LFB3
 597 003c 44       		.byte	0x4
 598              		.4byte	.LCFI1-.LFB3
 599 003d 0E       		.byte	0xe
 600 003e 10       		.uleb128 0x10
 601 003f 8E       		.byte	0x8e
 602 0040 01       		.uleb128 0x1
 603 0041 86       		.byte	0x86
 604 0042 02       		.uleb128 0x2
 605 0043 85       		.byte	0x85
 606 0044 03       		.uleb128 0x3
 607 0045 84       		.byte	0x84
 608 0046 04       		.uleb128 0x4
 609 0047 00       		.align	2
 610              	.LEFDE2:
 611              	.LSFDE4:
 612 0048 18000000 		.4byte	.LEFDE4-.LASFDE4
 613              	.LASFDE4:
 614 004c 00000000 		.4byte	.Lframe0
 615 0050 D8000000 		.4byte	.LFB4
 616 0054 68000000 		.4byte	.LFE4-.LFB4
 617 0058 44       		.byte	0x4
 618              		.4byte	.LCFI2-.LFB4
 619 0059 0E       		.byte	0xe
 620 005a 0C       		.uleb128 0xc
 621 005b 8E       		.byte	0x8e
 622 005c 01       		.uleb128 0x1
 623 005d 85       		.byte	0x85
 624 005e 02       		.uleb128 0x2
 625 005f 84       		.byte	0x84
 626 0060 03       		.uleb128 0x3
 627 0061 000000   		.align	2
 628              	.LEFDE4:
 629              	.LSFDE6:
 630 0064 14000000 		.4byte	.LEFDE6-.LASFDE6
 631              	.LASFDE6:
 632 0068 00000000 		.4byte	.Lframe0
 633 006c 40010000 		.4byte	.LFB5
 634 0070 38000000 		.4byte	.LFE5-.LFB5
 635 0074 44       		.byte	0x4
 636              		.4byte	.LCFI3-.LFB5
 637 0075 0E       		.byte	0xe
 638 0076 04       		.uleb128 0x4
 639 0077 8E       		.byte	0x8e
 640 0078 01       		.uleb128 0x1
 641 0079 000000   		.align	2
 642              	.LEFDE6:
 643              	.LSFDE8:
 644 007c 18000000 		.4byte	.LEFDE8-.LASFDE8
 645              	.LASFDE8:
 646 0080 00000000 		.4byte	.Lframe0
 647 0084 78010000 		.4byte	.LFB6
ARM GAS  /cygdrive/c/DOCUME~1/PHELPS~1/LOCALS~1/Temp/cccwBzib.s 			page 19


 648 0088 40000000 		.4byte	.LFE6-.LFB6
 649 008c 44       		.byte	0x4
 650              		.4byte	.LCFI4-.LFB6
 651 008d 0E       		.byte	0xe
 652 008e 0C       		.uleb128 0xc
 653 008f 8E       		.byte	0x8e
 654 0090 01       		.uleb128 0x1
 655 0091 85       		.byte	0x85
 656 0092 02       		.uleb128 0x2
 657 0093 84       		.byte	0x84
 658 0094 03       		.uleb128 0x3
 659 0095 000000   		.align	2
 660              	.LEFDE8:
 661              	.LSFDE10:
 662 0098 14000000 		.4byte	.LEFDE10-.LASFDE10
 663              	.LASFDE10:
 664 009c 00000000 		.4byte	.Lframe0
 665 00a0 B8010000 		.4byte	.LFB7
 666 00a4 14000000 		.4byte	.LFE7-.LFB7
 667 00a8 44       		.byte	0x4
 668              		.4byte	.LCFI5-.LFB7
 669 00a9 0E       		.byte	0xe
 670 00aa 04       		.uleb128 0x4
 671 00ab 8E       		.byte	0x8e
 672 00ac 01       		.uleb128 0x1
 673 00ad 000000   		.align	2
 674              	.LEFDE10:
 675              	.LSFDE12:
 676 00b0 1C000000 		.4byte	.LEFDE12-.LASFDE12
 677              	.LASFDE12:
 678 00b4 00000000 		.4byte	.Lframe0
 679 00b8 CC010000 		.4byte	.LFB8
 680 00bc 20000000 		.4byte	.LFE8-.LFB8
 681 00c0 48       		.byte	0x4
 682              		.4byte	.LCFI6-.LFB8
 683 00c1 0E       		.byte	0xe
 684 00c2 18       		.uleb128 0x18
 685 00c3 8E       		.byte	0x8e
 686 00c4 01       		.uleb128 0x1
 687 00c5 8C       		.byte	0x8c
 688 00c6 02       		.uleb128 0x2
 689 00c7 83       		.byte	0x83
 690 00c8 03       		.uleb128 0x3
 691 00c9 82       		.byte	0x82
 692 00ca 04       		.uleb128 0x4
 693 00cb 81       		.byte	0x81
 694 00cc 05       		.uleb128 0x5
 695 00cd 80       		.byte	0x80
 696 00ce 06       		.uleb128 0x6
 697 00cf 00       		.align	2
 698              	.LEFDE12:
 699              	.LSFDE14:
 700 00d0 14000000 		.4byte	.LEFDE14-.LASFDE14
 701              	.LASFDE14:
 702 00d4 00000000 		.4byte	.Lframe0
 703 00d8 EC010000 		.4byte	.LFB9
 704 00dc 24000000 		.4byte	.LFE9-.LFB9
ARM GAS  /cygdrive/c/DOCUME~1/PHELPS~1/LOCALS~1/Temp/cccwBzib.s 			page 20


 705 00e0 44       		.byte	0x4
 706              		.4byte	.LCFI7-.LFB9
 707 00e1 0E       		.byte	0xe
 708 00e2 04       		.uleb128 0x4
 709 00e3 8E       		.byte	0x8e
 710 00e4 01       		.uleb128 0x1
 711 00e5 000000   		.align	2
 712              	.LEFDE14:
 713              	.LSFDE16:
 714 00e8 14000000 		.4byte	.LEFDE16-.LASFDE16
 715              	.LASFDE16:
 716 00ec 00000000 		.4byte	.Lframe0
 717 00f0 10020000 		.4byte	.LFB10
 718 00f4 B8000000 		.4byte	.LFE10-.LFB10
 719 00f8 44       		.byte	0x4
 720              		.4byte	.LCFI8-.LFB10
 721 00f9 0E       		.byte	0xe
 722 00fa 04       		.uleb128 0x4
 723 00fb 8E       		.byte	0x8e
 724 00fc 01       		.uleb128 0x1
 725 00fd 000000   		.align	2
 726              	.LEFDE16:
 727              		.file 2 "C:/WinARM/armlib/armlibtypes.h"
 728              		.file 3 "usbstruct.h"
 729              		.file 4 "C:/WinARM/armlib/buffer.h"
 730              		.text
 731              	.Letext0: