ARM GAS  C:\DOCUME~1\TECHCO~1\LOCALS~1\Temp/ccmyaaaa.s 			page 1


   1              		.file	"buttons.c"
   8 0000 8D000000 		.text
   8      02003F00 
   8      00000201 
   8      FB0E0A00 
   8      01010101 
   9              	.Ltext0:
  10              		.align	2
  11              		.global	EINT1_routine
  12              		.type	EINT1_routine, %function
  13              	EINT1_routine:
  14              	.LFB2:
  15              		.file 1 "buttons.c"
   1:buttons.c     **** #include "global.h"
   2:buttons.c     **** #include "buttons.h"
   3:buttons.c     **** 
   4:buttons.c     **** #include "lpc2000.h"
   5:buttons.c     **** #include "processor.h"
   6:buttons.c     **** 
   7:buttons.c     **** u08 button1, button2, buttonsEnabled;
   8:buttons.c     **** 
   9:buttons.c     **** typedef void (*voidFuncPtr)(void);
  10:buttons.c     **** volatile static voidFuncPtr ButtonIntrFunc[BUTTON_NUM_INTERRUPTS];
  11:buttons.c     **** 
  12:buttons.c     **** // Interrupt Function Declaration
  13:buttons.c     **** void __attribute__ ((interrupt("IRQ"))) EINT1_routine(void);
  14:buttons.c     **** void __attribute__ ((interrupt("IRQ"))) EINT2_routine(void);
  15:buttons.c     **** 
  16:buttons.c     **** void __attribute__ ((interrupt("IRQ"))) EINT1_routine(void)
  17:buttons.c     **** {
  16              		.loc 1 17 0
  17              		@ Interrupt Service Routine.
  18              		@ args = 0, pretend = 0, frame = 0
  19              		@ frame_needed = 0, uses_anonymous_args = 0
  20              		@ link register save eliminated.
  21 0000 0E002DE9 		stmfd	sp!, {r1, r2, r3}
  22              	.LCFI0:
  23              		@ lr needed for prologue
  18:buttons.c     **** 	VICIntEnClear |= (1<<VIC_EINT1);
  24              		.loc 1 18 0
  25 0004 0F1CE0E3 		mvn	r1, #3840
  26 0008 EB3011E5 		ldr	r3, [r1, #-235]
  27 000c 023983E3 		orr	r3, r3, #32768
  28 0010 EB3001E5 		str	r3, [r1, #-235]
  19:buttons.c     **** 
  20:buttons.c     **** 	button1 = TRUE;
  29              		.loc 1 20 0
  30 0014 0020E0E3 		mvn	r2, #0
  31 0018 2C309FE5 		ldr	r3, .L3
  32 001c 0020C3E5 		strb	r2, [r3, #0]
  21:buttons.c     **** 
ARM GAS  C:\DOCUME~1\TECHCO~1\LOCALS~1\Temp/ccmyaaaa.s 			page 2


  22:buttons.c     **** 	EXTINT=0x02; //Clear EINT1 interrupt flag
  33              		.loc 1 22 0
  34 0020 032082E2 		add	r2, r2, #3
  35 0024 0E32A0E3 		mov	r3, #-536870912
  36 0028 7F3983E2 		add	r3, r3, #2080768
  37 002c 4021C3E5 		strb	r2, [r3, #320]
  23:buttons.c     **** 	VICIntEnable |= (1<<VIC_EINT1);
  38              		.loc 1 23 0
  39 0030 EF3011E5 		ldr	r3, [r1, #-239]
  40 0034 023983E3 		orr	r3, r3, #32768
  41 0038 EF3001E5 		str	r3, [r1, #-239]
  24:buttons.c     **** 	VICVectAddr=0; //Dummy write to signal end of interrupt
  42              		.loc 1 24 0
  43 003c 0030A0E3 		mov	r3, #0
  44 0040 CF3001E5 		str	r3, [r1, #-207]
  25:buttons.c     **** }
  45              		.loc 1 25 0
  46 0044 0E00BDE8 		ldmfd	sp!, {r1, r2, r3}
  47 0048 04F05EE2 		subs	pc, lr, #4
  48              	.L4:
  49              		.align	2
  50              	.L3:
  51 004c 00000000 		.word	button1
  52              	.LFE2:
  53              		.size	EINT1_routine, .-EINT1_routine
  54              		.align	2
  55              		.global	EINT2_routine
  56              		.type	EINT2_routine, %function
  57              	EINT2_routine:
  58              	.LFB3:
  26:buttons.c     **** 
  27:buttons.c     **** void __attribute__ ((interrupt("IRQ"))) EINT2_routine(void)
  28:buttons.c     **** {
  59              		.loc 1 28 0
  60              		@ Interrupt Service Routine.
  61              		@ args = 0, pretend = 0, frame = 0
  62              		@ frame_needed = 0, uses_anonymous_args = 0
  63              		@ link register save eliminated.
  64 0050 0E002DE9 		stmfd	sp!, {r1, r2, r3}
  65              	.LCFI1:
  66              		@ lr needed for prologue
  29:buttons.c     **** 	VICIntEnClear |= (1<<VIC_EINT2);
  67              		.loc 1 29 0
  68 0054 0F1CE0E3 		mvn	r1, #3840
  69 0058 EB3011E5 		ldr	r3, [r1, #-235]
  70 005c 013883E3 		orr	r3, r3, #65536
  71 0060 EB3001E5 		str	r3, [r1, #-235]
  30:buttons.c     **** 
  31:buttons.c     **** 	button2 = TRUE;
  72              		.loc 1 31 0
  73 0064 0020E0E3 		mvn	r2, #0
  74 0068 2C309FE5 		ldr	r3, .L7
  75 006c 0020C3E5 		strb	r2, [r3, #0]
  32:buttons.c     **** 
  33:buttons.c     **** 	EXTINT=0x04; //Clear EINT1 interrupt flag
  76              		.loc 1 33 0
  77 0070 052082E2 		add	r2, r2, #5
ARM GAS  C:\DOCUME~1\TECHCO~1\LOCALS~1\Temp/ccmyaaaa.s 			page 3


  78 0074 0E32A0E3 		mov	r3, #-536870912
  79 0078 7F3983E2 		add	r3, r3, #2080768
  80 007c 4021C3E5 		strb	r2, [r3, #320]
  34:buttons.c     **** 	VICIntEnable |= (1<<VIC_EINT2);
  81              		.loc 1 34 0
  82 0080 EF3011E5 		ldr	r3, [r1, #-239]
  83 0084 013883E3 		orr	r3, r3, #65536
  84 0088 EF3001E5 		str	r3, [r1, #-239]
  35:buttons.c     **** 	VICVectAddr=0; //Dummy write to signal end of interrupt
  85              		.loc 1 35 0
  86 008c 0030A0E3 		mov	r3, #0
  87 0090 CF3001E5 		str	r3, [r1, #-207]
  36:buttons.c     **** }
  88              		.loc 1 36 0
  89 0094 0E00BDE8 		ldmfd	sp!, {r1, r2, r3}
  90 0098 04F05EE2 		subs	pc, lr, #4
  91              	.L8:
  92              		.align	2
  93              	.L7:
  94 009c 00000000 		.word	button2
  95              	.LFE3:
  96              		.size	EINT2_routine, .-EINT2_routine
  97              		.align	2
  98              		.global	enableButtons
  99              		.type	enableButtons, %function
 100              	enableButtons:
 101              	.LFB5:
  37:buttons.c     **** 
  38:buttons.c     **** void initButtons(void)
  39:buttons.c     **** {
  40:buttons.c     **** 	// Button pins
  41:buttons.c     **** 	// P0.3 EINT1
  42:buttons.c     **** 	// P0.7 EINT2
  43:buttons.c     **** 	// catch falling edge
  44:buttons.c     **** 	
  45:buttons.c     **** 	PINSEL0 |= 0x000000C0; // set P0.3 to EINT1
  46:buttons.c     **** 	PINSEL0 |= 0x0000C000; // set P0.7 to EINT2
  47:buttons.c     **** 
  48:buttons.c     **** 	// Catch falling edge on both buttons
  49:buttons.c     **** 	EXTMODE = 0x06;
  50:buttons.c     **** 	EXTINT = 0x06;
  51:buttons.c     **** 	
  52:buttons.c     **** 	// setup EINT1 for IRQ
  53:buttons.c     **** 	// set interrupt as IRQ
  54:buttons.c     **** 	VICIntSelect &= ~(1<<VIC_EINT1 || 1<<VIC_EINT2);
  55:buttons.c     **** 	// assign VIC slot
  56:buttons.c     **** 	VICVectCntl12 = VIC_ENABLE | VIC_EINT1;
  57:buttons.c     **** 	VICVectAddr12 = (u32)EINT1_routine;
  58:buttons.c     **** 	VICVectCntl13 = VIC_ENABLE | VIC_EINT2;
  59:buttons.c     **** 	VICVectAddr13 = (u32)EINT2_routine;
  60:buttons.c     **** 	// enable interrupt
  61:buttons.c     **** 	VICIntEnable |= (1<<VIC_EINT1);
  62:buttons.c     **** 	VICIntEnable |= (1<<VIC_EINT2);
  63:buttons.c     **** 
  64:buttons.c     **** 	button1 = FALSE;
  65:buttons.c     **** 	button2 = FALSE;
  66:buttons.c     **** 	buttonsEnabled = FALSE;
ARM GAS  C:\DOCUME~1\TECHCO~1\LOCALS~1\Temp/ccmyaaaa.s 			page 4


  67:buttons.c     **** 
  68:buttons.c     **** 	buttonDetach(BUTTON1);
  69:buttons.c     **** 	buttonDetach(BUTTON2);
  70:buttons.c     **** }
  71:buttons.c     **** 
  72:buttons.c     **** void enableButtons(void)
  73:buttons.c     **** {
 102              		.loc 1 73 0
 103              		@ args = 0, pretend = 0, frame = 0
 104              		@ frame_needed = 0, uses_anonymous_args = 0
 105              		@ link register save eliminated.
 106              		@ lr needed for prologue
  74:buttons.c     **** 	buttonsEnabled = TRUE;
 107              		.loc 1 74 0
 108 00a0 0020E0E3 		mvn	r2, #0
 109 00a4 04309FE5 		ldr	r3, .L11
 110 00a8 0020C3E5 		strb	r2, [r3, #0]
  75:buttons.c     **** }
 111              		.loc 1 75 0
 112 00ac 1EFF2FE1 		bx	lr
 113              	.L12:
 114              		.align	2
 115              	.L11:
 116 00b0 00000000 		.word	buttonsEnabled
 117              	.LFE5:
 118              		.size	enableButtons, .-enableButtons
 119              		.align	2
 120              		.global	disableButtons
 121              		.type	disableButtons, %function
 122              	disableButtons:
 123              	.LFB6:
  76:buttons.c     **** 
  77:buttons.c     **** void disableButtons(void)
  78:buttons.c     **** {
 124              		.loc 1 78 0
 125              		@ args = 0, pretend = 0, frame = 0
 126              		@ frame_needed = 0, uses_anonymous_args = 0
 127              		@ link register save eliminated.
 128              		@ lr needed for prologue
  79:buttons.c     **** 	buttonsEnabled = FALSE;
 129              		.loc 1 79 0
 130 00b4 0020A0E3 		mov	r2, #0
 131 00b8 04309FE5 		ldr	r3, .L15
 132 00bc 0020C3E5 		strb	r2, [r3, #0]
  80:buttons.c     **** }
 133              		.loc 1 80 0
 134 00c0 1EFF2FE1 		bx	lr
 135              	.L16:
 136              		.align	2
 137              	.L15:
 138 00c4 00000000 		.word	buttonsEnabled
 139              	.LFE6:
 140              		.size	disableButtons, .-disableButtons
 141              		.align	2
 142              		.global	buttonAttach
 143              		.type	buttonAttach, %function
 144              	buttonAttach:
ARM GAS  C:\DOCUME~1\TECHCO~1\LOCALS~1\Temp/ccmyaaaa.s 			page 5


 145              	.LFB7:
  81:buttons.c     **** 
  82:buttons.c     **** void buttonAttach(u08 buttonNum, void (*userFunc)(void) )
  83:buttons.c     **** {
 146              		.loc 1 83 0
 147              		@ args = 0, pretend = 0, frame = 0
 148              		@ frame_needed = 0, uses_anonymous_args = 0
 149              		@ link register save eliminated.
 150              	.LVL0:
 151              		@ lr needed for prologue
 152 00c8 FF0000E2 		and	r0, r0, #255
  84:buttons.c     **** 	// make sure the interrupt number is within bounds
  85:buttons.c     **** 	if(buttonNum < BUTTON_NUM_INTERRUPTS)
 153              		.loc 1 85 0
 154 00cc 010050E3 		cmp	r0, #1
  86:buttons.c     **** 	{
  87:buttons.c     **** 		// set the interrupt function to run
  88:buttons.c     **** 		// the supplied user's function
  89:buttons.c     **** 		ButtonIntrFunc[buttonNum] = userFunc;
 155              		.loc 1 89 0
 156 00d0 0021A091 		movls	r2, r0, asl #2
 157 00d4 04309F95 		ldrls	r3, .L21
 158 00d8 03108297 		strls	r1, [r2, r3]
 159 00dc 1EFF2FE1 		bx	lr
 160              	.L22:
 161              		.align	2
 162              	.L21:
 163 00e0 00000000 		.word	ButtonIntrFunc
 164              	.LFE7:
 165              		.size	buttonAttach, .-buttonAttach
 166              		.align	2
 167              		.global	buttonDetach
 168              		.type	buttonDetach, %function
 169              	buttonDetach:
 170              	.LFB8:
  90:buttons.c     **** 	}
  91:buttons.c     **** }
  92:buttons.c     **** 
  93:buttons.c     **** void buttonDetach(u08 buttonNum)
  94:buttons.c     **** {
 171              		.loc 1 94 0
 172              		@ args = 0, pretend = 0, frame = 0
 173              		@ frame_needed = 0, uses_anonymous_args = 0
 174              		@ link register save eliminated.
 175              	.LVL1:
 176              		@ lr needed for prologue
 177 00e4 FF0000E2 		and	r0, r0, #255
  95:buttons.c     **** 	// make sure the interrupt number is within bounds
  96:buttons.c     **** 	if(buttonNum < BUTTON_NUM_INTERRUPTS)
 178              		.loc 1 96 0
 179 00e8 010050E3 		cmp	r0, #1
  97:buttons.c     **** 	{
  98:buttons.c     **** 		// set the interrupt function to run nothing
  99:buttons.c     **** 		ButtonIntrFunc[buttonNum] = 0;
 180              		.loc 1 99 0
 181 00ec 0011A091 		movls	r1, r0, asl #2
 182 00f0 0020A093 		movls	r2, #0
ARM GAS  C:\DOCUME~1\TECHCO~1\LOCALS~1\Temp/ccmyaaaa.s 			page 6


 183 00f4 04309F95 		ldrls	r3, .L27
 184 00f8 03208197 		strls	r2, [r1, r3]
 185 00fc 1EFF2FE1 		bx	lr
 186              	.L28:
 187              		.align	2
 188              	.L27:
 189 0100 00000000 		.word	ButtonIntrFunc
 190              	.LFE8:
 191              		.size	buttonDetach, .-buttonDetach
 192              		.align	2
 193              		.global	initButtons
 194              		.type	initButtons, %function
 195              	initButtons:
 196              	.LFB4:
 197              		.loc 1 39 0
 198              		@ args = 0, pretend = 0, frame = 0
 199              		@ frame_needed = 0, uses_anonymous_args = 0
 200 0104 04E02DE5 		str	lr, [sp, #-4]!
 201              	.LCFI2:
 202              		.loc 1 45 0
 203 0108 0E12A0E3 		mov	r1, #-536870912
 204 010c 0B2981E2 		add	r2, r1, #180224
 205 0110 003092E5 		ldr	r3, [r2, #0]
 206 0114 C03083E3 		orr	r3, r3, #192
 207 0118 003082E5 		str	r3, [r2, #0]
 208              		.loc 1 46 0
 209 011c 003092E5 		ldr	r3, [r2, #0]
 210 0120 033983E3 		orr	r3, r3, #49152
 211 0124 003082E5 		str	r3, [r2, #0]
 212              		.loc 1 49 0
 213 0128 7F1981E2 		add	r1, r1, #2080768
 214 012c 0630A0E3 		mov	r3, #6
 215 0130 4831C1E5 		strb	r3, [r1, #328]
 216              		.loc 1 50 0
 217 0134 4031C1E5 		strb	r3, [r1, #320]
 218              		.loc 1 54 0
 219 0138 0F2CE0E3 		mvn	r2, #3840
 220 013c F33012E5 		ldr	r3, [r2, #-243]
 221 0140 0130C3E3 		bic	r3, r3, #1
 222 0144 F33002E5 		str	r3, [r2, #-243]
 223              		.loc 1 56 0
 224 0148 2F30A0E3 		mov	r3, #47
 225 014c 313182E5 		str	r3, [r2, #305]
 226              		.loc 1 57 0
 227 0150 54309FE5 		ldr	r3, .L31
 228 0154 313082E5 		str	r3, [r2, #49]
 229              		.loc 1 58 0
 230 0158 3030A0E3 		mov	r3, #48
 231 015c 353182E5 		str	r3, [r2, #309]
 232              		.loc 1 59 0
 233 0160 48309FE5 		ldr	r3, .L31+4
 234 0164 353082E5 		str	r3, [r2, #53]
 235              		.loc 1 61 0
 236 0168 EF3012E5 		ldr	r3, [r2, #-239]
 237 016c 023983E3 		orr	r3, r3, #32768
 238 0170 EF3002E5 		str	r3, [r2, #-239]
 239              		.loc 1 62 0
ARM GAS  C:\DOCUME~1\TECHCO~1\LOCALS~1\Temp/ccmyaaaa.s 			page 7


 240 0174 EF3012E5 		ldr	r3, [r2, #-239]
 241 0178 013883E3 		orr	r3, r3, #65536
 242 017c EF3002E5 		str	r3, [r2, #-239]
 243              		.loc 1 64 0
 244 0180 0000A0E3 		mov	r0, #0
 245 0184 28309FE5 		ldr	r3, .L31+8
 246 0188 0000C3E5 		strb	r0, [r3, #0]
 247              		.loc 1 65 0
 248 018c 24309FE5 		ldr	r3, .L31+12
 249 0190 0000C3E5 		strb	r0, [r3, #0]
 250              		.loc 1 66 0
 251 0194 20309FE5 		ldr	r3, .L31+16
 252 0198 0000C3E5 		strb	r0, [r3, #0]
 253              		.loc 1 68 0
 254 019c FEFFFFEB 		bl	buttonDetach
 255              		.loc 1 69 0
 256 01a0 0100A0E3 		mov	r0, #1
 257 01a4 FEFFFFEB 		bl	buttonDetach
 258              		.loc 1 70 0
 259 01a8 04F09DE4 		ldr	pc, [sp], #4
 260              	.L32:
 261              		.align	2
 262              	.L31:
 263 01ac 00000000 		.word	EINT1_routine
 264 01b0 00000000 		.word	EINT2_routine
 265 01b4 00000000 		.word	button1
 266 01b8 00000000 		.word	button2
 267 01bc 00000000 		.word	buttonsEnabled
 268              	.LFE4:
 269              		.size	initButtons, .-initButtons
 270              		.align	2
 271              		.global	buttonPressService
 272              		.type	buttonPressService, %function
 273              	buttonPressService:
 274              	.LFB9:
 100:buttons.c     **** 	}
 101:buttons.c     **** }
 102:buttons.c     **** 
 103:buttons.c     **** void buttonPressService(void)
 104:buttons.c     **** {
 275              		.loc 1 104 0
 276              		@ args = 0, pretend = 0, frame = 0
 277              		@ frame_needed = 0, uses_anonymous_args = 0
 278 01c0 04E02DE5 		str	lr, [sp, #-4]!
 279              	.LCFI3:
 105:buttons.c     **** 	if(buttonsEnabled)
 280              		.loc 1 105 0
 281 01c4 74309FE5 		ldr	r3, .L44
 282 01c8 0030D3E5 		ldrb	r3, [r3, #0]	@ zero_extendqisi2
 283 01cc 000053E3 		cmp	r3, #0
 284 01d0 04F09D04 		ldreq	pc, [sp], #4
 106:buttons.c     **** 	{
 107:buttons.c     **** 		if(button1)
 285              		.loc 1 107 0
 286 01d4 68309FE5 		ldr	r3, .L44+4
 287 01d8 0030D3E5 		ldrb	r3, [r3, #0]	@ zero_extendqisi2
 288 01dc 000053E3 		cmp	r3, #0
ARM GAS  C:\DOCUME~1\TECHCO~1\LOCALS~1\Temp/ccmyaaaa.s 			page 8


 289 01e0 8000000A 		beq	.L36
 108:buttons.c     **** 		{
 109:buttons.c     **** 			// if a user function is defined, execute it
 110:buttons.c     **** 			if(ButtonIntrFunc[BUTTON1])
 290              		.loc 1 110 0
 291 01e4 5C209FE5 		ldr	r2, .L44+8
 292 01e8 003092E5 		ldr	r3, [r2, #0]
 293 01ec 000053E3 		cmp	r3, #0
 111:buttons.c     **** 				ButtonIntrFunc[BUTTON1]();
 294              		.loc 1 111 0
 295 01f0 00309215 		ldrne	r3, [r2, #0]
 296 01f4 0FE0A011 		movne	lr, pc
 297 01f8 13FF2F11 		bxne	r3
 298              	.L38:
 112:buttons.c     **** 			button1 = FALSE;
 299              		.loc 1 112 0
 300 01fc 0020A0E3 		mov	r2, #0
 301 0200 3C309FE5 		ldr	r3, .L44+4
 302 0204 0020C3E5 		strb	r2, [r3, #0]
 303              	.L36:
 113:buttons.c     **** 		}
 114:buttons.c     **** 		if(button2)
 304              		.loc 1 114 0
 305 0208 3C309FE5 		ldr	r3, .L44+12
 306 020c 0030D3E5 		ldrb	r3, [r3, #0]	@ zero_extendqisi2
 307 0210 000053E3 		cmp	r3, #0
 308 0214 04F09D04 		ldreq	pc, [sp], #4
 115:buttons.c     **** 		{
 116:buttons.c     **** 			// if a user function is defined, execute it
 117:buttons.c     **** 			if(ButtonIntrFunc[BUTTON2])
 309              		.loc 1 117 0
 310 0218 28209FE5 		ldr	r2, .L44+8
 311 021c 043092E5 		ldr	r3, [r2, #4]
 312 0220 000053E3 		cmp	r3, #0
 118:buttons.c     **** 				ButtonIntrFunc[BUTTON2]();
 313              		.loc 1 118 0
 314 0224 04309215 		ldrne	r3, [r2, #4]
 315 0228 0FE0A011 		movne	lr, pc
 316 022c 13FF2F11 		bxne	r3
 317              	.L41:
 119:buttons.c     **** 			button2 = FALSE;
 318              		.loc 1 119 0
 319 0230 0020A0E3 		mov	r2, #0
 320 0234 10309FE5 		ldr	r3, .L44+12
 321 0238 0020C3E5 		strb	r2, [r3, #0]
 322 023c 04F09DE4 		ldr	pc, [sp], #4
 323              	.L45:
 324              		.align	2
 325              	.L44:
 326 0240 00000000 		.word	buttonsEnabled
 327 0244 00000000 		.word	button1
 328 0248 00000000 		.word	ButtonIntrFunc
 329 024c 00000000 		.word	button2
 330              	.LFE9:
 331              		.size	buttonPressService, .-buttonPressService
 332              		.bss
 333              		.align	2
ARM GAS  C:\DOCUME~1\TECHCO~1\LOCALS~1\Temp/ccmyaaaa.s 			page 9


 334              	ButtonIntrFunc:
 335 0000 00000000 		.space	8
 335      00000000 
 336              		.comm	button1,1,1
 337              		.comm	button2,1,1
 338              		.comm	buttonsEnabled,1,1
 339              		.section	.debug_frame,"",%progbits
 340              	.Lframe0:
 341 0000 0C000000 		.4byte	.LECIE0-.LSCIE0
 342              	.LSCIE0:
 343 0004 FFFFFFFF 		.4byte	0xffffffff
 344 0008 01       		.byte	0x1
 345 0009 00       		.ascii	"\000"
 346 000a 01       		.uleb128 0x1
 347 000b 7C       		.sleb128 -4
 348 000c 0E       		.byte	0xe
 349 000d 0C       		.byte	0xc
 350 000e 0D       		.uleb128 0xd
 351 000f 00       		.uleb128 0x0
 352              		.align	2
 353              	.LECIE0:
 354              	.LSFDE0:
 355 0010 18000000 		.4byte	.LEFDE0-.LASFDE0
 356              	.LASFDE0:
 357 0014 00000000 		.4byte	.Lframe0
 358 0018 00000000 		.4byte	.LFB2
 359 001c 50000000 		.4byte	.LFE2-.LFB2
 360 0020 44       		.byte	0x4
 361              		.4byte	.LCFI0-.LFB2
 362 0021 0E       		.byte	0xe
 363 0022 0C       		.uleb128 0xc
 364 0023 83       		.byte	0x83
 365 0024 01       		.uleb128 0x1
 366 0025 82       		.byte	0x82
 367 0026 02       		.uleb128 0x2
 368 0027 81       		.byte	0x81
 369 0028 03       		.uleb128 0x3
 370 0029 000000   		.align	2
 371              	.LEFDE0:
 372              	.LSFDE2:
 373 002c 18000000 		.4byte	.LEFDE2-.LASFDE2
 374              	.LASFDE2:
 375 0030 00000000 		.4byte	.Lframe0
 376 0034 50000000 		.4byte	.LFB3
 377 0038 50000000 		.4byte	.LFE3-.LFB3
 378 003c 44       		.byte	0x4
 379              		.4byte	.LCFI1-.LFB3
 380 003d 0E       		.byte	0xe
 381 003e 0C       		.uleb128 0xc
 382 003f 83       		.byte	0x83
 383 0040 01       		.uleb128 0x1
 384 0041 82       		.byte	0x82
 385 0042 02       		.uleb128 0x2
 386 0043 81       		.byte	0x81
 387 0044 03       		.uleb128 0x3
 388 0045 000000   		.align	2
 389              	.LEFDE2:
ARM GAS  C:\DOCUME~1\TECHCO~1\LOCALS~1\Temp/ccmyaaaa.s 			page 10


 390              	.LSFDE4:
 391 0048 0C000000 		.4byte	.LEFDE4-.LASFDE4
 392              	.LASFDE4:
 393 004c 00000000 		.4byte	.Lframe0
 394 0050 A0000000 		.4byte	.LFB5
 395 0054 14000000 		.4byte	.LFE5-.LFB5
 396              		.align	2
 397              	.LEFDE4:
 398              	.LSFDE6:
 399 0058 0C000000 		.4byte	.LEFDE6-.LASFDE6
 400              	.LASFDE6:
 401 005c 00000000 		.4byte	.Lframe0
 402 0060 B4000000 		.4byte	.LFB6
 403 0064 14000000 		.4byte	.LFE6-.LFB6
 404              		.align	2
 405              	.LEFDE6:
 406              	.LSFDE8:
 407 0068 0C000000 		.4byte	.LEFDE8-.LASFDE8
 408              	.LASFDE8:
 409 006c 00000000 		.4byte	.Lframe0
 410 0070 C8000000 		.4byte	.LFB7
 411 0074 1C000000 		.4byte	.LFE7-.LFB7
 412              		.align	2
 413              	.LEFDE8:
 414              	.LSFDE10:
 415 0078 0C000000 		.4byte	.LEFDE10-.LASFDE10
 416              	.LASFDE10:
 417 007c 00000000 		.4byte	.Lframe0
 418 0080 E4000000 		.4byte	.LFB8
 419 0084 20000000 		.4byte	.LFE8-.LFB8
 420              		.align	2
 421              	.LEFDE10:
 422              	.LSFDE12:
 423 0088 14000000 		.4byte	.LEFDE12-.LASFDE12
 424              	.LASFDE12:
 425 008c 00000000 		.4byte	.Lframe0
 426 0090 04010000 		.4byte	.LFB4
 427 0094 BC000000 		.4byte	.LFE4-.LFB4
 428 0098 44       		.byte	0x4
 429              		.4byte	.LCFI2-.LFB4
 430 0099 0E       		.byte	0xe
 431 009a 04       		.uleb128 0x4
 432 009b 8E       		.byte	0x8e
 433 009c 01       		.uleb128 0x1
 434 009d 000000   		.align	2
 435              	.LEFDE12:
 436              	.LSFDE14:
 437 00a0 14000000 		.4byte	.LEFDE14-.LASFDE14
 438              	.LASFDE14:
 439 00a4 00000000 		.4byte	.Lframe0
 440 00a8 C0010000 		.4byte	.LFB9
 441 00ac 90000000 		.4byte	.LFE9-.LFB9
 442 00b0 44       		.byte	0x4
 443              		.4byte	.LCFI3-.LFB9
 444 00b1 0E       		.byte	0xe
 445 00b2 04       		.uleb128 0x4
 446 00b3 8E       		.byte	0x8e
ARM GAS  C:\DOCUME~1\TECHCO~1\LOCALS~1\Temp/ccmyaaaa.s 			page 11


 447 00b4 01       		.uleb128 0x1
 448 00b5 000000   		.align	2
 449              	.LEFDE14:
 450              		.file 2 "C:\\WinARM\\armlib/armlibtypes.h"
 451              		.text
 452              	.Letext0: