ARM GAS  C:\DOCUME~1\TECHCO~1\LOCALS~1\Temp/ccUFaaaa.s 			page 1


   1              		.file	"molecubePacket.c"
   8 0000 31010000 		.text
   8      02006600 
   8      00000201 
   8      FB0E0A00 
   8      01010101 
   9              	.Ltext0:
  10              		.section	.rodata.str1.4,"aMS",%progbits,1
  11              		.align	2
  12              	.LC0:
  13 0000 506B7452 		.ascii	"PktRX Cmd:\000"
  13      5820436D 
  13      643A00
  14 000b 00       		.text
  15              		.align	2
  16              		.global	cmd_PrintRxPacket
  17              		.type	cmd_PrintRxPacket, %function
  18              	cmd_PrintRxPacket:
  19              	.LFB11:
  20              		.file 1 "molecubePacket.c"
   1:molecubePacket.c **** #include <string.h>
   2:molecubePacket.c **** #include "global.h"
   3:molecubePacket.c **** #include "lpc2000.h"		// include LPC210x defines
   4:molecubePacket.c **** #include "processor.h"		// include processor initialization functions
   5:molecubePacket.c **** #include "buffer.h"
   6:molecubePacket.c **** #include "uartintr.h"
   7:molecubePacket.c **** #include "rprintf.h"
   8:molecubePacket.c **** 
   9:molecubePacket.c **** #include "molecubePacket.h"
  10:molecubePacket.c **** 
  11:molecubePacket.c **** void HD232_Init(void)
  12:molecubePacket.c **** {
  13:molecubePacket.c **** 	uart0Init(UART_BAUD(1000000), UART_8N1, UART_FIFO_8);
  14:molecubePacket.c **** 	uart1Init(UART_BAUD(1000000), UART_8N1, UART_FIFO_8);
  15:molecubePacket.c **** 	
  16:molecubePacket.c **** 	// Configure Enhanced baud rate at 500kbaud External
  17:molecubePacket.c **** 	// Enhanced uses FDR register allowing for lower error
  18:molecubePacket.c **** 	U1LCR = ULCR_DLAB_ENABLE;
  19:molecubePacket.c **** 	U1FDR = 0x41; //0x41 -> 1M
  20:molecubePacket.c **** 	U1DLL = 9; // 3 -> 1M
  21:molecubePacket.c **** 	U1DLM = 0;
  22:molecubePacket.c **** 	U1LCR = UART_8N1;
  23:molecubePacket.c **** 	
  24:molecubePacket.c **** 	// Configure Enhanced baud rate at 500kbaud Internal
  25:molecubePacket.c **** 	// Enhanced uses FDR register allowing for lower error
  26:molecubePacket.c **** 	U0LCR = ULCR_DLAB_ENABLE;
  27:molecubePacket.c **** 	U0FDR = 0x41;
  28:molecubePacket.c **** 	U0DLL = 9;
  29:molecubePacket.c **** 	U0DLM = 0;
  30:molecubePacket.c **** 	U0LCR = UART_8N1;
  31:molecubePacket.c **** 
ARM GAS  C:\DOCUME~1\TECHCO~1\LOCALS~1\Temp/ccUFaaaa.s 			page 2


  32:molecubePacket.c **** 	// uart0 internal serial bus buffer pin config
  33:molecubePacket.c **** 	IO1DIR |= (1<<INT_TXDIRCTL);
  34:molecubePacket.c **** 	IO1CLR |= (1<<INT_TXDIRCTL);
  35:molecubePacket.c **** 	IO1DIR |= (1<<INT_RXDIRCTL);
  36:molecubePacket.c **** 	IO1CLR |= (1<<INT_RXDIRCTL);
  37:molecubePacket.c **** 	
  38:molecubePacket.c **** 	// uart0 internal serial bus buffer pin config
  39:molecubePacket.c **** 	IO1DIR |= (1<<EXT_TXDIRCTL);
  40:molecubePacket.c **** 	IO1CLR |= (1<<EXT_TXDIRCTL);
  41:molecubePacket.c **** 	IO1DIR |= (1<<EXT_RXDIRCTL);
  42:molecubePacket.c **** 	IO1CLR |= (1<<EXT_RXDIRCTL);
  43:molecubePacket.c **** }
  44:molecubePacket.c **** 
  45:molecubePacket.c **** void cmd_Init(void) {
  46:molecubePacket.c **** 	bufferInit(&cmdBuffer, cmdBufferData, MAX_COMMAND_PACKET_SIZE);
  47:molecubePacket.c **** }
  48:molecubePacket.c **** 
  49:molecubePacket.c **** u08 cmd_AddByteToEnd(u08 b) {
  50:molecubePacket.c **** 	return bufferAddToEnd(&cmdBuffer, b);
  51:molecubePacket.c **** }
  52:molecubePacket.c **** 
  53:molecubePacket.c **** void cmd_Flush(void) {
  54:molecubePacket.c **** 	bufferFlush(&cmdBuffer);
  55:molecubePacket.c **** }
  56:molecubePacket.c **** 
  57:molecubePacket.c **** void cmd_Execute(u08 uart) {
  58:molecubePacket.c **** 	int (*uartSendFxn)(int) = NULL;
  59:molecubePacket.c **** 	unsigned char c;
  60:molecubePacket.c **** 	if(uart == INTERNAL_SERIAL)
  61:molecubePacket.c **** 	{
  62:molecubePacket.c **** 		uartSendFxn = &uart0SendByte;
  63:molecubePacket.c **** 		RS232_INT_DISABLE_RX;
  64:molecubePacket.c **** 		RS232_INT_ENABLE_TX;
  65:molecubePacket.c **** 	} else {
  66:molecubePacket.c **** 		uartSendFxn = &uart1SendByte;
  67:molecubePacket.c **** 		RS232_EXT_DISABLE_RX;
  68:molecubePacket.c **** 		RS232_EXT_ENABLE_TX;
  69:molecubePacket.c **** 	}
  70:molecubePacket.c **** 	while((MAX_COMMAND_PACKET_SIZE - bufferIsNotFull(&cmdBuffer)) > 0)
  71:molecubePacket.c **** 	{
  72:molecubePacket.c **** 		c = bufferGetFromFront(&cmdBuffer);
  73:molecubePacket.c **** 		uartSendFxn(c);
  74:molecubePacket.c **** 	}
  75:molecubePacket.c **** 	
  76:molecubePacket.c **** 	if(uart == INTERNAL_SERIAL)
  77:molecubePacket.c **** 	{
  78:molecubePacket.c **** 		while( !(U0LSR & ULSR_TEMT) );
  79:molecubePacket.c **** 		RS232_INT_DISABLE_TX;
  80:molecubePacket.c **** 		RS232_INT_ENABLE_RX;
  81:molecubePacket.c **** 	} else {
  82:molecubePacket.c **** 		while( !(U1LSR & ULSR_TEMT) );
  83:molecubePacket.c **** 		RS232_EXT_DISABLE_TX;
  84:molecubePacket.c **** 		RS232_EXT_ENABLE_RX;
  85:molecubePacket.c **** 	}
  86:molecubePacket.c **** 	cmd_Flush();
  87:molecubePacket.c **** }
  88:molecubePacket.c **** 
ARM GAS  C:\DOCUME~1\TECHCO~1\LOCALS~1\Temp/ccUFaaaa.s 			page 3


  89:molecubePacket.c **** void cmd_BuildPacket(u08 dev_class, u08 id, u08 cmd, u08 p_count, u08 *params)
  90:molecubePacket.c **** {
  91:molecubePacket.c **** 	u08 i, chksum = 0;
  92:molecubePacket.c **** 	cmd_Flush();
  93:molecubePacket.c **** 	cmd_AddByteToEnd(0xFF);
  94:molecubePacket.c **** 	cmd_AddByteToEnd(dev_class);
  95:molecubePacket.c **** 	cmd_AddByteToEnd(id);
  96:molecubePacket.c **** 	cmd_AddByteToEnd(p_count);
  97:molecubePacket.c **** 	cmd_AddByteToEnd(cmd);
  98:molecubePacket.c **** 
  99:molecubePacket.c **** 	chksum += id;
 100:molecubePacket.c **** 	chksum += (p_count);
 101:molecubePacket.c **** 	chksum += (cmd);
 102:molecubePacket.c **** 	/*
 103:molecubePacket.c **** 	rprintfu08(0xff);
 104:molecubePacket.c **** 	rprintfu08(dev_class);
 105:molecubePacket.c **** 	rprintfu08(id);
 106:molecubePacket.c **** 	rprintfu08(p_count);
 107:molecubePacket.c **** 	rprintfu08(cmd);
 108:molecubePacket.c **** 	*/
 109:molecubePacket.c **** 	for(i=0; i<p_count; i++)
 110:molecubePacket.c **** 	{
 111:molecubePacket.c **** 		cmd_AddByteToEnd(params[i]);
 112:molecubePacket.c **** 		chksum+=params[i];
 113:molecubePacket.c **** 		//rprintfu08(params[i]);
 114:molecubePacket.c **** 	}
 115:molecubePacket.c **** 	cmd_AddByteToEnd(chksum);
 116:molecubePacket.c **** 	//rprintfu08(chksum);
 117:molecubePacket.c **** 	//rprintfCRLF();
 118:molecubePacket.c **** 	
 119:molecubePacket.c **** }
 120:molecubePacket.c **** 
 121:molecubePacket.c **** u08 packetRxProcess(u08 serBus, u08 devClass, u08 devAddress, cBuffer* rxBuffer)
 122:molecubePacket.c **** {
 123:molecubePacket.c **** 	u08 foundpacket = FALSE;
 124:molecubePacket.c **** 	u08 startFlag = FALSE;
 125:molecubePacket.c **** 	u08 rxchksum, chksum = 0;
 126:molecubePacket.c **** 	RXPKT *trgPkt;
 127:molecubePacket.c **** 	u16 i;
 128:molecubePacket.c **** 
 129:molecubePacket.c **** 	// process the receive buffer
 130:molecubePacket.c **** 	// go through buffer looking for packets
 131:molecubePacket.c **** 	while((rxBuffer->datalength) > 1)
 132:molecubePacket.c **** 	{
 133:molecubePacket.c **** 
 134:molecubePacket.c **** 		// look for a start of NMEA packet
 135:molecubePacket.c **** 		if((bufferGetAtIndex(rxBuffer,0) == 0xFF) &&
 136:molecubePacket.c **** 			((bufferGetAtIndex(rxBuffer,1) == devClass)	||	
 137:molecubePacket.c **** 			(bufferGetAtIndex(rxBuffer,1) == BROADCAST_CLASS)))
 138:molecubePacket.c **** 			// comparing two consecutive bits helps avoid nasty bugs 
 139:molecubePacket.c **** 			// when FF is a part of a packet addressed to a different
 140:molecubePacket.c **** 			// microprocessor. MAKE SURE there are no sequences that include
 141:molecubePacket.c **** 			// 2 bytes FF, FA..FF, this will result in bad glitches.
 142:molecubePacket.c **** 			// Can't get on-the fly frequency switching to work reliably.
 143:molecubePacket.c **** 		{
 144:molecubePacket.c **** 
 145:molecubePacket.c **** 			// found start
ARM GAS  C:\DOCUME~1\TECHCO~1\LOCALS~1\Temp/ccUFaaaa.s 			page 4


 146:molecubePacket.c **** 			startFlag = TRUE;
 147:molecubePacket.c **** 			// when start is found, we leave it intact in the receive buffer
 148:molecubePacket.c **** 			// in case the full NMEA string is not completely received.  The
 149:molecubePacket.c **** 			// start will be detected in the next nmeaProcess iteration.
 150:molecubePacket.c **** 
 151:molecubePacket.c **** 			// done looking for start
 152:molecubePacket.c **** 			break;
 153:molecubePacket.c **** 		}
 154:molecubePacket.c **** 		else
 155:molecubePacket.c **** 			bufferGetFromFront(rxBuffer);
 156:molecubePacket.c **** 	}
 157:molecubePacket.c **** 	
 158:molecubePacket.c **** 	// if we detected a start, look for end of packet
 159:molecubePacket.c **** 	if(startFlag)
 160:molecubePacket.c **** 	{
 161:molecubePacket.c **** 		if(rxBuffer->datalength >= 4) // enough of packet has been read to determine length
 162:molecubePacket.c **** 		{
 163:molecubePacket.c **** 			u08 p_count = 0;
 164:molecubePacket.c **** 			if (devClass == 0xFF)	p_count = bufferGetAtIndex(rxBuffer,3) - 2;
 165:molecubePacket.c **** 			else					p_count = bufferGetAtIndex(rxBuffer,3);
 166:molecubePacket.c **** 
 167:molecubePacket.c **** 			u08 max_rx_buffer_size;
 168:molecubePacket.c **** 			if(serBus == EXTERNAL_SERIAL)
 169:molecubePacket.c **** 				max_rx_buffer_size = UART1_RX_BUFFER_SIZE;
 170:molecubePacket.c **** 			else 
 171:molecubePacket.c **** 				max_rx_buffer_size = UART0_RX_BUFFER_SIZE;
 172:molecubePacket.c **** 
 173:molecubePacket.c **** 			if(p_count + 6 > max_rx_buffer_size)
 174:molecubePacket.c **** 				bufferFlush(rxBuffer);
 175:molecubePacket.c **** 			else if(rxBuffer->datalength >= p_count + 6) 
 176:molecubePacket.c **** 				// entire packet has been rxed
 177:molecubePacket.c **** 			{
 178:molecubePacket.c **** 
 179:molecubePacket.c **** 				// Class and Address match
 180:molecubePacket.c **** 				if((bufferGetAtIndex(rxBuffer,1) == devClass) && 
 181:molecubePacket.c **** 					((bufferGetAtIndex(rxBuffer,2) == devAddress) || (bufferGetAtIndex(rxBuffer,2) == BROADCAST_CL
 182:molecubePacket.c **** 	     		{
 183:molecubePacket.c **** 
 184:molecubePacket.c **** 					// grab checksum
 185:molecubePacket.c **** 
 186:molecubePacket.c **** 					rxchksum = bufferGetAtIndex(rxBuffer,p_count  + 5);
 187:molecubePacket.c **** 					chksum = 0;
 188:molecubePacket.c **** 					// calc checksum
 189:molecubePacket.c **** 					chksum += bufferGetAtIndex(rxBuffer,2); // id
 190:molecubePacket.c **** 					chksum += bufferGetAtIndex(rxBuffer,3); // p_count
 191:molecubePacket.c **** 					chksum += bufferGetAtIndex(rxBuffer,4); // cmd
 192:molecubePacket.c **** 					for(i=0; i<p_count; i++)
 193:molecubePacket.c **** 					{
 194:molecubePacket.c **** 						chksum += bufferGetAtIndex(rxBuffer,5+i); // params
 195:molecubePacket.c **** 					}
 196:molecubePacket.c **** 
 197:molecubePacket.c **** 					// this is specifically for communicating with the AX12 (not performed by controller)
 198:molecubePacket.c **** 					if (devClass == 0xFF)	chksum = ~chksum;
 199:molecubePacket.c **** 
 200:molecubePacket.c **** 					if(rxchksum == chksum)
 201:molecubePacket.c **** 					{
 202:molecubePacket.c **** 
ARM GAS  C:\DOCUME~1\TECHCO~1\LOCALS~1\Temp/ccUFaaaa.s 			page 5


 203:molecubePacket.c **** 						// command successfully received!
 204:molecubePacket.c **** 						if(serBus == INTERNAL_SERIAL)
 205:molecubePacket.c **** 						{
 206:molecubePacket.c **** 							trgPkt = &int_busRxPkt;
 207:molecubePacket.c **** 						} else {
 208:molecubePacket.c **** 							trgPkt = &ext_busRxPkt;
 209:molecubePacket.c **** 						}
 210:molecubePacket.c **** 						
 211:molecubePacket.c **** 						trgPkt->devclass = bufferGetAtIndex(rxBuffer,1);
 212:molecubePacket.c **** 						trgPkt->id = bufferGetAtIndex(rxBuffer,2);
 213:molecubePacket.c **** 						trgPkt->cmd = bufferGetAtIndex(rxBuffer,4);
 214:molecubePacket.c **** 						trgPkt->paramCnt = p_count;
 215:molecubePacket.c **** 						for(i=0; i<p_count; i++)
 216:molecubePacket.c **** 						{
 217:molecubePacket.c **** 							trgPkt->params[i] = bufferGetAtIndex(rxBuffer,5+i);
 218:molecubePacket.c **** 						}
 219:molecubePacket.c **** 						foundpacket = TRUE;
 220:molecubePacket.c **** 						bufferFlush(rxBuffer);
 221:molecubePacket.c **** 					} else
 222:molecubePacket.c **** 						bufferGetFromFront(rxBuffer);
 223:molecubePacket.c **** 				} else
 224:molecubePacket.c **** 					bufferGetFromFront(rxBuffer);
 225:molecubePacket.c **** 			}
 226:molecubePacket.c **** 		}
 227:molecubePacket.c **** 	}
 228:molecubePacket.c **** 	else if(rxBuffer->datalength >= rxBuffer->size-1)
 229:molecubePacket.c **** 	{
 230:molecubePacket.c **** 		// if we found no packet, and the buffer is full
 231:molecubePacket.c **** 		// we're logjammed, flush entire buffer
 232:molecubePacket.c **** 		bufferFlush(rxBuffer);
 233:molecubePacket.c **** 	}
 234:molecubePacket.c **** 
 235:molecubePacket.c **** 	return foundpacket;
 236:molecubePacket.c **** }
 237:molecubePacket.c **** 
 238:molecubePacket.c **** u08 packetRxProcess_NoAddrClassCheck(u08 serBus, cBuffer* rxBuffer)
 239:molecubePacket.c **** {
 240:molecubePacket.c **** 	u08 foundpacket = FALSE;
 241:molecubePacket.c **** 	u08 startFlag = FALSE;
 242:molecubePacket.c **** 	u08 rxchksum, chksum = 0;
 243:molecubePacket.c **** 	RXPKT *trgPkt;
 244:molecubePacket.c **** 	u16 i;
 245:molecubePacket.c **** 
 246:molecubePacket.c **** 	// process the receive buffer
 247:molecubePacket.c **** 	// go through buffer looking for packets
 248:molecubePacket.c **** 	while((rxBuffer->datalength) > 1)
 249:molecubePacket.c **** 	{
 250:molecubePacket.c **** 
 251:molecubePacket.c **** 		// look for a start of NMEA packet
 252:molecubePacket.c **** 		if((bufferGetAtIndex(rxBuffer,0) == 0xFF) &&
 253:molecubePacket.c **** 			(bufferGetAtIndex(rxBuffer,1) > 0xF5))
 254:molecubePacket.c **** 			// comparing two consecutive bits helps avoid nasty bugs 
 255:molecubePacket.c **** 			// when FF is a part of a packet addressed to a different
 256:molecubePacket.c **** 			// microprocessor. MAKE SURE there are no sequences that include
 257:molecubePacket.c **** 			// 2 bytes FF, FA..FF, this will result in bad glitches.
 258:molecubePacket.c **** 			// Can't get on-the fly frequency switching to work reliably.
 259:molecubePacket.c **** 		{
ARM GAS  C:\DOCUME~1\TECHCO~1\LOCALS~1\Temp/ccUFaaaa.s 			page 6


 260:molecubePacket.c **** 
 261:molecubePacket.c **** 			// found start
 262:molecubePacket.c **** 			startFlag = TRUE;
 263:molecubePacket.c **** 			// when start is found, we leave it intact in the receive buffer
 264:molecubePacket.c **** 			// in case the full NMEA string is not completely received.  The
 265:molecubePacket.c **** 			// start will be detected in the next nmeaProcess iteration.
 266:molecubePacket.c **** 
 267:molecubePacket.c **** 			// done looking for start
 268:molecubePacket.c **** 			break;
 269:molecubePacket.c **** 		}
 270:molecubePacket.c **** 		else
 271:molecubePacket.c **** 			bufferGetFromFront(rxBuffer);
 272:molecubePacket.c **** 	}
 273:molecubePacket.c **** 	
 274:molecubePacket.c **** 	// if we detected a start, look for end of packet
 275:molecubePacket.c **** 	if(startFlag)
 276:molecubePacket.c **** 	{
 277:molecubePacket.c **** 		if(rxBuffer->datalength >= 4) // enough of packet has been read to determine length
 278:molecubePacket.c **** 		{
 279:molecubePacket.c **** 			u08 p_count = 0;
 280:molecubePacket.c **** 			
 281:molecubePacket.c **** 			p_count = bufferGetAtIndex(rxBuffer,3); // assumed not to be 0xFF
 282:molecubePacket.c **** 
 283:molecubePacket.c **** 			u08 max_rx_buffer_size;
 284:molecubePacket.c **** 			if(serBus == EXTERNAL_SERIAL)
 285:molecubePacket.c **** 				max_rx_buffer_size = UART1_RX_BUFFER_SIZE;
 286:molecubePacket.c **** 			else 
 287:molecubePacket.c **** 				max_rx_buffer_size = UART0_RX_BUFFER_SIZE;
 288:molecubePacket.c **** 
 289:molecubePacket.c **** 			if(p_count + 6 > max_rx_buffer_size)
 290:molecubePacket.c **** 				bufferFlush(rxBuffer);
 291:molecubePacket.c **** 			else if(rxBuffer->datalength >= p_count + 6) 
 292:molecubePacket.c **** 				// entire packet has been rxed
 293:molecubePacket.c **** 			{
 294:molecubePacket.c **** 
 295:molecubePacket.c **** 				// grab checksum
 296:molecubePacket.c **** 
 297:molecubePacket.c **** 				rxchksum = bufferGetAtIndex(rxBuffer,p_count  + 5);
 298:molecubePacket.c **** 				chksum = 0;
 299:molecubePacket.c **** 				// calc checksum
 300:molecubePacket.c **** 				chksum += bufferGetAtIndex(rxBuffer,2); // id
 301:molecubePacket.c **** 				chksum += bufferGetAtIndex(rxBuffer,3); // p_count
 302:molecubePacket.c **** 				chksum += bufferGetAtIndex(rxBuffer,4); // cmd
 303:molecubePacket.c **** 				for(i=0; i<p_count; i++)
 304:molecubePacket.c **** 				{
 305:molecubePacket.c **** 					chksum += bufferGetAtIndex(rxBuffer,5+i); // params
 306:molecubePacket.c **** 				}
 307:molecubePacket.c **** 
 308:molecubePacket.c **** 				if(rxchksum == chksum)
 309:molecubePacket.c **** 				{
 310:molecubePacket.c **** 					// command successfully received!
 311:molecubePacket.c **** 					if(serBus == INTERNAL_SERIAL)
 312:molecubePacket.c **** 					{
 313:molecubePacket.c **** 						trgPkt = &int_busRxPkt;
 314:molecubePacket.c **** 					} else {
 315:molecubePacket.c **** 						trgPkt = &ext_busRxPkt;
 316:molecubePacket.c **** 					}
ARM GAS  C:\DOCUME~1\TECHCO~1\LOCALS~1\Temp/ccUFaaaa.s 			page 7


 317:molecubePacket.c **** 					
 318:molecubePacket.c **** 					trgPkt->devclass = bufferGetAtIndex(rxBuffer,1);
 319:molecubePacket.c **** 					trgPkt->id = bufferGetAtIndex(rxBuffer,2);
 320:molecubePacket.c **** 					trgPkt->cmd = bufferGetAtIndex(rxBuffer,4);
 321:molecubePacket.c **** 					trgPkt->paramCnt = p_count;
 322:molecubePacket.c **** 					for(i=0; i<p_count; i++)
 323:molecubePacket.c **** 					{
 324:molecubePacket.c **** 						trgPkt->params[i] = bufferGetAtIndex(rxBuffer,5+i);
 325:molecubePacket.c **** 					}
 326:molecubePacket.c **** 					foundpacket = TRUE;
 327:molecubePacket.c **** 					bufferFlush(rxBuffer);
 328:molecubePacket.c **** 				} else
 329:molecubePacket.c **** 					bufferGetFromFront(rxBuffer);
 330:molecubePacket.c **** 			}
 331:molecubePacket.c **** 		}
 332:molecubePacket.c **** 	}
 333:molecubePacket.c **** 	else if(rxBuffer->datalength >= rxBuffer->size-1)
 334:molecubePacket.c **** 	{
 335:molecubePacket.c **** 		// if we found no packet, and the buffer is full
 336:molecubePacket.c **** 		// we're logjammed, flush entire buffer
 337:molecubePacket.c **** 		bufferFlush(rxBuffer);
 338:molecubePacket.c **** 	}
 339:molecubePacket.c **** 
 340:molecubePacket.c **** 	return foundpacket;
 341:molecubePacket.c **** }
 342:molecubePacket.c **** 
 343:molecubePacket.c **** void cmd_PrintPacket(void)
 344:molecubePacket.c **** {
 345:molecubePacket.c **** 	u08 i;
 346:molecubePacket.c **** 	u08 len = (MAX_COMMAND_PACKET_SIZE - bufferIsNotFull(&cmdBuffer));
 347:molecubePacket.c **** 	
 348:molecubePacket.c **** 	for(i=0; i<len; i++)
 349:molecubePacket.c **** 	{
 350:molecubePacket.c **** 		rprintfu08(bufferGetAtIndex(&cmdBuffer, i));
 351:molecubePacket.c **** 	}
 352:molecubePacket.c **** }
 353:molecubePacket.c **** 
 354:molecubePacket.c **** void cmd_PrintRxPacket(RXPKT *pkt)
 355:molecubePacket.c **** {
  21              		.loc 1 355 0
  22              		@ args = 0, pretend = 0, frame = 0
  23              		@ frame_needed = 0, uses_anonymous_args = 0
  24              	.LVL0:
  25 0000 30402DE9 		stmfd	sp!, {r4, r5, lr}
  26              	.LCFI0:
  27 0004 0050A0E1 		mov	r5, r0
 356:molecubePacket.c **** 	u08 i;
 357:molecubePacket.c **** 	rprintf("PktRX Cmd:");
  28              		.loc 1 357 0
  29 0008 0000A0E3 		mov	r0, #0
  30              	.LVL1:
  31 000c 44109FE5 		ldr	r1, .L7
  32 0010 FEFFFFEB 		bl	rprintf1RamRom
 358:molecubePacket.c **** 	rprintfu08(pkt->cmd);
  33              		.loc 1 358 0
  34 0014 0200D5E5 		ldrb	r0, [r5, #2]	@ zero_extendqisi2
  35 0018 FEFFFFEB 		bl	rprintfu08
ARM GAS  C:\DOCUME~1\TECHCO~1\LOCALS~1\Temp/ccUFaaaa.s 			page 8


 359:molecubePacket.c **** 	rprintfCRLF();
  36              		.loc 1 359 0
  37 001c FEFFFFEB 		bl	rprintfCRLF
 360:molecubePacket.c **** 
 361:molecubePacket.c **** 	for(i=0; i<pkt->paramCnt; i++)
  38              		.loc 1 361 0
  39 0020 8330D5E5 		ldrb	r3, [r5, #131]	@ zero_extendqisi2
  40 0024 000053E3 		cmp	r3, #0
  41 0028 1200000A 		beq	.L2
  42 002c 0040A0E3 		mov	r4, #0
  43              	.LVL2:
  44              	.L4:
 362:molecubePacket.c **** 	{
 363:molecubePacket.c **** 		rprintfu08(pkt->params[i]);
  45              		.loc 1 363 0
  46 0030 043085E0 		add	r3, r5, r4
  47 0034 0300D3E5 		ldrb	r0, [r3, #3]	@ zero_extendqisi2
  48 0038 FEFFFFEB 		bl	rprintfu08
  49              		.loc 1 361 0
  50 003c 013084E2 		add	r3, r4, #1
  51 0040 FF4003E2 		and	r4, r3, #255
  52 0044 8330D5E5 		ldrb	r3, [r5, #131]	@ zero_extendqisi2
  53 0048 040053E1 		cmp	r3, r4
  54 004c 0A00008A 		bhi	.L4
  55              	.L2:
 364:molecubePacket.c **** 	}
 365:molecubePacket.c **** 	rprintfCRLF();
  56              		.loc 1 365 0
  57 0050 FEFFFFEB 		bl	rprintfCRLF
 366:molecubePacket.c **** }
  58              		.loc 1 366 0
  59 0054 3080BDE8 		ldmfd	sp!, {r4, r5, pc}
  60              	.L8:
  61              		.align	2
  62              	.L7:
  63 0058 00000000 		.word	.LC0
  64              	.LFE11:
  65              		.size	cmd_PrintRxPacket, .-cmd_PrintRxPacket
  66              		.align	2
  67              		.global	cmd_PrintPacket
  68              		.type	cmd_PrintPacket, %function
  69              	cmd_PrintPacket:
  70              	.LFB10:
  71              		.loc 1 344 0
  72              		@ args = 0, pretend = 0, frame = 0
  73              		@ frame_needed = 0, uses_anonymous_args = 0
  74 005c 30402DE9 		stmfd	sp!, {r4, r5, lr}
  75              	.LCFI1:
  76              		.loc 1 346 0
  77 0060 40009FE5 		ldr	r0, .L15
  78 0064 FEFFFFEB 		bl	bufferIsNotFull
  79 0068 FF0460E2 		rsb	r0, r0, #-16777216
  80 006c FF0880E2 		add	r0, r0, #16711680
  81 0070 FF0C80E2 		add	r0, r0, #65280
  82 0074 800080E2 		add	r0, r0, #128
  83              		.loc 1 348 0
  84 0078 FF5010E2 		ands	r5, r0, #255
ARM GAS  C:\DOCUME~1\TECHCO~1\LOCALS~1\Temp/ccUFaaaa.s 			page 9


  85              	.LVL3:
  86 007c 3080BD08 		ldmeqfd	sp!, {r4, r5, pc}
  87 0080 0040A0E3 		mov	r4, #0
  88              	.LVL4:
  89              	.L12:
  90              		.loc 1 350 0
  91 0084 1C009FE5 		ldr	r0, .L15
  92 0088 0410A0E1 		mov	r1, r4
  93 008c FEFFFFEB 		bl	bufferGetAtIndex
  94 0090 FEFFFFEB 		bl	rprintfu08
  95              		.loc 1 348 0
  96 0094 013084E2 		add	r3, r4, #1
  97 0098 FF4003E2 		and	r4, r3, #255
  98 009c 040055E1 		cmp	r5, r4
  99 00a0 1F00001A 		bne	.L12
 100 00a4 3080BDE8 		ldmfd	sp!, {r4, r5, pc}
 101              	.L16:
 102              		.align	2
 103              	.L15:
 104 00a8 00000000 		.word	cmdBuffer
 105              	.LFE10:
 106              		.size	cmd_PrintPacket, .-cmd_PrintPacket
 107              		.align	2
 108              		.global	packetRxProcess_NoAddrClassCheck
 109              		.type	packetRxProcess_NoAddrClassCheck, %function
 110              	packetRxProcess_NoAddrClassCheck:
 111              	.LFB9:
 112              		.loc 1 239 0
 113              		@ args = 0, pretend = 0, frame = 0
 114              		@ frame_needed = 0, uses_anonymous_args = 0
 115              	.LVL5:
 116 00ac F04F2DE9 		stmfd	sp!, {r4, r5, r6, r7, r8, r9, sl, fp, lr}
 117              	.LCFI2:
 118 00b0 0150A0E1 		mov	r5, r1
 119 00b4 FF7000E2 		and	r7, r0, #255
 120              		.loc 1 248 0
 121 00b8 B630D1E1 		ldrh	r3, [r1, #6]
 122 00bc 010053E3 		cmp	r3, #1
 123 00c0 A700009A 		bls	.L18
 124              	.LVL6:
 125              	.L42:
 126              		.loc 1 252 0
 127 00c4 0500A0E1 		mov	r0, r5
 128 00c8 0010A0E3 		mov	r1, #0
 129 00cc FEFFFFEB 		bl	bufferGetAtIndex
 130 00d0 FF0050E3 		cmp	r0, #255
 131 00d4 3900001A 		bne	.L20
 132 00d8 0500A0E1 		mov	r0, r5
 133 00dc 0110A0E3 		mov	r1, #1
 134 00e0 FEFFFFEB 		bl	bufferGetAtIndex
 135 00e4 F50050E3 		cmp	r0, #245
 136 00e8 3F00008A 		bhi	.L22
 137              	.L20:
 138              		.loc 1 271 0
 139 00ec 0500A0E1 		mov	r0, r5
 140 00f0 FEFFFFEB 		bl	bufferGetFromFront
 141              		.loc 1 248 0
ARM GAS  C:\DOCUME~1\TECHCO~1\LOCALS~1\Temp/ccUFaaaa.s 			page 10


 142 00f4 B630D5E1 		ldrh	r3, [r5, #6]
 143 00f8 010053E3 		cmp	r3, #1
 144 00fc A700009A 		bls	.L18
 145 0100 2F0000EA 		b	.L42
 146              	.L22:
 147              		.loc 1 277 0
 148 0104 B630D5E1 		ldrh	r3, [r5, #6]
 149 0108 030053E3 		cmp	r3, #3
 150 010c A500009A 		bls	.L23
 151              	.LBB2:
 152              		.loc 1 281 0
 153 0110 0500A0E1 		mov	r0, r5
 154 0114 0310A0E3 		mov	r1, #3
 155 0118 FEFFFFEB 		bl	bufferGetAtIndex
 156 011c 00A0A0E1 		mov	sl, r0
 157              	.LVL7:
 158              		.loc 1 289 0
 159 0120 062080E2 		add	r2, r0, #6
 160 0124 800052E3 		cmp	r2, #128
 161 0128 4D0000DA 		ble	.L25
 162              	.LVL8:
 163              		.loc 1 290 0
 164 012c 0500A0E1 		mov	r0, r5
 165              	.LVL9:
 166 0130 FEFFFFEB 		bl	bufferFlush
 167 0134 0000A0E3 		mov	r0, #0
 168              	.LVL10:
 169 0138 F08FBDE8 		ldmfd	sp!, {r4, r5, r6, r7, r8, r9, sl, fp, pc}
 170              	.LVL11:
 171              	.L25:
 172              		.loc 1 291 0
 173 013c B630D5E1 		ldrh	r3, [r5, #6]
 174 0140 030052E1 		cmp	r2, r3
 175 0144 A50000CA 		bgt	.L23
 176              		.loc 1 297 0
 177 0148 0090A0E1 		mov	r9, r0
 178              	.LVL12:
 179 014c 053080E2 		add	r3, r0, #5
 180 0150 0338A0E1 		mov	r3, r3, asl #16
 181 0154 2388A0E1 		mov	r8, r3, lsr #16
 182 0158 0500A0E1 		mov	r0, r5
 183 015c 0810A0E1 		mov	r1, r8
 184 0160 FEFFFFEB 		bl	bufferGetAtIndex
 185 0164 00B0A0E1 		mov	fp, r0
 186              	.LVL13:
 187              		.loc 1 300 0
 188 0168 0500A0E1 		mov	r0, r5
 189 016c 0210A0E3 		mov	r1, #2
 190 0170 FEFFFFEB 		bl	bufferGetAtIndex
 191 0174 0040A0E1 		mov	r4, r0
 192              		.loc 1 301 0
 193 0178 0500A0E1 		mov	r0, r5
 194 017c 0310A0E3 		mov	r1, #3
 195 0180 FEFFFFEB 		bl	bufferGetAtIndex
 196 0184 004084E0 		add	r4, r4, r0
 197 0188 FF4004E2 		and	r4, r4, #255
 198              	.LVL14:
ARM GAS  C:\DOCUME~1\TECHCO~1\LOCALS~1\Temp/ccUFaaaa.s 			page 11


 199              		.loc 1 302 0
 200 018c 0500A0E1 		mov	r0, r5
 201 0190 0410A0E3 		mov	r1, #4
 202 0194 FEFFFFEB 		bl	bufferGetAtIndex
 203 0198 004084E0 		add	r4, r4, r0
 204              	.LVL15:
 205 019c FF6004E2 		and	r6, r4, #255
 206              	.LVL16:
 207              	.LVL17:
 208              		.loc 1 303 0
 209 01a0 00005AE3 		cmp	sl, #0
 210 01a4 7300000A 		beq	.L29
 211 01a8 0540A0E3 		mov	r4, #5
 212              	.L31:
 213              		.loc 1 305 0
 214 01ac 0500A0E1 		mov	r0, r5
 215 01b0 0410A0E1 		mov	r1, r4
 216 01b4 FEFFFFEB 		bl	bufferGetAtIndex
 217 01b8 000086E0 		add	r0, r6, r0
 218 01bc FF6000E2 		and	r6, r0, #255
 219 01c0 013084E2 		add	r3, r4, #1
 220 01c4 0338A0E1 		mov	r3, r3, asl #16
 221 01c8 2348A0E1 		mov	r4, r3, lsr #16
 222              		.loc 1 303 0
 223 01cc 040058E1 		cmp	r8, r4
 224 01d0 6900001A 		bne	.L31
 225              	.L29:
 226              		.loc 1 308 0
 227 01d4 06005BE1 		cmp	fp, r6
 228 01d8 9D00001A 		bne	.L32
 229              		.loc 1 311 0
 230 01dc D8209FE5 		ldr	r2, .L46
 231 01e0 D8309FE5 		ldr	r3, .L46+4
 232 01e4 000057E3 		cmp	r7, #0
 233 01e8 0370A011 		movne	r7, r3
 234              	.LVL18:
 235 01ec 0270A001 		moveq	r7, r2
 236              		.loc 1 318 0
 237 01f0 0500A0E1 		mov	r0, r5
 238 01f4 0110A0E3 		mov	r1, #1
 239 01f8 FEFFFFEB 		bl	bufferGetAtIndex
 240 01fc 0100C7E5 		strb	r0, [r7, #1]
 241              		.loc 1 319 0
 242 0200 0500A0E1 		mov	r0, r5
 243 0204 0210A0E3 		mov	r1, #2
 244 0208 FEFFFFEB 		bl	bufferGetAtIndex
 245 020c 0000C7E5 		strb	r0, [r7, #0]
 246              		.loc 1 320 0
 247 0210 0500A0E1 		mov	r0, r5
 248 0214 0410A0E3 		mov	r1, #4
 249 0218 FEFFFFEB 		bl	bufferGetAtIndex
 250 021c 0200C7E5 		strb	r0, [r7, #2]
 251              	.LVL19:
 252              		.loc 1 321 0
 253 0220 83A0C7E5 		strb	sl, [r7, #131]
 254              		.loc 1 322 0
 255 0224 00005AE3 		cmp	sl, #0
ARM GAS  C:\DOCUME~1\TECHCO~1\LOCALS~1\Temp/ccUFaaaa.s 			page 12


 256 0228 9900000A 		beq	.L37
 257 022c 0060A0E3 		mov	r6, #0
 258              	.LVL20:
 259 0230 013049E2 		sub	r3, r9, #1
 260 0234 0338A0E1 		mov	r3, r3, asl #16
 261 0238 2338A0E1 		mov	r3, r3, lsr #16
 262 023c 018083E2 		add	r8, r3, #1
 263              	.L39:
 264 0240 0618A0E1 		mov	r1, r6, asl #16
 265              		.loc 1 324 0
 266 0244 2148A0E1 		mov	r4, r1, lsr #16
 267              	.LVL21:
 268 0248 051881E2 		add	r1, r1, #327680
 269 024c 0500A0E1 		mov	r0, r5
 270 0250 2118A0E1 		mov	r1, r1, lsr #16
 271 0254 FEFFFFEB 		bl	bufferGetAtIndex
 272 0258 044087E0 		add	r4, r7, r4
 273              	.LVL22:
 274 025c 0300C4E5 		strb	r0, [r4, #3]
 275 0260 016086E2 		add	r6, r6, #1
 276              		.loc 1 322 0
 277 0264 060058E1 		cmp	r8, r6
 278 0268 8E00001A 		bne	.L39
 279              	.LVL23:
 280              	.L37:
 281              		.loc 1 327 0
 282 026c 0500A0E1 		mov	r0, r5
 283 0270 FEFFFFEB 		bl	bufferFlush
 284 0274 FF00A0E3 		mov	r0, #255
 285              	.LVL24:
 286 0278 F08FBDE8 		ldmfd	sp!, {r4, r5, r6, r7, r8, r9, sl, fp, pc}
 287              	.LVL25:
 288              	.L32:
 289              		.loc 1 329 0
 290 027c 0500A0E1 		mov	r0, r5
 291 0280 FEFFFFEB 		bl	bufferGetFromFront
 292 0284 0000A0E3 		mov	r0, #0
 293              	.LVL26:
 294 0288 F08FBDE8 		ldmfd	sp!, {r4, r5, r6, r7, r8, r9, sl, fp, pc}
 295              	.LVL27:
 296              	.L40:
 297              	.LBE2:
 298              		.loc 1 337 0
 299 028c 0500A0E1 		mov	r0, r5
 300 0290 FEFFFFEB 		bl	bufferFlush
 301 0294 0000A0E3 		mov	r0, #0
 302              	.LVL28:
 303 0298 F08FBDE8 		ldmfd	sp!, {r4, r5, r6, r7, r8, r9, sl, fp, pc}
 304              	.LVL29:
 305              	.L23:
 306 029c 0000A0E3 		mov	r0, #0
 307              	.LVL30:
 308 02a0 F08FBDE8 		ldmfd	sp!, {r4, r5, r6, r7, r8, r9, sl, fp, pc}
 309              	.LVL31:
 310              	.L18:
 311              		.loc 1 333 0
 312 02a4 B620D5E1 		ldrh	r2, [r5, #6]
ARM GAS  C:\DOCUME~1\TECHCO~1\LOCALS~1\Temp/ccUFaaaa.s 			page 13


 313 02a8 B430D5E1 		ldrh	r3, [r5, #4]
 314 02ac 013043E2 		sub	r3, r3, #1
 315 02b0 030052E1 		cmp	r2, r3
 316 02b4 A50000BA 		blt	.L23
 317 02b8 A10000EA 		b	.L40
 318              	.L47:
 319              		.align	2
 320              	.L46:
 321 02bc 00000000 		.word	int_busRxPkt
 322 02c0 00000000 		.word	ext_busRxPkt
 323              	.LFE9:
 324              		.size	packetRxProcess_NoAddrClassCheck, .-packetRxProcess_NoAddrClassCheck
 325              		.align	2
 326              		.global	packetRxProcess
 327              		.type	packetRxProcess, %function
 328              	packetRxProcess:
 329              	.LFB8:
 330              		.loc 1 122 0
 331              		@ args = 0, pretend = 0, frame = 4
 332              		@ frame_needed = 0, uses_anonymous_args = 0
 333              	.LVL32:
 334 02c4 F04F2DE9 		stmfd	sp!, {r4, r5, r6, r7, r8, r9, sl, fp, lr}
 335              	.LCFI3:
 336 02c8 04D04DE2 		sub	sp, sp, #4
 337              	.LCFI4:
 338 02cc 0350A0E1 		mov	r5, r3
 339 02d0 FFA000E2 		and	sl, r0, #255
 340 02d4 FF6001E2 		and	r6, r1, #255
 341 02d8 FF4002E2 		and	r4, r2, #255
 342              		.loc 1 131 0
 343 02dc B630D3E1 		ldrh	r3, [r3, #6]
 344              	.LVL33:
 345 02e0 010053E3 		cmp	r3, #1
 346 02e4 5401009A 		bls	.L49
 347              	.LVL34:
 348              	.L83:
 349              		.loc 1 135 0
 350 02e8 0500A0E1 		mov	r0, r5
 351 02ec 0010A0E3 		mov	r1, #0
 352 02f0 FEFFFFEB 		bl	bufferGetAtIndex
 353 02f4 FF0050E3 		cmp	r0, #255
 354 02f8 C700001A 		bne	.L51
 355 02fc 0500A0E1 		mov	r0, r5
 356 0300 0110A0E3 		mov	r1, #1
 357 0304 FEFFFFEB 		bl	bufferGetAtIndex
 358 0308 000056E1 		cmp	r6, r0
 359 030c CD00000A 		beq	.L53
 360 0310 0500A0E1 		mov	r0, r5
 361 0314 0110A0E3 		mov	r1, #1
 362 0318 FEFFFFEB 		bl	bufferGetAtIndex
 363 031c FE0050E3 		cmp	r0, #254
 364 0320 CD00000A 		beq	.L53
 365              	.L51:
 366              		.loc 1 155 0
 367 0324 0500A0E1 		mov	r0, r5
 368 0328 FEFFFFEB 		bl	bufferGetFromFront
 369              		.loc 1 131 0
ARM GAS  C:\DOCUME~1\TECHCO~1\LOCALS~1\Temp/ccUFaaaa.s 			page 14


 370 032c B630D5E1 		ldrh	r3, [r5, #6]
 371 0330 010053E3 		cmp	r3, #1
 372 0334 5401009A 		bls	.L49
 373 0338 B80000EA 		b	.L83
 374              	.L53:
 375              		.loc 1 161 0
 376 033c B630D5E1 		ldrh	r3, [r5, #6]
 377 0340 030053E3 		cmp	r3, #3
 378 0344 5201009A 		bls	.L55
 379              	.LBB3:
 380              		.loc 1 164 0
 381 0348 FF0056E3 		cmp	r6, #255
 382 034c D800001A 		bne	.L57
 383 0350 0500A0E1 		mov	r0, r5
 384 0354 0310A0E3 		mov	r1, #3
 385 0358 FEFFFFEB 		bl	bufferGetAtIndex
 386 035c 020040E2 		sub	r0, r0, #2
 387 0360 FF8000E2 		and	r8, r0, #255
 388              	.LVL35:
 389 0364 DC0000EA 		b	.L59
 390              	.LVL36:
 391              	.L57:
 392              		.loc 1 165 0
 393 0368 0500A0E1 		mov	r0, r5
 394 036c 0310A0E3 		mov	r1, #3
 395 0370 FEFFFFEB 		bl	bufferGetAtIndex
 396 0374 0080A0E1 		mov	r8, r0
 397              	.LVL37:
 398              	.L59:
 399              		.loc 1 173 0
 400 0378 062088E2 		add	r2, r8, #6
 401 037c 800052E3 		cmp	r2, #128
 402 0380 E30000DA 		ble	.L60
 403              		.loc 1 174 0
 404 0384 0500A0E1 		mov	r0, r5
 405 0388 FEFFFFEB 		bl	bufferFlush
 406 038c 0000A0E3 		mov	r0, #0
 407              	.LVL38:
 408 0390 5A0100EA 		b	.L62
 409              	.LVL39:
 410              	.L60:
 411              		.loc 1 175 0
 412 0394 B630D5E1 		ldrh	r3, [r5, #6]
 413 0398 030052E1 		cmp	r2, r3
 414 039c 520100CA 		bgt	.L55
 415              		.loc 1 180 0
 416 03a0 0500A0E1 		mov	r0, r5
 417 03a4 0110A0E3 		mov	r1, #1
 418 03a8 FEFFFFEB 		bl	bufferGetAtIndex
 419 03ac 000056E1 		cmp	r6, r0
 420 03b0 4A01001A 		bne	.L64
 421 03b4 0500A0E1 		mov	r0, r5
 422 03b8 0210A0E3 		mov	r1, #2
 423 03bc FEFFFFEB 		bl	bufferGetAtIndex
 424 03c0 040050E1 		cmp	r0, r4
 425 03c4 F500000A 		beq	.L66
 426 03c8 0500A0E1 		mov	r0, r5
ARM GAS  C:\DOCUME~1\TECHCO~1\LOCALS~1\Temp/ccUFaaaa.s 			page 15


 427 03cc 0210A0E3 		mov	r1, #2
 428 03d0 FEFFFFEB 		bl	bufferGetAtIndex
 429 03d4 FE0050E3 		cmp	r0, #254
 430 03d8 4A01001A 		bne	.L64
 431              	.L66:
 432              		.loc 1 186 0
 433 03dc 08B0A0E1 		mov	fp, r8
 434              	.LVL40:
 435 03e0 053088E2 		add	r3, r8, #5
 436 03e4 0338A0E1 		mov	r3, r3, asl #16
 437 03e8 2398A0E1 		mov	r9, r3, lsr #16
 438 03ec 0500A0E1 		mov	r0, r5
 439 03f0 0910A0E1 		mov	r1, r9
 440 03f4 FEFFFFEB 		bl	bufferGetAtIndex
 441 03f8 00008DE5 		str	r0, [sp, #0]
 442              	.LVL41:
 443              		.loc 1 189 0
 444 03fc 0500A0E1 		mov	r0, r5
 445 0400 0210A0E3 		mov	r1, #2
 446 0404 FEFFFFEB 		bl	bufferGetAtIndex
 447 0408 0040A0E1 		mov	r4, r0
 448              	.LVL42:
 449              		.loc 1 190 0
 450 040c 0500A0E1 		mov	r0, r5
 451 0410 0310A0E3 		mov	r1, #3
 452 0414 FEFFFFEB 		bl	bufferGetAtIndex
 453 0418 004084E0 		add	r4, r4, r0
 454 041c FF4004E2 		and	r4, r4, #255
 455              	.LVL43:
 456              		.loc 1 191 0
 457 0420 0500A0E1 		mov	r0, r5
 458 0424 0410A0E3 		mov	r1, #4
 459 0428 FEFFFFEB 		bl	bufferGetAtIndex
 460 042c 004084E0 		add	r4, r4, r0
 461              	.LVL44:
 462 0430 FF7004E2 		and	r7, r4, #255
 463              	.LVL45:
 464              		.loc 1 192 0
 465 0434 000058E3 		cmp	r8, #0
 466 0438 1801000A 		beq	.L68
 467 043c 0540A0E3 		mov	r4, #5
 468              	.L70:
 469              		.loc 1 194 0
 470 0440 0500A0E1 		mov	r0, r5
 471 0444 0410A0E1 		mov	r1, r4
 472 0448 FEFFFFEB 		bl	bufferGetAtIndex
 473 044c 000087E0 		add	r0, r7, r0
 474 0450 FF7000E2 		and	r7, r0, #255
 475 0454 013084E2 		add	r3, r4, #1
 476 0458 0338A0E1 		mov	r3, r3, asl #16
 477 045c 2348A0E1 		mov	r4, r3, lsr #16
 478              		.loc 1 192 0
 479 0460 040059E1 		cmp	r9, r4
 480 0464 0E01001A 		bne	.L70
 481              	.L68:
 482              		.loc 1 198 0
 483 0468 FF0056E3 		cmp	r6, #255
ARM GAS  C:\DOCUME~1\TECHCO~1\LOCALS~1\Temp/ccUFaaaa.s 			page 16


 484 046c 0730E001 		mvneq	r3, r7
 485 0470 FF700302 		andeq	r7, r3, #255
 486              		.loc 1 200 0
 487 0474 00309DE5 		ldr	r3, [sp, #0]
 488 0478 030057E1 		cmp	r7, r3
 489 047c 4601001A 		bne	.L73
 490              		.loc 1 204 0
 491 0480 F0209FE5 		ldr	r2, .L87
 492 0484 F0309FE5 		ldr	r3, .L87+4
 493 0488 00005AE3 		cmp	sl, #0
 494 048c 0370A011 		movne	r7, r3
 495              	.LVL46:
 496 0490 0270A001 		moveq	r7, r2
 497              		.loc 1 211 0
 498 0494 0500A0E1 		mov	r0, r5
 499 0498 0110A0E3 		mov	r1, #1
 500 049c FEFFFFEB 		bl	bufferGetAtIndex
 501 04a0 0100C7E5 		strb	r0, [r7, #1]
 502              		.loc 1 212 0
 503 04a4 0500A0E1 		mov	r0, r5
 504 04a8 0210A0E3 		mov	r1, #2
 505 04ac FEFFFFEB 		bl	bufferGetAtIndex
 506 04b0 0000C7E5 		strb	r0, [r7, #0]
 507              		.loc 1 213 0
 508 04b4 0500A0E1 		mov	r0, r5
 509 04b8 0410A0E3 		mov	r1, #4
 510 04bc FEFFFFEB 		bl	bufferGetAtIndex
 511 04c0 0200C7E5 		strb	r0, [r7, #2]
 512              	.LVL47:
 513              		.loc 1 214 0
 514 04c4 8380C7E5 		strb	r8, [r7, #131]
 515              		.loc 1 215 0
 516 04c8 000058E3 		cmp	r8, #0
 517 04cc 4201000A 		beq	.L78
 518 04d0 0060A0E3 		mov	r6, #0
 519              	.LVL48:
 520 04d4 01304BE2 		sub	r3, fp, #1
 521 04d8 0338A0E1 		mov	r3, r3, asl #16
 522 04dc 2338A0E1 		mov	r3, r3, lsr #16
 523 04e0 018083E2 		add	r8, r3, #1
 524              	.LVL49:
 525              	.L80:
 526 04e4 0618A0E1 		mov	r1, r6, asl #16
 527              		.loc 1 217 0
 528 04e8 2148A0E1 		mov	r4, r1, lsr #16
 529              	.LVL50:
 530 04ec 051881E2 		add	r1, r1, #327680
 531 04f0 0500A0E1 		mov	r0, r5
 532 04f4 2118A0E1 		mov	r1, r1, lsr #16
 533 04f8 FEFFFFEB 		bl	bufferGetAtIndex
 534 04fc 044087E0 		add	r4, r7, r4
 535              	.LVL51:
 536 0500 0300C4E5 		strb	r0, [r4, #3]
 537 0504 016086E2 		add	r6, r6, #1
 538              		.loc 1 215 0
 539 0508 060058E1 		cmp	r8, r6
 540 050c 3701001A 		bne	.L80
ARM GAS  C:\DOCUME~1\TECHCO~1\LOCALS~1\Temp/ccUFaaaa.s 			page 17


 541              	.LVL52:
 542              	.L78:
 543              		.loc 1 220 0
 544 0510 0500A0E1 		mov	r0, r5
 545 0514 FEFFFFEB 		bl	bufferFlush
 546 0518 FF00A0E3 		mov	r0, #255
 547              	.LVL53:
 548 051c 5A0100EA 		b	.L62
 549              	.LVL54:
 550              	.L73:
 551              		.loc 1 222 0
 552 0520 0500A0E1 		mov	r0, r5
 553 0524 FEFFFFEB 		bl	bufferGetFromFront
 554 0528 0000A0E3 		mov	r0, #0
 555              	.LVL55:
 556 052c 5A0100EA 		b	.L62
 557              	.LVL56:
 558              	.L64:
 559              		.loc 1 224 0
 560 0530 0500A0E1 		mov	r0, r5
 561 0534 FEFFFFEB 		bl	bufferGetFromFront
 562 0538 0000A0E3 		mov	r0, #0
 563              	.LVL57:
 564 053c 5A0100EA 		b	.L62
 565              	.LVL58:
 566              	.L81:
 567              	.LBE3:
 568              		.loc 1 232 0
 569 0540 0500A0E1 		mov	r0, r5
 570 0544 FEFFFFEB 		bl	bufferFlush
 571 0548 0000A0E3 		mov	r0, #0
 572              	.LVL59:
 573 054c 5A0100EA 		b	.L62
 574              	.LVL60:
 575              	.L55:
 576 0550 0000A0E3 		mov	r0, #0
 577              	.LVL61:
 578 0554 5A0100EA 		b	.L62
 579              	.LVL62:
 580              	.L49:
 581              		.loc 1 228 0
 582 0558 B620D5E1 		ldrh	r2, [r5, #6]
 583 055c B430D5E1 		ldrh	r3, [r5, #4]
 584 0560 013043E2 		sub	r3, r3, #1
 585 0564 030052E1 		cmp	r2, r3
 586 0568 520100BA 		blt	.L55
 587 056c 4E0100EA 		b	.L81
 588              	.LVL63:
 589              	.L62:
 590              	.LVL64:
 591              		.loc 1 236 0
 592 0570 04D08DE2 		add	sp, sp, #4
 593 0574 F08FBDE8 		ldmfd	sp!, {r4, r5, r6, r7, r8, r9, sl, fp, pc}
 594              	.L88:
 595              		.align	2
 596              	.L87:
 597 0578 00000000 		.word	int_busRxPkt
ARM GAS  C:\DOCUME~1\TECHCO~1\LOCALS~1\Temp/ccUFaaaa.s 			page 18


 598 057c 00000000 		.word	ext_busRxPkt
 599              	.LFE8:
 600              		.size	packetRxProcess, .-packetRxProcess
 601              		.align	2
 602              		.global	cmd_Flush
 603              		.type	cmd_Flush, %function
 604              	cmd_Flush:
 605              	.LFB5:
 606              		.loc 1 53 0
 607              		@ args = 0, pretend = 0, frame = 0
 608              		@ frame_needed = 0, uses_anonymous_args = 0
 609 0580 04E02DE5 		str	lr, [sp, #-4]!
 610              	.LCFI5:
 611              		.loc 1 54 0
 612 0584 04009FE5 		ldr	r0, .L91
 613 0588 FEFFFFEB 		bl	bufferFlush
 614              		.loc 1 55 0
 615 058c 04F09DE4 		ldr	pc, [sp], #4
 616              	.L92:
 617              		.align	2
 618              	.L91:
 619 0590 00000000 		.word	cmdBuffer
 620              	.LFE5:
 621              		.size	cmd_Flush, .-cmd_Flush
 622              		.align	2
 623              		.global	cmd_Execute
 624              		.type	cmd_Execute, %function
 625              	cmd_Execute:
 626              	.LFB6:
 627              		.loc 1 57 0
 628              		@ args = 0, pretend = 0, frame = 0
 629              		@ frame_needed = 0, uses_anonymous_args = 0
 630              	.LVL65:
 631 0594 30402DE9 		stmfd	sp!, {r4, r5, lr}
 632              	.LCFI6:
 633              		.loc 1 60 0
 634 0598 FF5010E2 		ands	r5, r0, #255
 635 059c 7001001A 		bne	.L94
 636              	.LVL66:
 637              		.loc 1 63 0
 638 05a0 0E32A0E3 		mov	r3, #-536870912
 639 05a4 0A3983E2 		add	r3, r3, #163840
 640 05a8 1C2093E5 		ldr	r2, [r3, #28]
 641 05ac 022882E3 		orr	r2, r2, #131072
 642 05b0 1C2083E5 		str	r2, [r3, #28]
 643              		.loc 1 64 0
 644 05b4 142093E5 		ldr	r2, [r3, #20]
 645 05b8 012882E3 		orr	r2, r2, #65536
 646 05bc 142083E5 		str	r2, [r3, #20]
 647 05c0 C4409FE5 		ldr	r4, .L111
 648              	.LVL67:
 649 05c4 7E0100EA 		b	.L108
 650              	.LVL68:
 651              	.L94:
 652              		.loc 1 67 0
 653 05c8 0E32A0E3 		mov	r3, #-536870912
 654 05cc 0A3983E2 		add	r3, r3, #163840
ARM GAS  C:\DOCUME~1\TECHCO~1\LOCALS~1\Temp/ccUFaaaa.s 			page 19


 655 05d0 1C2093E5 		ldr	r2, [r3, #28]
 656 05d4 022782E3 		orr	r2, r2, #524288
 657 05d8 1C2083E5 		str	r2, [r3, #28]
 658              		.loc 1 68 0
 659 05dc 142093E5 		ldr	r2, [r3, #20]
 660 05e0 012782E3 		orr	r2, r2, #262144
 661 05e4 142083E5 		str	r2, [r3, #20]
 662 05e8 A0409FE5 		ldr	r4, .L111+4
 663              	.LVL69:
 664 05ec 7E0100EA 		b	.L108
 665              	.LVL70:
 666              	.L97:
 667              		.loc 1 72 0
 668 05f0 9C009FE5 		ldr	r0, .L111+8
 669 05f4 FEFFFFEB 		bl	bufferGetFromFront
 670              		.loc 1 73 0
 671 05f8 0FE0A0E1 		mov	lr, pc
 672 05fc 14FF2FE1 		bx	r4
 673              	.LVL71:
 674              	.L108:
 675              		.loc 1 70 0
 676 0600 8C009FE5 		ldr	r0, .L111+8
 677 0604 FEFFFFEB 		bl	bufferIsNotFull
 678 0608 800060E2 		rsb	r0, r0, #128
 679 060c 000050E3 		cmp	r0, #0
 680 0610 7A0100CA 		bgt	.L97
 681              		.loc 1 76 0
 682 0614 000055E3 		cmp	r5, #0
 683 0618 9301001A 		bne	.L105
 684 061c 0E32A0E3 		mov	r3, #-536870912
 685 0620 032983E2 		add	r2, r3, #49152
 686              	.L100:
 687              		.loc 1 78 0
 688 0624 1430D2E5 		ldrb	r3, [r2, #20]	@ zero_extendqisi2
 689 0628 400013E3 		tst	r3, #64
 690 062c 8701000A 		beq	.L100
 691              		.loc 1 79 0
 692 0630 0E32A0E3 		mov	r3, #-536870912
 693 0634 0A3983E2 		add	r3, r3, #163840
 694 0638 1C2093E5 		ldr	r2, [r3, #28]
 695 063c 012882E3 		orr	r2, r2, #65536
 696 0640 1C2083E5 		str	r2, [r3, #28]
 697              		.loc 1 80 0
 698 0644 142093E5 		ldr	r2, [r3, #20]
 699 0648 022882E3 		orr	r2, r2, #131072
 700 064c 142083E5 		str	r2, [r3, #20]
 701 0650 9F0100EA 		b	.L102
 702              	.L105:
 703              		.loc 1 82 0
 704 0654 0E22A0E3 		mov	r2, #-536870912
 705 0658 013882E2 		add	r3, r2, #65536
 706 065c 1430D3E5 		ldrb	r3, [r3, #20]	@ zero_extendqisi2
 707 0660 400013E3 		tst	r3, #64
 708 0664 9301000A 		beq	.L105
 709              		.loc 1 83 0
 710 0668 0A3982E2 		add	r3, r2, #163840
 711 066c 1C2093E5 		ldr	r2, [r3, #28]
ARM GAS  C:\DOCUME~1\TECHCO~1\LOCALS~1\Temp/ccUFaaaa.s 			page 20


 712 0670 012782E3 		orr	r2, r2, #262144
 713 0674 1C2083E5 		str	r2, [r3, #28]
 714              		.loc 1 84 0
 715 0678 142093E5 		ldr	r2, [r3, #20]
 716 067c 022782E3 		orr	r2, r2, #524288
 717 0680 142083E5 		str	r2, [r3, #20]
 718              	.L102:
 719              		.loc 1 86 0
 720 0684 FEFFFFEB 		bl	cmd_Flush
 721              		.loc 1 87 0
 722 0688 3080BDE8 		ldmfd	sp!, {r4, r5, pc}
 723              	.L112:
 724              		.align	2
 725              	.L111:
 726 068c 00000000 		.word	uart0SendByte
 727 0690 00000000 		.word	uart1SendByte
 728 0694 00000000 		.word	cmdBuffer
 729              	.LFE6:
 730              		.size	cmd_Execute, .-cmd_Execute
 731              		.align	2
 732              		.global	cmd_AddByteToEnd
 733              		.type	cmd_AddByteToEnd, %function
 734              	cmd_AddByteToEnd:
 735              	.LFB4:
 736              		.loc 1 49 0
 737              		@ args = 0, pretend = 0, frame = 0
 738              		@ frame_needed = 0, uses_anonymous_args = 0
 739              	.LVL72:
 740 0698 04E02DE5 		str	lr, [sp, #-4]!
 741              	.LCFI7:
 742 069c FF1000E2 		and	r1, r0, #255
 743              		.loc 1 50 0
 744 06a0 04009FE5 		ldr	r0, .L115
 745              	.LVL73:
 746 06a4 FEFFFFEB 		bl	bufferAddToEnd
 747              	.LVL74:
 748              		.loc 1 51 0
 749 06a8 04F09DE4 		ldr	pc, [sp], #4
 750              	.L116:
 751              		.align	2
 752              	.L115:
 753 06ac 00000000 		.word	cmdBuffer
 754              	.LFE4:
 755              		.size	cmd_AddByteToEnd, .-cmd_AddByteToEnd
 756              		.align	2
 757              		.global	cmd_BuildPacket
 758              		.type	cmd_BuildPacket, %function
 759              	cmd_BuildPacket:
 760              	.LFB7:
 761              		.loc 1 90 0
 762              		@ args = 4, pretend = 0, frame = 0
 763              		@ frame_needed = 0, uses_anonymous_args = 0
 764              	.LVL75:
 765 06b0 F0412DE9 		stmfd	sp!, {r4, r5, r6, r7, r8, lr}
 766              	.LCFI8:
 767 06b4 18809DE5 		ldr	r8, [sp, #24]
 768 06b8 FF5000E2 		and	r5, r0, #255
ARM GAS  C:\DOCUME~1\TECHCO~1\LOCALS~1\Temp/ccUFaaaa.s 			page 21


 769 06bc FF4001E2 		and	r4, r1, #255
 770 06c0 FF6002E2 		and	r6, r2, #255
 771 06c4 FF7003E2 		and	r7, r3, #255
 772              		.loc 1 92 0
 773 06c8 FEFFFFEB 		bl	cmd_Flush
 774              	.LVL76:
 775              		.loc 1 93 0
 776 06cc FF00A0E3 		mov	r0, #255
 777 06d0 FEFFFFEB 		bl	cmd_AddByteToEnd
 778              		.loc 1 94 0
 779 06d4 0500A0E1 		mov	r0, r5
 780 06d8 FEFFFFEB 		bl	cmd_AddByteToEnd
 781              		.loc 1 95 0
 782 06dc 0400A0E1 		mov	r0, r4
 783 06e0 FEFFFFEB 		bl	cmd_AddByteToEnd
 784              		.loc 1 96 0
 785 06e4 0700A0E1 		mov	r0, r7
 786 06e8 FEFFFFEB 		bl	cmd_AddByteToEnd
 787              		.loc 1 97 0
 788 06ec 0600A0E1 		mov	r0, r6
 789 06f0 FEFFFFEB 		bl	cmd_AddByteToEnd
 790              		.loc 1 100 0
 791 06f4 064084E0 		add	r4, r4, r6
 792              	.LVL77:
 793              		.loc 1 101 0
 794 06f8 074084E0 		add	r4, r4, r7
 795 06fc FF4004E2 		and	r4, r4, #255
 796              	.LVL78:
 797              		.loc 1 109 0
 798 0700 000057E3 		cmp	r7, #0
 799 0704 CA01000A 		beq	.L118
 800              	.LVL79:
 801 0708 0050A0E3 		mov	r5, #0
 802              	.LVL80:
 803              	.L120:
 804              		.loc 1 111 0
 805 070c 0800D5E7 		ldrb	r0, [r5, r8]	@ zero_extendqisi2
 806 0710 FEFFFFEB 		bl	cmd_AddByteToEnd
 807              		.loc 1 112 0
 808 0714 0830D5E7 		ldrb	r3, [r5, r8]	@ zero_extendqisi2
 809 0718 033084E0 		add	r3, r4, r3
 810 071c FF4003E2 		and	r4, r3, #255
 811              		.loc 1 109 0
 812 0720 013085E2 		add	r3, r5, #1
 813 0724 FF5003E2 		and	r5, r3, #255
 814 0728 050057E1 		cmp	r7, r5
 815 072c C101001A 		bne	.L120
 816              	.LVL81:
 817              	.L118:
 818              		.loc 1 115 0
 819 0730 0400A0E1 		mov	r0, r4
 820 0734 FEFFFFEB 		bl	cmd_AddByteToEnd
 821              		.loc 1 119 0
 822 0738 F081BDE8 		ldmfd	sp!, {r4, r5, r6, r7, r8, pc}
 823              	.LFE7:
 824              		.size	cmd_BuildPacket, .-cmd_BuildPacket
 825              		.align	2
ARM GAS  C:\DOCUME~1\TECHCO~1\LOCALS~1\Temp/ccUFaaaa.s 			page 22


 826              		.global	cmd_Init
 827              		.type	cmd_Init, %function
 828              	cmd_Init:
 829              	.LFB3:
 830              		.loc 1 45 0
 831              		@ args = 0, pretend = 0, frame = 0
 832              		@ frame_needed = 0, uses_anonymous_args = 0
 833 073c 04E02DE5 		str	lr, [sp, #-4]!
 834              	.LCFI9:
 835              		.loc 1 46 0
 836 0740 0C009FE5 		ldr	r0, .L125
 837 0744 0C109FE5 		ldr	r1, .L125+4
 838 0748 8020A0E3 		mov	r2, #128
 839 074c FEFFFFEB 		bl	bufferInit
 840              		.loc 1 47 0
 841 0750 04F09DE4 		ldr	pc, [sp], #4
 842              	.L126:
 843              		.align	2
 844              	.L125:
 845 0754 00000000 		.word	cmdBuffer
 846 0758 00000000 		.word	cmdBufferData
 847              	.LFE3:
 848              		.size	cmd_Init, .-cmd_Init
 849              		.align	2
 850              		.global	HD232_Init
 851              		.type	HD232_Init, %function
 852              	HD232_Init:
 853              	.LFB2:
 854              		.loc 1 12 0
 855              		@ args = 0, pretend = 0, frame = 0
 856              		@ frame_needed = 0, uses_anonymous_args = 0
 857 075c 10402DE9 		stmfd	sp!, {r4, lr}
 858              	.LCFI10:
 859              		.loc 1 13 0
 860 0760 0400A0E3 		mov	r0, #4
 861 0764 0310A0E3 		mov	r1, #3
 862 0768 8120A0E3 		mov	r2, #129
 863 076c FEFFFFEB 		bl	uart0Init
 864              		.loc 1 14 0
 865 0770 0400A0E3 		mov	r0, #4
 866 0774 0310A0E3 		mov	r1, #3
 867 0778 8120A0E3 		mov	r2, #129
 868 077c FEFFFFEB 		bl	uart1Init
 869              		.loc 1 18 0
 870 0780 0E22A0E3 		mov	r2, #-536870912
 871 0784 013882E2 		add	r3, r2, #65536
 872 0788 7F40E0E3 		mvn	r4, #127
 873 078c 0C40C3E5 		strb	r4, [r3, #12]
 874              		.loc 1 19 0
 875 0790 41E0A0E3 		mov	lr, #65
 876 0794 28E0C3E5 		strb	lr, [r3, #40]
 877              		.loc 1 20 0
 878 0798 09C0A0E3 		mov	ip, #9
 879 079c 00C0C3E5 		strb	ip, [r3, #0]
 880              		.loc 1 21 0
 881 07a0 0000A0E3 		mov	r0, #0
 882 07a4 0400C3E5 		strb	r0, [r3, #4]
ARM GAS  C:\DOCUME~1\TECHCO~1\LOCALS~1\Temp/ccUFaaaa.s 			page 23


 883              		.loc 1 22 0
 884 07a8 0310A0E3 		mov	r1, #3
 885 07ac 0C10C3E5 		strb	r1, [r3, #12]
 886              		.loc 1 26 0
 887 07b0 033982E2 		add	r3, r2, #49152
 888 07b4 0C40C3E5 		strb	r4, [r3, #12]
 889              		.loc 1 27 0
 890 07b8 28E0C3E5 		strb	lr, [r3, #40]
 891              		.loc 1 28 0
 892 07bc 00C0C3E5 		strb	ip, [r3, #0]
 893              		.loc 1 29 0
 894 07c0 0400C3E5 		strb	r0, [r3, #4]
 895              		.loc 1 30 0
 896 07c4 0C10C3E5 		strb	r1, [r3, #12]
 897              		.loc 1 33 0
 898 07c8 0A2982E2 		add	r2, r2, #163840
 899 07cc 183092E5 		ldr	r3, [r2, #24]
 900 07d0 013883E3 		orr	r3, r3, #65536
 901 07d4 183082E5 		str	r3, [r2, #24]
 902              		.loc 1 34 0
 903 07d8 1C3092E5 		ldr	r3, [r2, #28]
 904 07dc 013883E3 		orr	r3, r3, #65536
 905 07e0 1C3082E5 		str	r3, [r2, #28]
 906              		.loc 1 35 0
 907 07e4 183092E5 		ldr	r3, [r2, #24]
 908 07e8 023883E3 		orr	r3, r3, #131072
 909 07ec 183082E5 		str	r3, [r2, #24]
 910              		.loc 1 36 0
 911 07f0 1C3092E5 		ldr	r3, [r2, #28]
 912 07f4 023883E3 		orr	r3, r3, #131072
 913 07f8 1C3082E5 		str	r3, [r2, #28]
 914              		.loc 1 39 0
 915 07fc 183092E5 		ldr	r3, [r2, #24]
 916 0800 013783E3 		orr	r3, r3, #262144
 917 0804 183082E5 		str	r3, [r2, #24]
 918              		.loc 1 40 0
 919 0808 1C3092E5 		ldr	r3, [r2, #28]
 920 080c 013783E3 		orr	r3, r3, #262144
 921 0810 1C3082E5 		str	r3, [r2, #28]
 922              		.loc 1 41 0
 923 0814 183092E5 		ldr	r3, [r2, #24]
 924 0818 023783E3 		orr	r3, r3, #524288
 925 081c 183082E5 		str	r3, [r2, #24]
 926              		.loc 1 42 0
 927 0820 1C3092E5 		ldr	r3, [r2, #28]
 928 0824 023783E3 		orr	r3, r3, #524288
 929 0828 1C3082E5 		str	r3, [r2, #28]
 930              		.loc 1 43 0
 931 082c 1080BDE8 		ldmfd	sp!, {r4, pc}
 932              	.LFE2:
 933              		.size	HD232_Init, .-HD232_Init
 934              		.comm	cmdBufferData,128,1
 935              		.comm	cmdBuffer,12,4
 936              		.comm	int_busRxPkt,132,4
 937              		.comm	ext_busRxPkt,132,4
 938              		.section	.debug_frame,"",%progbits
 939              	.Lframe0:
ARM GAS  C:\DOCUME~1\TECHCO~1\LOCALS~1\Temp/ccUFaaaa.s 			page 24


 940 0000 0C000000 		.4byte	.LECIE0-.LSCIE0
 941              	.LSCIE0:
 942 0004 FFFFFFFF 		.4byte	0xffffffff
 943 0008 01       		.byte	0x1
 944 0009 00       		.ascii	"\000"
 945 000a 01       		.uleb128 0x1
 946 000b 7C       		.sleb128 -4
 947 000c 0E       		.byte	0xe
 948 000d 0C       		.byte	0xc
 949 000e 0D       		.uleb128 0xd
 950 000f 00       		.uleb128 0x0
 951              		.align	2
 952              	.LECIE0:
 953              	.LSFDE0:
 954 0010 18000000 		.4byte	.LEFDE0-.LASFDE0
 955              	.LASFDE0:
 956 0014 00000000 		.4byte	.Lframe0
 957 0018 00000000 		.4byte	.LFB11
 958 001c 5C000000 		.4byte	.LFE11-.LFB11
 959 0020 44       		.byte	0x4
 960              		.4byte	.LCFI0-.LFB11
 961 0021 0E       		.byte	0xe
 962 0022 0C       		.uleb128 0xc
 963 0023 8E       		.byte	0x8e
 964 0024 01       		.uleb128 0x1
 965 0025 85       		.byte	0x85
 966 0026 02       		.uleb128 0x2
 967 0027 84       		.byte	0x84
 968 0028 03       		.uleb128 0x3
 969 0029 000000   		.align	2
 970              	.LEFDE0:
 971              	.LSFDE2:
 972 002c 18000000 		.4byte	.LEFDE2-.LASFDE2
 973              	.LASFDE2:
 974 0030 00000000 		.4byte	.Lframe0
 975 0034 5C000000 		.4byte	.LFB10
 976 0038 50000000 		.4byte	.LFE10-.LFB10
 977 003c 44       		.byte	0x4
 978              		.4byte	.LCFI1-.LFB10
 979 003d 0E       		.byte	0xe
 980 003e 0C       		.uleb128 0xc
 981 003f 8E       		.byte	0x8e
 982 0040 01       		.uleb128 0x1
 983 0041 85       		.byte	0x85
 984 0042 02       		.uleb128 0x2
 985 0043 84       		.byte	0x84
 986 0044 03       		.uleb128 0x3
 987 0045 000000   		.align	2
 988              	.LEFDE2:
 989              	.LSFDE4:
 990 0048 24000000 		.4byte	.LEFDE4-.LASFDE4
 991              	.LASFDE4:
 992 004c 00000000 		.4byte	.Lframe0
 993 0050 AC000000 		.4byte	.LFB9
 994 0054 18020000 		.4byte	.LFE9-.LFB9
 995 0058 44       		.byte	0x4
 996              		.4byte	.LCFI2-.LFB9
ARM GAS  C:\DOCUME~1\TECHCO~1\LOCALS~1\Temp/ccUFaaaa.s 			page 25


 997 0059 0E       		.byte	0xe
 998 005a 24       		.uleb128 0x24
 999 005b 8E       		.byte	0x8e
 1000 005c 01       		.uleb128 0x1
 1001 005d 8B       		.byte	0x8b
 1002 005e 02       		.uleb128 0x2
 1003 005f 8A       		.byte	0x8a
 1004 0060 03       		.uleb128 0x3
 1005 0061 89       		.byte	0x89
 1006 0062 04       		.uleb128 0x4
 1007 0063 88       		.byte	0x88
 1008 0064 05       		.uleb128 0x5
 1009 0065 87       		.byte	0x87
 1010 0066 06       		.uleb128 0x6
 1011 0067 86       		.byte	0x86
 1012 0068 07       		.uleb128 0x7
 1013 0069 85       		.byte	0x85
 1014 006a 08       		.uleb128 0x8
 1015 006b 84       		.byte	0x84
 1016 006c 09       		.uleb128 0x9
 1017 006d 000000   		.align	2
 1018              	.LEFDE4:
 1019              	.LSFDE6:
 1020 0070 24000000 		.4byte	.LEFDE6-.LASFDE6
 1021              	.LASFDE6:
 1022 0074 00000000 		.4byte	.Lframe0
 1023 0078 C4020000 		.4byte	.LFB8
 1024 007c BC020000 		.4byte	.LFE8-.LFB8
 1025 0080 44       		.byte	0x4
 1026              		.4byte	.LCFI3-.LFB8
 1027 0081 0E       		.byte	0xe
 1028 0082 24       		.uleb128 0x24
 1029 0083 44       		.byte	0x4
 1030              		.4byte	.LCFI4-.LCFI3
 1031 0084 0E       		.byte	0xe
 1032 0085 28       		.uleb128 0x28
 1033 0086 8E       		.byte	0x8e
 1034 0087 01       		.uleb128 0x1
 1035 0088 8B       		.byte	0x8b
 1036 0089 02       		.uleb128 0x2
 1037 008a 8A       		.byte	0x8a
 1038 008b 03       		.uleb128 0x3
 1039 008c 89       		.byte	0x89
 1040 008d 04       		.uleb128 0x4
 1041 008e 88       		.byte	0x88
 1042 008f 05       		.uleb128 0x5
 1043 0090 87       		.byte	0x87
 1044 0091 06       		.uleb128 0x6
 1045 0092 86       		.byte	0x86
 1046 0093 07       		.uleb128 0x7
 1047 0094 85       		.byte	0x85
 1048 0095 08       		.uleb128 0x8
 1049 0096 84       		.byte	0x84
 1050 0097 09       		.uleb128 0x9
 1051              		.align	2
 1052              	.LEFDE6:
 1053              	.LSFDE8:
ARM GAS  C:\DOCUME~1\TECHCO~1\LOCALS~1\Temp/ccUFaaaa.s 			page 26


 1054 0098 14000000 		.4byte	.LEFDE8-.LASFDE8
 1055              	.LASFDE8:
 1056 009c 00000000 		.4byte	.Lframe0
 1057 00a0 80050000 		.4byte	.LFB5
 1058 00a4 14000000 		.4byte	.LFE5-.LFB5
 1059 00a8 44       		.byte	0x4
 1060              		.4byte	.LCFI5-.LFB5
 1061 00a9 0E       		.byte	0xe
 1062 00aa 04       		.uleb128 0x4
 1063 00ab 8E       		.byte	0x8e
 1064 00ac 01       		.uleb128 0x1
 1065 00ad 000000   		.align	2
 1066              	.LEFDE8:
 1067              	.LSFDE10:
 1068 00b0 18000000 		.4byte	.LEFDE10-.LASFDE10
 1069              	.LASFDE10:
 1070 00b4 00000000 		.4byte	.Lframe0
 1071 00b8 94050000 		.4byte	.LFB6
 1072 00bc 04010000 		.4byte	.LFE6-.LFB6
 1073 00c0 44       		.byte	0x4
 1074              		.4byte	.LCFI6-.LFB6
 1075 00c1 0E       		.byte	0xe
 1076 00c2 0C       		.uleb128 0xc
 1077 00c3 8E       		.byte	0x8e
 1078 00c4 01       		.uleb128 0x1
 1079 00c5 85       		.byte	0x85
 1080 00c6 02       		.uleb128 0x2
 1081 00c7 84       		.byte	0x84
 1082 00c8 03       		.uleb128 0x3
 1083 00c9 000000   		.align	2
 1084              	.LEFDE10:
 1085              	.LSFDE12:
 1086 00cc 14000000 		.4byte	.LEFDE12-.LASFDE12
 1087              	.LASFDE12:
 1088 00d0 00000000 		.4byte	.Lframe0
 1089 00d4 98060000 		.4byte	.LFB4
 1090 00d8 18000000 		.4byte	.LFE4-.LFB4
 1091 00dc 44       		.byte	0x4
 1092              		.4byte	.LCFI7-.LFB4
 1093 00dd 0E       		.byte	0xe
 1094 00de 04       		.uleb128 0x4
 1095 00df 8E       		.byte	0x8e
 1096 00e0 01       		.uleb128 0x1
 1097 00e1 000000   		.align	2
 1098              	.LEFDE12:
 1099              	.LSFDE14:
 1100 00e4 1C000000 		.4byte	.LEFDE14-.LASFDE14
 1101              	.LASFDE14:
 1102 00e8 00000000 		.4byte	.Lframe0
 1103 00ec B0060000 		.4byte	.LFB7
 1104 00f0 8C000000 		.4byte	.LFE7-.LFB7
 1105 00f4 44       		.byte	0x4
 1106              		.4byte	.LCFI8-.LFB7
 1107 00f5 0E       		.byte	0xe
 1108 00f6 18       		.uleb128 0x18
 1109 00f7 8E       		.byte	0x8e
 1110 00f8 01       		.uleb128 0x1
ARM GAS  C:\DOCUME~1\TECHCO~1\LOCALS~1\Temp/ccUFaaaa.s 			page 27


 1111 00f9 88       		.byte	0x88
 1112 00fa 02       		.uleb128 0x2
 1113 00fb 87       		.byte	0x87
 1114 00fc 03       		.uleb128 0x3
 1115 00fd 86       		.byte	0x86
 1116 00fe 04       		.uleb128 0x4
 1117 00ff 85       		.byte	0x85
 1118 0100 05       		.uleb128 0x5
 1119 0101 84       		.byte	0x84
 1120 0102 06       		.uleb128 0x6
 1121 0103 00       		.align	2
 1122              	.LEFDE14:
 1123              	.LSFDE16:
 1124 0104 14000000 		.4byte	.LEFDE16-.LASFDE16
 1125              	.LASFDE16:
 1126 0108 00000000 		.4byte	.Lframe0
 1127 010c 3C070000 		.4byte	.LFB3
 1128 0110 20000000 		.4byte	.LFE3-.LFB3
 1129 0114 44       		.byte	0x4
 1130              		.4byte	.LCFI9-.LFB3
 1131 0115 0E       		.byte	0xe
 1132 0116 04       		.uleb128 0x4
 1133 0117 8E       		.byte	0x8e
 1134 0118 01       		.uleb128 0x1
 1135 0119 000000   		.align	2
 1136              	.LEFDE16:
 1137              	.LSFDE18:
 1138 011c 14000000 		.4byte	.LEFDE18-.LASFDE18
 1139              	.LASFDE18:
 1140 0120 00000000 		.4byte	.Lframe0
 1141 0124 5C070000 		.4byte	.LFB2
 1142 0128 D4000000 		.4byte	.LFE2-.LFB2
 1143 012c 44       		.byte	0x4
 1144              		.4byte	.LCFI10-.LFB2
 1145 012d 0E       		.byte	0xe
 1146 012e 08       		.uleb128 0x8
 1147 012f 8E       		.byte	0x8e
 1148 0130 01       		.uleb128 0x1
 1149 0131 84       		.byte	0x84
 1150 0132 02       		.uleb128 0x2
 1151 0133 00       		.align	2
 1152              	.LEFDE18:
 1153              		.file 2 "molecubePacket.h"
 1154              		.file 3 "C:\\WinARM\\armlib/armlibtypes.h"
 1155              		.file 4 "C:\\WinARM\\armlib/buffer.h"
 1156              		.text
 1157              	.Letext0: