ARM GAS  C:\DOCUME~1\TECHCO~1\LOCALS~1\Temp/ccQdbaaa.s 			page 1


   1              		.file	"morphology.c"
   8 0000 AA030000 		.text
   8      02000401 
   8      00000201 
   8      FB0E0A00 
   8      01010101 
   9              	.Ltext0:
  10              		.align	2
  11              		.global	bitCount
  12              		.type	bitCount, %function
  13              	bitCount:
  14              	.LFB6:
  15              		.file 1 "morphology.c"
   1:morphology.c  **** #include <stdlib.h>
   2:morphology.c  **** #include <stdarg.h>
   3:morphology.c  **** #include "runtime.h"
   4:morphology.c  **** #include "morphology.h"
   5:morphology.c  **** #include "telemetryChannels.h"
   6:morphology.c  **** #include "molecubePacket.h"
   7:morphology.c  **** #include "uartintr.h"
   8:morphology.c  **** #include "rprintf.h"
   9:morphology.c  **** #include "commands.h"
  10:morphology.c  **** 
  11:morphology.c  **** /// TODO: open response handler which does not compare expected addr and class type, only checks ch
  12:morphology.c  **** 
  13:morphology.c  **** /// TODO: update uartintr copy on wiki, the local version has been modified with uartgetbuffer meth
  14:morphology.c  **** int buildMorphology(MMORPH *morphology)
  15:morphology.c  **** {
  16:morphology.c  **** 	u08 targetID;
  17:morphology.c  **** 	u08 targetClass;
  18:morphology.c  **** 	u08 ac; // address counter
  19:morphology.c  **** 	u08 sc; // side counter
  20:morphology.c  **** 	u08 returnval;
  21:morphology.c  **** 	// send command to avr controller master, verify response of device 0x00:0xFC
  22:morphology.c  **** 
  23:morphology.c  **** 	// initialize target & ac
  24:morphology.c  **** 	targetID = 0x00; // hardcoded controller
  25:morphology.c  **** 	targetClass = 0xFC; // controller master class
  26:morphology.c  **** 	ac = targetID + 1;
  27:morphology.c  **** 
  28:morphology.c  **** 	morphology->cubecount = 0;
  29:morphology.c  **** 	morphology->cubes = NULL;
  30:morphology.c  **** 	morphology->statecount = 0;
  31:morphology.c  **** 	morphology->states = NULL;
  32:morphology.c  **** 
  33:morphology.c  **** 	// initialize controller cube entry
  34:morphology.c  **** 	if(insertNewCubeEntry(morphology, targetID, targetClass))
  35:morphology.c  **** 		return ORIENTATION_ERROR_CANNOT_CREATE_CUBE;
  36:morphology.c  **** 
  37:morphology.c  **** 	while(targetID < ac)
  38:morphology.c  **** 	{
ARM GAS  C:\DOCUME~1\TECHCO~1\LOCALS~1\Temp/ccQdbaaa.s 			page 2


  39:morphology.c  **** 		// update targetClass from developed morphology entry
  40:morphology.c  **** 		MCUBE *next = getCube(morphology, targetID);
  41:morphology.c  **** 		if(next == NULL)
  42:morphology.c  **** 			return ORIENTATION_NO_DEVICE_FOUND;
  43:morphology.c  **** 		targetClass = next->cubeclass;
  44:morphology.c  **** 
  45:morphology.c  **** 		for(sc = 0; sc < 6; sc++)
  46:morphology.c  **** 		{
  47:morphology.c  **** 			
  48:morphology.c  **** 			rprintf("ID ");
  49:morphology.c  **** 			rprintfu08(targetID);
  50:morphology.c  **** 			rprintfCRLF();
  51:morphology.c  **** 			rprintf("Class ");
  52:morphology.c  **** 			rprintfu08(targetClass);
  53:morphology.c  **** 			rprintfCRLF();
  54:morphology.c  **** 			rprintf("Side ");
  55:morphology.c  **** 			rprintfu08(sc);
  56:morphology.c  **** 			rprintfCRLF();
  57:morphology.c  **** 			
  58:morphology.c  **** 			// is cube already defined?
  59:morphology.c  **** 			// this must always be true, otherwise we have a major problem
  60:morphology.c  **** 			// need this value to narrow search for dupe link
  61:morphology.c  **** 			MCUBE *cube = NULL;
  62:morphology.c  **** 			if((cube = getCube(morphology, targetID)) == NULL)
  63:morphology.c  **** 				return ORIENTATION_NO_DEVICE_FOUND;
  64:morphology.c  **** 
  65:morphology.c  **** 			// is link already defined?
  66:morphology.c  **** 			// this is needed to prevent duplicated discovery of link
  67:morphology.c  **** 			CUBELINKS *link;
  68:morphology.c  **** 			link = getCubeLink(cube, sc);
  69:morphology.c  **** 			if(link != NULL)
  70:morphology.c  **** 			{
  71:morphology.c  **** 				// link already exists skip this side
  72:morphology.c  **** 				continue;
  73:morphology.c  **** 			}
  74:morphology.c  **** 			// link does not exist we can continue
  75:morphology.c  **** 			
  76:morphology.c  **** 			rprintf("test1\n\r");
  77:morphology.c  **** 			// set orientation pin on target sc
  78:morphology.c  **** 			returnval = setOrientationPin_AR(ORIENTATION_CMD_RETRY_COUNT, targetID, targetClass, sc, SIDEPIN
  79:morphology.c  **** 			if(returnval == ORIENTATION_SIDE_NOT_PRESENT)
  80:morphology.c  **** 			{ // side is not valid or present
  81:morphology.c  **** 				printExternalCommand();
  82:morphology.c  **** 				printOrientationErrorCode(returnval);
  83:morphology.c  **** 				continue; // skip this side
  84:morphology.c  **** 			} else if(returnval) {
  85:morphology.c  **** 				printOrientationErrorCode(returnval);
  86:morphology.c  **** 				printExternalCommand();
  87:morphology.c  **** 				return ORIENTATION_ERROR_CANNOT_SET_PIN;
  88:morphology.c  **** 			}
  89:morphology.c  **** 			
  90:morphology.c  **** 			rprintf("test2\n\r");
  91:morphology.c  **** 
  92:morphology.c  **** 			// broadcast query orientation pin details
  93:morphology.c  **** 			u08 side, pin;
  94:morphology.c  **** 			returnval = broadcastGetOrientationPins_AR(ORIENTATION_CMD_RETRY_COUNT, &side, &pin);
  95:morphology.c  **** 			
ARM GAS  C:\DOCUME~1\TECHCO~1\LOCALS~1\Temp/ccQdbaaa.s 			page 3


  96:morphology.c  **** 			if(returnval == ORIENTATION_NOERROR) // no timeout, update Link Entry
  97:morphology.c  **** 			{
  98:morphology.c  **** 				/*
  99:morphology.c  **** 				// This data refers to self
 100:morphology.c  **** 				targetID
 101:morphology.c  **** 				targetClass
 102:morphology.c  **** 				sc
 103:morphology.c  **** 				SIDEPIN0
 104:morphology.c  **** 
 105:morphology.c  **** 				// This data refers to neighbor cube
 106:morphology.c  **** 				ext_busRxPkt.id
 107:morphology.c  **** 				ext_busRxPkt.devclass
 108:morphology.c  **** 				side
 109:morphology.c  **** 				pin
 110:morphology.c  **** 				
 111:morphology.c  **** 				both self and target links need to be created,
 112:morphology.c  **** 				because target responds, we know it has been assigned an address and
 113:morphology.c  **** 				therefore a morphology entry exists for this device
 114:morphology.c  **** 
 115:morphology.c  **** 				*/
 116:morphology.c  **** 				printOrientationErrorCode(returnval);
 117:morphology.c  **** 				printExternalCommand();
 118:morphology.c  **** 				if(insertNewLinkEntry(morphology, 
 119:morphology.c  **** 						targetID, targetClass, sc, SIDEPIN0,
 120:morphology.c  **** 						ext_busRxPkt.id, ext_busRxPkt.devclass, side, pin))
 121:morphology.c  **** 					return ORIENTATION_ERROR_PARAMETERS;
 122:morphology.c  **** 				continue; // increment sc and continue
 123:morphology.c  **** 
 124:morphology.c  **** 			} else if (returnval != ORIENTATION_ERROR_TIMEOUT)
 125:morphology.c  **** 			{
 126:morphology.c  **** 				printOrientationErrorCode(returnval);
 127:morphology.c  **** 				printExternalCommand();
 128:morphology.c  **** 				return ORIENTATION_ERROR_ON_TARGET_CUBE;
 129:morphology.c  **** 			}
 130:morphology.c  **** 			// timeout has occurred, no known cube at this location
 131:morphology.c  **** 			rprintf("test2.5\n\r");
 132:morphology.c  **** 			// broadcast set address with orientation pin to determine if new cube is present
 133:morphology.c  **** 			returnval = broadcastSetAddressWithOrientationPin_AR(ORIENTATION_CMD_RETRY_COUNT, ac);
 134:morphology.c  **** 
 135:morphology.c  **** 			if(returnval == ORIENTATION_ERROR_TIMEOUT) // no cube is present here
 136:morphology.c  **** 			{
 137:morphology.c  **** 				// unset orientation pin and continue
 138:morphology.c  **** 				rprintf("test3\n\r");
 139:morphology.c  **** 				
 140:morphology.c  **** 				returnval = setOrientationPin_AR(ORIENTATION_CMD_RETRY_COUNT, targetID, targetClass, sc, SIDEPI
 141:morphology.c  **** 				if(returnval)
 142:morphology.c  **** 				{
 143:morphology.c  **** 					return ORIENTATION_ERROR_CANNOT_SET_PIN;
 144:morphology.c  **** 				}
 145:morphology.c  **** 				rprintf("test4\n\r");
 146:morphology.c  **** 				continue;
 147:morphology.c  **** 			} else if (returnval != ORIENTATION_NOERROR)
 148:morphology.c  **** 			{
 149:morphology.c  **** 				printOrientationErrorCode(returnval);
 150:morphology.c  **** 				printExternalCommand();
 151:morphology.c  **** 				return ORIENTATION_ERROR_ON_TARGET_CUBE;
 152:morphology.c  **** 			} 
ARM GAS  C:\DOCUME~1\TECHCO~1\LOCALS~1\Temp/ccQdbaaa.s 			page 4


 153:morphology.c  **** 			rprintf("test5\n\r");
 154:morphology.c  **** 			u08 newCubeID = ext_busRxPkt.id;
 155:morphology.c  **** 			u08 newCubeClass = ext_busRxPkt.devclass;
 156:morphology.c  **** 
 157:morphology.c  **** 			// new cube address properly set, new cube morphology entry needs to be created
 158:morphology.c  **** 			if(insertNewCubeEntry(morphology, newCubeID, newCubeClass))
 159:morphology.c  **** 				return ORIENTATION_ERROR_CANNOT_CREATE_CUBE;
 160:morphology.c  **** 			rprintf("test6\n\r");
 161:morphology.c  **** 			// query orientation pin details on new cube
 162:morphology.c  **** 			if((returnval = getOrientationPins_AR(ORIENTATION_CMD_RETRY_COUNT, newCubeID, newCubeClass, &sid
 163:morphology.c  **** 			{
 164:morphology.c  **** 				rprintf("ID: ");
 165:morphology.c  **** 				rprintfu08(newCubeID);
 166:morphology.c  **** 				rprintfCRLF();
 167:morphology.c  **** 				rprintf("Class: ");
 168:morphology.c  **** 				rprintfu08(newCubeClass);
 169:morphology.c  **** 				rprintfCRLF();
 170:morphology.c  **** 				printOrientationErrorCode(returnval);
 171:morphology.c  **** 				printExternalCommand();
 172:morphology.c  **** 				return ORIENTATION_ERROR_ON_TARGET_CUBE;
 173:morphology.c  **** 			}
 174:morphology.c  **** 			rprintf("test7\n\r");
 175:morphology.c  **** 			// update link entry
 176:morphology.c  **** 			if((returnval = insertNewLinkEntry(morphology, 
 177:morphology.c  **** 						targetID, targetClass, sc, SIDEPIN0,
 178:morphology.c  **** 						newCubeID, newCubeClass, side, pin)))
 179:morphology.c  **** 			{
 180:morphology.c  **** 				printOrientationErrorCode(returnval);
 181:morphology.c  **** 				printExternalCommand();
 182:morphology.c  **** 				return ORIENTATION_ERROR_PARAMETERS;
 183:morphology.c  **** 			}
 184:morphology.c  **** 			rprintf("test8\n\r");
 185:morphology.c  **** 			// use device class of new cube to determine how to set initial state
 186:morphology.c  **** 			returnval = setInitialState(morphology, newCubeID, newCubeClass);
 187:morphology.c  **** 			if(returnval != ORIENTATION_UNKNOWN_CLASS &&
 188:morphology.c  **** 				returnval != ORIENTATION_NOERROR)
 189:morphology.c  **** 			{
 190:morphology.c  **** 				printOrientationErrorCode(returnval);
 191:morphology.c  **** 				printExternalCommand();
 192:morphology.c  **** 				return ORIENTATION_ERROR_CANNOT_SET_STATE;
 193:morphology.c  **** 			}
 194:morphology.c  **** 			// increment ac
 195:morphology.c  **** 			ac++;
 196:morphology.c  **** 
 197:morphology.c  **** 			// unset orientation pin on target SC side
 198:morphology.c  **** 			rprintf("test9\n\r");
 199:morphology.c  **** 			if(setOrientationPin_AR(ORIENTATION_CMD_RETRY_COUNT, targetID, targetClass, sc, SIDEPIN0, ORIENT
 200:morphology.c  **** 				return ORIENTATION_ERROR_CANNOT_SET_PIN;
 201:morphology.c  **** 			rprintf("test10\n\r");
 202:morphology.c  **** 		}
 203:morphology.c  **** 		targetID++; // increment target
 204:morphology.c  **** 	}
 205:morphology.c  **** 
 206:morphology.c  **** 	// iterate through all cubes in mesh and activate internal control loop
 207:morphology.c  **** 	if(enableAngleTracking(morphology))
 208:morphology.c  **** 	{
 209:morphology.c  **** 		rprintf("Error: Cannot enable tracking mode\n");
ARM GAS  C:\DOCUME~1\TECHCO~1\LOCALS~1\Temp/ccQdbaaa.s 			page 5


 210:morphology.c  **** 		return ORIENTATION_ERROR_CANNOT_SET_STATE;
 211:morphology.c  **** 	}
 212:morphology.c  **** 
 213:morphology.c  **** 	return ORIENTATION_NOERROR; // morphology successfully established
 214:morphology.c  **** }
 215:morphology.c  **** 
 216:morphology.c  **** int broadcastGetOrientationPins_AR(u08 rcount, u08 *side, u08 *pin)
 217:morphology.c  **** {
 218:morphology.c  **** 	u08 i;
 219:morphology.c  **** 	int retval;
 220:morphology.c  **** 	for(i=0; i<rcount; i++)
 221:morphology.c  **** 	{
 222:morphology.c  **** 		retval = broadcastGetOrientationPins(side, pin);
 223:morphology.c  **** 		if(retval != ORIENTATION_ERROR_TIMEOUT)
 224:morphology.c  **** 			return retval;
 225:morphology.c  **** 	}
 226:morphology.c  **** 	return ORIENTATION_ERROR_TIMEOUT;
 227:morphology.c  **** }
 228:morphology.c  **** 
 229:morphology.c  **** int broadcastGetOrientationPins(u08 *side, u08 *pin)
 230:morphology.c  **** {
 231:morphology.c  **** 	cmd_BuildPacket(BROADCAST_CLASS, 0x00, 0x09, 0, NULL);
 232:morphology.c  **** 	cmd_Execute(EXTERNAL_SERIAL);
 233:morphology.c  **** 
 234:morphology.c  **** 	u32 a = 0;
 235:morphology.c  **** 	while ((packetRxProcess_NoAddrClassCheck(EXTERNAL_SERIAL, 
 236:morphology.c  **** 		uartGetRxBuffer(EXTERNAL_SERIAL)) == FALSE) && 
 237:morphology.c  **** 		(a < CMD_RESPONSE_TIMEOUT))
 238:morphology.c  **** 	{	a++; }
 239:morphology.c  **** 	if (a < CMD_RESPONSE_TIMEOUT) // timeout has not occurred
 240:morphology.c  **** 	{
 241:morphology.c  **** 		if((ext_busRxPkt.paramCnt == 3) && 
 242:morphology.c  **** 			(ext_busRxPkt.cmd == 0x09))
 243:morphology.c  **** 		{
 244:morphology.c  **** 			u08 sum = bitCount(ext_busRxPkt.paramCnt, ext_busRxPkt.params);
 245:morphology.c  **** 
 246:morphology.c  **** 			if(sum > 1)
 247:morphology.c  **** 				return ORIENTATION_ERROR_INVALID_PIN_COMBO;
 248:morphology.c  **** 			else if(sum == 0)
 249:morphology.c  **** 				return ORIENTATION_NO_DEVICE_FOUND; // device should not respond in the first place here
 250:morphology.c  **** 
 251:morphology.c  **** 			if(processGetOrientationPins(ext_busRxPkt.params, side, pin))
 252:morphology.c  **** 				return ORIENTATION_ERROR_INVALID_PIN_COMBO;
 253:morphology.c  **** 
 254:morphology.c  **** 			return ORIENTATION_NOERROR; // device found
 255:morphology.c  **** 		}
 256:morphology.c  **** 		else
 257:morphology.c  **** 		{
 258:morphology.c  **** 			printExternalCommand();
 259:morphology.c  **** 			return ORIENTATION_ERROR_ON_TARGET_CUBE; // error has occurred on target cube
 260:morphology.c  **** 		}
 261:morphology.c  **** 	} else { // timeout has occurred
 262:morphology.c  **** 		return ORIENTATION_ERROR_TIMEOUT;
 263:morphology.c  **** 	}
 264:morphology.c  **** }
 265:morphology.c  **** 
 266:morphology.c  **** int getOrientationPins_AR(u08 rcount, u08 targetID, u08 targetClass, u08 *side, u08 *pin)
ARM GAS  C:\DOCUME~1\TECHCO~1\LOCALS~1\Temp/ccQdbaaa.s 			page 6


 267:morphology.c  **** {
 268:morphology.c  **** 	u08 i;
 269:morphology.c  **** 	int retval;
 270:morphology.c  **** 	for(i=0; i<rcount; i++)
 271:morphology.c  **** 	{
 272:morphology.c  **** 		retval = getOrientationPins(targetID, targetClass, side, pin);
 273:morphology.c  **** 		if(retval != ORIENTATION_ERROR_TIMEOUT)
 274:morphology.c  **** 			return retval;
 275:morphology.c  **** 	}
 276:morphology.c  **** 	return ORIENTATION_ERROR_TIMEOUT;
 277:morphology.c  **** }
 278:morphology.c  **** 
 279:morphology.c  **** int bitCount(u08 param_count, u08 *params)
 280:morphology.c  **** {
  16              		.loc 1 280 0
  17              		@ args = 0, pretend = 0, frame = 0
  18              		@ frame_needed = 0, uses_anonymous_args = 0
  19              	.LVL0:
  20 0000 10402DE9 		stmfd	sp!, {r4, lr}
  21              	.LCFI0:
  22 0004 0140A0E1 		mov	r4, r1
 281:morphology.c  **** 	int sum = 0;
 282:morphology.c  **** 	u08 i,j;
 283:morphology.c  **** 	for(i=0; i<param_count; i++)
  23              		.loc 1 283 0
  24 0008 FF1010E2 		ands	r1, r0, #255
  25              	.LVL1:
  26 000c 0100A001 		moveq	r0, r1
  27              	.LVL2:
  28 0010 1080BD08 		ldmeqfd	sp!, {r4, pc}
  29 0014 0F0000EA 		b	.L2
  30              	.LVL3:
  31              	.L5:
 284:morphology.c  **** 	{
 285:morphology.c  **** 		for(j=0; j<8; j++)
 286:morphology.c  **** 		{
 287:morphology.c  **** 			sum += ((params[i] >> j) & 0x01);
  32              		.loc 1 287 0
  33 0018 5C32A0E1 		mov	r3, ip, asr r2
  34 001c 013003E2 		and	r3, r3, #1
  35 0020 030080E0 		add	r0, r0, r3
  36 0024 012082E2 		add	r2, r2, #1
  37              		.loc 1 285 0
  38 0028 080052E3 		cmp	r2, #8
  39 002c 0400001A 		bne	.L5
  40              		.loc 1 283 0
  41 0030 01308EE2 		add	r3, lr, #1
  42 0034 FFE003E2 		and	lr, r3, #255
  43 0038 0E0051E1 		cmp	r1, lr
  44 003c 1080BD08 		ldmeqfd	sp!, {r4, pc}
  45 0040 110000EA 		b	.L7
  46              	.LVL4:
  47              	.L2:
  48 0044 0000A0E3 		mov	r0, #0
  49 0048 00E0A0E1 		mov	lr, r0
  50              	.LVL5:
  51              	.L7:
ARM GAS  C:\DOCUME~1\TECHCO~1\LOCALS~1\Temp/ccQdbaaa.s 			page 7


  52              		.loc 1 287 0
  53 004c 04C0DEE7 		ldrb	ip, [lr, r4]	@ zero_extendqisi2
  54 0050 0020A0E3 		mov	r2, #0
  55 0054 040000EA 		b	.L5
  56              	.LFE6:
  57              		.size	bitCount, .-bitCount
  58              		.align	2
  59              		.global	processGetOrientationPins
  60              		.type	processGetOrientationPins, %function
  61              	processGetOrientationPins:
  62              	.LFB8:
 288:morphology.c  **** 		}
 289:morphology.c  **** 	}
 290:morphology.c  **** 	return sum;
 291:morphology.c  **** }
 292:morphology.c  **** 
 293:morphology.c  **** int getOrientationPins(u08 targetID, u08 targetClass, u08 *side, u08 *pin)
 294:morphology.c  **** {
 295:morphology.c  **** 	cmd_BuildPacket(targetClass, targetID, 0x09, 0, NULL);
 296:morphology.c  **** 	cmd_Execute(EXTERNAL_SERIAL);
 297:morphology.c  **** 
 298:morphology.c  **** 	u32 a = 0;
 299:morphology.c  **** 	while ((packetRxProcess(EXTERNAL_SERIAL, 
 300:morphology.c  **** 		targetClass, 
 301:morphology.c  **** 		targetID, 
 302:morphology.c  **** 		uartGetRxBuffer(EXTERNAL_SERIAL)) == FALSE) && 
 303:morphology.c  **** 		(a < CMD_RESPONSE_TIMEOUT))
 304:morphology.c  **** 	{	a++; }
 305:morphology.c  **** 	if (a < CMD_RESPONSE_TIMEOUT) // timeout has not occurred
 306:morphology.c  **** 	{
 307:morphology.c  **** 		if((ext_busRxPkt.paramCnt == 3) && 
 308:morphology.c  **** 			(ext_busRxPkt.cmd == 0x09))
 309:morphology.c  **** 		{
 310:morphology.c  **** 			u08 sum = bitCount(ext_busRxPkt.paramCnt, ext_busRxPkt.params);
 311:morphology.c  **** 
 312:morphology.c  **** 			if(sum > 1)
 313:morphology.c  **** 				return ORIENTATION_ERROR_INVALID_PIN_COMBO;
 314:morphology.c  **** 			else if(sum == 0)
 315:morphology.c  **** 				return ORIENTATION_NO_DEVICE_FOUND;
 316:morphology.c  **** 
 317:morphology.c  **** 			if(processGetOrientationPins(ext_busRxPkt.params, side, pin))
 318:morphology.c  **** 				return ORIENTATION_ERROR_INVALID_PIN_COMBO;
 319:morphology.c  **** 
 320:morphology.c  **** 			return ORIENTATION_NOERROR; // device found
 321:morphology.c  **** 		}
 322:morphology.c  **** 		else
 323:morphology.c  **** 			return ORIENTATION_ERROR_ON_TARGET_CUBE; // error has occurred on target cube
 324:morphology.c  **** 	} else // timeout has occurred
 325:morphology.c  **** 		return ORIENTATION_ERROR_TIMEOUT;
 326:morphology.c  **** }
 327:morphology.c  **** 
 328:morphology.c  **** int processGetOrientationPins(u08 *params, u08 *side, u08 *pin)
 329:morphology.c  **** {
  63              		.loc 1 329 0
  64              		@ args = 0, pretend = 0, frame = 0
  65              		@ frame_needed = 0, uses_anonymous_args = 0
  66              		@ link register save eliminated.
ARM GAS  C:\DOCUME~1\TECHCO~1\LOCALS~1\Temp/ccQdbaaa.s 			page 8


  67              	.LVL6:
  68              		@ lr needed for prologue
 330:morphology.c  **** 	u08 tmp_pins = 0x00;
 331:morphology.c  **** 
 332:morphology.c  **** 	if(params[0] & 0x0F) {
  69              		.loc 1 332 0
  70 0058 0030D0E5 		ldrb	r3, [r0, #0]	@ zero_extendqisi2
  71 005c 0F0013E3 		tst	r3, #15
  72 0060 1C00000A 		beq	.L13
 333:morphology.c  **** 		*side = 1; // Master Right
  73              		.loc 1 333 0
  74 0064 0130A0E3 		mov	r3, #1
  75 0068 0030C1E5 		strb	r3, [r1, #0]
 334:morphology.c  **** 		tmp_pins = (params[0] & 0x0F);
  76              		.loc 1 334 0
  77 006c 0030D0E5 		ldrb	r3, [r0, #0]	@ zero_extendqisi2
  78 0070 0F0003E2 		and	r0, r3, #15
  79              	.LVL7:
  80 0074 430000EA 		b	.L15
  81              	.LVL8:
  82              	.L13:
 335:morphology.c  **** 	} else if(params[0] & 0xF0) {
  83              		.loc 1 335 0
  84 0078 F00013E3 		tst	r3, #240
  85 007c 2300000A 		beq	.L16
 336:morphology.c  **** 		*side = 0; // Master Main
  86              		.loc 1 336 0
  87 0080 0030A0E3 		mov	r3, #0
  88 0084 0030C1E5 		strb	r3, [r1, #0]
 337:morphology.c  **** 		tmp_pins = (params[0] & 0xF0) >> 4;
  89              		.loc 1 337 0
  90 0088 0030D0E5 		ldrb	r3, [r0, #0]	@ zero_extendqisi2
  91 008c 2302A0E1 		mov	r0, r3, lsr #4
  92              	.LVL9:
  93 0090 430000EA 		b	.L15
  94              	.LVL10:
  95              	.L16:
 338:morphology.c  **** 	} else if(params[1] & 0x0F) {
  96              		.loc 1 338 0
  97 0094 01C080E2 		add	ip, r0, #1
  98 0098 0130D0E5 		ldrb	r3, [r0, #1]	@ zero_extendqisi2
  99 009c 0F0013E3 		tst	r3, #15
 100 00a0 2C00000A 		beq	.L18
 339:morphology.c  **** 		*side = 3; // Slave Main
 101              		.loc 1 339 0
 102 00a4 0330A0E3 		mov	r3, #3
 103 00a8 0030C1E5 		strb	r3, [r1, #0]
 340:morphology.c  **** 		tmp_pins = (params[1] & 0x0F);
 104              		.loc 1 340 0
 105 00ac 0130D0E5 		ldrb	r3, [r0, #1]	@ zero_extendqisi2
 106 00b0 0F0003E2 		and	r0, r3, #15
 107              	.LVL11:
 108 00b4 430000EA 		b	.L15
 109              	.LVL12:
 110              	.L18:
 341:morphology.c  **** 	} else if(params[1] & 0xF0) {
 111              		.loc 1 341 0
ARM GAS  C:\DOCUME~1\TECHCO~1\LOCALS~1\Temp/ccQdbaaa.s 			page 9


 112 00b8 F00013E3 		tst	r3, #240
 113 00bc 3300000A 		beq	.L20
 342:morphology.c  **** 		*side = 2; // Master Left
 114              		.loc 1 342 0
 115 00c0 0230A0E3 		mov	r3, #2
 116 00c4 0030C1E5 		strb	r3, [r1, #0]
 343:morphology.c  **** 		tmp_pins = (params[1] & 0xF0) >> 4;
 117              		.loc 1 343 0
 118 00c8 0030DCE5 		ldrb	r3, [ip, #0]	@ zero_extendqisi2
 119 00cc 2302A0E1 		mov	r0, r3, lsr #4
 120              	.LVL13:
 121 00d0 430000EA 		b	.L15
 122              	.LVL14:
 123              	.L20:
 344:morphology.c  **** 	} else if(params[2] & 0x0F) {
 124              		.loc 1 344 0
 125 00d4 02C080E2 		add	ip, r0, #2
 126 00d8 0230D0E5 		ldrb	r3, [r0, #2]	@ zero_extendqisi2
 127 00dc 0F0013E3 		tst	r3, #15
 128 00e0 3C00000A 		beq	.L22
 345:morphology.c  **** 		*side = 5; // Slave Left
 129              		.loc 1 345 0
 130 00e4 0530A0E3 		mov	r3, #5
 131 00e8 0030C1E5 		strb	r3, [r1, #0]
 346:morphology.c  **** 		tmp_pins = (params[2] & 0x0F);
 132              		.loc 1 346 0
 133 00ec 0230D0E5 		ldrb	r3, [r0, #2]	@ zero_extendqisi2
 134 00f0 0F0003E2 		and	r0, r3, #15
 135              	.LVL15:
 136 00f4 430000EA 		b	.L15
 137              	.LVL16:
 138              	.L22:
 347:morphology.c  **** 	} else if(params[2] & 0xF0) {
 139              		.loc 1 347 0
 140 00f8 F00013E3 		tst	r3, #240
 141 00fc 0600A003 		moveq	r0, #6
 142              	.LVL17:
 143 0100 1EFF2F01 		bxeq	lr
 348:morphology.c  **** 		*side = 4; // Slave Right
 144              		.loc 1 348 0
 145 0104 0430A0E3 		mov	r3, #4
 146 0108 0030C1E5 		strb	r3, [r1, #0]
 349:morphology.c  **** 		tmp_pins = (params[2] & 0xF0) >> 4;
 147              		.loc 1 349 0
 148 010c 0030DCE5 		ldrb	r3, [ip, #0]	@ zero_extendqisi2
 149 0110 2302A0E1 		mov	r0, r3, lsr #4
 150              	.LVL18:
 151              	.L15:
 152              	.LVL19:
 350:morphology.c  **** 	} else
 351:morphology.c  **** 		return ORIENTATION_ERROR_INVALID_PIN_COMBO;
 352:morphology.c  **** 	
 353:morphology.c  **** 	if(tmp_pins & 0x01)
 153              		.loc 1 353 0
 154 0114 010010E3 		tst	r0, #1
 354:morphology.c  **** 		*pin = 0;
 155              		.loc 1 354 0
ARM GAS  C:\DOCUME~1\TECHCO~1\LOCALS~1\Temp/ccQdbaaa.s 			page 10


 156 0118 0030A013 		movne	r3, #0
 157 011c 0030C215 		strneb	r3, [r2, #0]
 158 0120 0300A011 		movne	r0, r3
 159              		.loc 1 353 0
 160 0124 1EFF2F11 		bxne	lr
 355:morphology.c  **** 	else if(tmp_pins & 0x02)
 161              		.loc 1 355 0
 162 0128 020010E3 		tst	r0, #2
 356:morphology.c  **** 		*pin = 1;
 163              		.loc 1 356 0
 164 012c 0130A013 		movne	r3, #1
 165 0130 0030C215 		strneb	r3, [r2, #0]
 166 0134 0000A013 		movne	r0, #0
 167              		.loc 1 355 0
 168 0138 1EFF2F11 		bxne	lr
 357:morphology.c  **** 	else if(tmp_pins & 0x04)
 169              		.loc 1 357 0
 170 013c 040010E3 		tst	r0, #4
 358:morphology.c  **** 		*pin = 2;
 171              		.loc 1 358 0
 172 0140 0230A013 		movne	r3, #2
 173 0144 0030C215 		strneb	r3, [r2, #0]
 174 0148 0000A013 		movne	r0, #0
 175              		.loc 1 357 0
 176 014c 1EFF2F11 		bxne	lr
 359:morphology.c  **** 	else if(tmp_pins & 0x08)
 177              		.loc 1 359 0
 178 0150 080010E2 		ands	r0, r0, #8
 360:morphology.c  **** 		*pin = 3;
 179              		.loc 1 360 0
 180 0154 0330A013 		movne	r3, #3
 181 0158 0030C215 		strneb	r3, [r2, #0]
 182 015c 0000A013 		movne	r0, #0
 361:morphology.c  **** 
 362:morphology.c  **** 	return ORIENTATION_NOERROR; // device found
 363:morphology.c  **** }
 183              		.loc 1 363 0
 184 0160 1EFF2FE1 		bx	lr
 185              	.LFE8:
 186              		.size	processGetOrientationPins, .-processGetOrientationPins
 187              		.align	2
 188              		.global	getInitialState
 189              		.type	getInitialState, %function
 190              	getInitialState:
 191              	.LFB18:
 364:morphology.c  **** 
 365:morphology.c  **** int broadcastSetAddressWithOrientationPin_AR(u08 rcount, u08 address)
 366:morphology.c  **** {
 367:morphology.c  **** 	u08 i;
 368:morphology.c  **** 	int retval;
 369:morphology.c  **** 	for(i=0; i<rcount; i++)
 370:morphology.c  **** 	{
 371:morphology.c  **** 		retval = broadcastSetAddressWithOrientationPin(address);
 372:morphology.c  **** 		if(retval != ORIENTATION_ERROR_TIMEOUT)
 373:morphology.c  **** 			return retval;
 374:morphology.c  **** 	}
 375:morphology.c  **** 	return ORIENTATION_ERROR_TIMEOUT;
ARM GAS  C:\DOCUME~1\TECHCO~1\LOCALS~1\Temp/ccQdbaaa.s 			page 11


 376:morphology.c  **** }
 377:morphology.c  **** 
 378:morphology.c  **** int broadcastSetAddressWithOrientationPin(u08 address)
 379:morphology.c  **** {
 380:morphology.c  **** 	u08 params[1];
 381:morphology.c  **** 	params[0] = address;
 382:morphology.c  **** 
 383:morphology.c  **** 	cmd_BuildPacket(BROADCAST_CLASS, address, 0x04, 1, params);
 384:morphology.c  **** 	cmd_Execute(EXTERNAL_SERIAL);
 385:morphology.c  **** 	
 386:morphology.c  **** 	u32 a = 0;
 387:morphology.c  **** 	while ((packetRxProcess_NoAddrClassCheck(EXTERNAL_SERIAL, 
 388:morphology.c  **** 		uartGetRxBuffer(EXTERNAL_SERIAL)) == FALSE) && 
 389:morphology.c  **** 		(a < CMD_RESPONSE_TIMEOUT))
 390:morphology.c  **** 	{	a++; }
 391:morphology.c  **** 	if (a < CMD_RESPONSE_TIMEOUT) // timeout has not occurred
 392:morphology.c  **** 	{
 393:morphology.c  **** 		if((ext_busRxPkt.paramCnt == 0) && 
 394:morphology.c  **** 			(ext_busRxPkt.cmd == 0x04))
 395:morphology.c  **** 			return ORIENTATION_NOERROR; // no problem
 396:morphology.c  **** 		else
 397:morphology.c  **** 		{
 398:morphology.c  **** 			return ORIENTATION_ERROR_ON_TARGET_CUBE; // error has occurred on target cube
 399:morphology.c  **** 		}
 400:morphology.c  **** 	} else { // timeout has occurred
 401:morphology.c  **** 		return ORIENTATION_ERROR_TIMEOUT;
 402:morphology.c  **** 	}
 403:morphology.c  **** }
 404:morphology.c  **** 
 405:morphology.c  **** int getMeasuredAngle_AR(u08 rcount, u08 targetID, u08 targetClass, u16 *angle)
 406:morphology.c  **** {
 407:morphology.c  **** 	u08 i;
 408:morphology.c  **** 	int retval;
 409:morphology.c  **** 	for(i=0; i<rcount; i++)
 410:morphology.c  **** 	{
 411:morphology.c  **** 		retval = getMeasuredAngle(targetID, targetClass, angle);
 412:morphology.c  **** 		if(retval != ORIENTATION_ERROR_TIMEOUT)
 413:morphology.c  **** 			return retval;
 414:morphology.c  **** 	}
 415:morphology.c  **** 	return ORIENTATION_ERROR_TIMEOUT;
 416:morphology.c  **** }
 417:morphology.c  **** 
 418:morphology.c  **** int getMeasuredAngle(u08 targetID, u08 targetClass, u16 *angle)
 419:morphology.c  **** {
 420:morphology.c  **** 	cmd_BuildPacket(targetClass, targetID, 0x07, 0, NULL);
 421:morphology.c  **** 	cmd_Execute(EXTERNAL_SERIAL);
 422:morphology.c  **** 
 423:morphology.c  **** 	// determine response and return error codes if necessary
 424:morphology.c  **** 	u32 a = 0;
 425:morphology.c  **** 	while ((packetRxProcess(EXTERNAL_SERIAL, 
 426:morphology.c  **** 		targetClass, 
 427:morphology.c  **** 		targetID, 
 428:morphology.c  **** 		uartGetRxBuffer(EXTERNAL_SERIAL)) == FALSE) && 
 429:morphology.c  **** 		(a < CMD_RESPONSE_TIMEOUT))
 430:morphology.c  **** 	{	a++; }
 431:morphology.c  **** 	if (a < CMD_RESPONSE_TIMEOUT) // timeout has not occurred
 432:morphology.c  **** 	{
ARM GAS  C:\DOCUME~1\TECHCO~1\LOCALS~1\Temp/ccQdbaaa.s 			page 12


 433:morphology.c  **** 		if((ext_busRxPkt.paramCnt != 2) || 
 434:morphology.c  **** 			(ext_busRxPkt.cmd != 0x07))
 435:morphology.c  **** 			return ORIENTATION_ERROR_ON_TARGET_CUBE;
 436:morphology.c  **** 		*angle = (ext_busRxPkt.params[1] & 0x0F) << 8;
 437:morphology.c  **** 		*angle |= ext_busRxPkt.params[0];
 438:morphology.c  **** 		return ORIENTATION_NOERROR; // no problem
 439:morphology.c  **** 	} else { // timeout has occurred
 440:morphology.c  **** 		return ORIENTATION_ERROR_TIMEOUT;
 441:morphology.c  **** 	}
 442:morphology.c  **** }
 443:morphology.c  **** 
 444:morphology.c  **** int setOrientationPin_AR(u08 rcount, u08 targetID, u08 targetClass, u08 board, u08 pin, u08 state)
 445:morphology.c  **** {
 446:morphology.c  **** 	u08 i;
 447:morphology.c  **** 	int retval;
 448:morphology.c  **** 	for(i=0; i<rcount; i++)
 449:morphology.c  **** 	{
 450:morphology.c  **** 		retval = setOrientationPin(targetID, targetClass, board, pin, state);
 451:morphology.c  **** 		if(retval != ORIENTATION_ERROR_TIMEOUT)
 452:morphology.c  **** 			return retval;
 453:morphology.c  **** 	}
 454:morphology.c  **** 	return ORIENTATION_ERROR_TIMEOUT;
 455:morphology.c  **** }
 456:morphology.c  **** 
 457:morphology.c  **** int setOrientationPin(
 458:morphology.c  **** 					  u08 targetID, 
 459:morphology.c  **** 					  u08 targetClass, 
 460:morphology.c  **** 					  u08 board, 
 461:morphology.c  **** 					  u08 pin, 
 462:morphology.c  **** 					  u08 state
 463:morphology.c  **** 					  )
 464:morphology.c  **** {
 465:morphology.c  **** 	u08 params[1];
 466:morphology.c  **** 
 467:morphology.c  **** 	// handle errors
 468:morphology.c  **** 	if(board > 0x0F)
 469:morphology.c  **** 		return ORIENTATION_ERROR_PARAMETERS;
 470:morphology.c  **** 	if(pin > 0x03)
 471:morphology.c  **** 		return ORIENTATION_ERROR_PARAMETERS;
 472:morphology.c  **** 	if(state > 0x01)
 473:morphology.c  **** 		return ORIENTATION_ERROR_PARAMETERS;
 474:morphology.c  **** 
 475:morphology.c  **** 	params[0] = 0x00;
 476:morphology.c  **** 	params[0] |= (board & 0x0F) << 4;
 477:morphology.c  **** 	params[0] |= (pin & 0x03) << 2;
 478:morphology.c  **** 	params[0] |= (state & 0x01);
 479:morphology.c  **** 
 480:morphology.c  **** 	cmd_BuildPacket(targetClass, targetID, 0x08, 1, params);
 481:morphology.c  **** 	cmd_Execute(EXTERNAL_SERIAL);
 482:morphology.c  **** 
 483:morphology.c  **** 	// determine response and return error codes if necessary
 484:morphology.c  **** 	u32 a = 0;
 485:morphology.c  **** 	while ((packetRxProcess(EXTERNAL_SERIAL, 
 486:morphology.c  **** 		targetClass, 
 487:morphology.c  **** 		targetID, 
 488:morphology.c  **** 		uartGetRxBuffer(EXTERNAL_SERIAL)) == FALSE) && 
 489:morphology.c  **** 		(a < CMD_RESPONSE_TIMEOUT))
ARM GAS  C:\DOCUME~1\TECHCO~1\LOCALS~1\Temp/ccQdbaaa.s 			page 13


 490:morphology.c  **** 	{	a++; }
 491:morphology.c  **** 	if (a < CMD_RESPONSE_TIMEOUT) // timeout has not occurred
 492:morphology.c  **** 	{
 493:morphology.c  **** 		if((ext_busRxPkt.paramCnt == 0) && 
 494:morphology.c  **** 			(ext_busRxPkt.cmd == 0x08))
 495:morphology.c  **** 			return ORIENTATION_NOERROR; // no problem
 496:morphology.c  **** 		else if ((ext_busRxPkt.paramCnt == 1) && 
 497:morphology.c  **** 			(ext_busRxPkt.params[0] == 0x03)) {
 498:morphology.c  **** 			return ORIENTATION_SIDE_NOT_PRESENT; // side is not present, no problem
 499:morphology.c  **** 		} else {
 500:morphology.c  **** 			return ORIENTATION_ERROR_ON_TARGET_CUBE; // error has occurred on target cube
 501:morphology.c  **** 		}
 502:morphology.c  **** 	} else { // timeout has occurred
 503:morphology.c  **** 		return ORIENTATION_ERROR_TIMEOUT;
 504:morphology.c  **** 	}
 505:morphology.c  **** }
 506:morphology.c  **** 
 507:morphology.c  **** void printExternalCommand(void)
 508:morphology.c  **** {
 509:morphology.c  **** 	rprintf("ID ");
 510:morphology.c  **** 	rprintfu08(ext_busRxPkt.id);
 511:morphology.c  **** 	rprintfCRLF();
 512:morphology.c  **** 	rprintf("Class ");
 513:morphology.c  **** 	rprintfu08(ext_busRxPkt.devclass);
 514:morphology.c  **** 	rprintfCRLF();
 515:morphology.c  **** 	rprintf("Cmd ");
 516:morphology.c  **** 	rprintfu08(ext_busRxPkt.cmd);
 517:morphology.c  **** 	rprintfCRLF();
 518:morphology.c  **** 	rprintf("Params ");
 519:morphology.c  **** 	rprintfu08(ext_busRxPkt.paramCnt);
 520:morphology.c  **** 	rprintfCRLF();
 521:morphology.c  **** 	int i;
 522:morphology.c  **** 	for(i=0; i<ext_busRxPkt.paramCnt; i++)
 523:morphology.c  **** 	{
 524:morphology.c  **** 		rprintfu08(ext_busRxPkt.params[i]);
 525:morphology.c  **** 	}
 526:morphology.c  **** 	rprintfCRLF();
 527:morphology.c  **** }
 528:morphology.c  **** 
 529:morphology.c  **** // this method allows us to specify what an inital state means for various master classes
 530:morphology.c  **** int setInitialState(MMORPH *morph, u08 id, u08 devclass)
 531:morphology.c  **** {
 532:morphology.c  **** 	if(devclass == 0xFA) // Actuator master half (south)
 533:morphology.c  **** 	{
 534:morphology.c  **** 		u16 angle;
 535:morphology.c  **** 
 536:morphology.c  **** 		// query state on newly addressed device
 537:morphology.c  **** 		if(getMeasuredAngle_AR(ORIENTATION_CMD_RETRY_COUNT, id, devclass, &angle))
 538:morphology.c  **** 		{
 539:morphology.c  **** 			return ORIENTATION_ERROR_ON_TARGET_CUBE;
 540:morphology.c  **** 		}
 541:morphology.c  **** 		// only one initial state value, actuator position
 542:morphology.c  **** 		if(insertInitialState(morph, id, devclass, 0x00, (u32)angle)) 
 543:morphology.c  **** 			return ORIENTATION_ERROR_CANNOT_SET_STATE;
 544:morphology.c  **** 
 545:morphology.c  **** 		return ORIENTATION_NOERROR;
 546:morphology.c  **** 	}
ARM GAS  C:\DOCUME~1\TECHCO~1\LOCALS~1\Temp/ccQdbaaa.s 			page 14


 547:morphology.c  **** 	return ORIENTATION_UNKNOWN_CLASS;
 548:morphology.c  **** }
 549:morphology.c  **** 
 550:morphology.c  **** int insertInitialState(MMORPH *morph, u08 id, u08 devclass, u08 channel, u32 value)
 551:morphology.c  **** {
 552:morphology.c  **** 	if(getInitialState(morph, id, devclass, channel, NULL) != ORIENTATION_NO_STATE_FOUND)
 553:morphology.c  **** 		return ORIENTATION_ERROR_DUPLICATE_STATE;
 554:morphology.c  **** 
 555:morphology.c  **** 	morph->statecount++;
 556:morphology.c  **** 	if((morph->states = realloc(morph->states, morph->statecount*sizeof(STATEDESC))) == NULL)
 557:morphology.c  **** 		return ORIENTATION_ERROR_MEM_ALLOC;
 558:morphology.c  **** 
 559:morphology.c  **** 	STATEDESC *newState = &morph->states[morph->statecount-1];
 560:morphology.c  **** 
 561:morphology.c  **** 	newState->id = id;
 562:morphology.c  **** 	newState->cubeClass = devclass;
 563:morphology.c  **** 	newState->timestamp = 0; // initial state
 564:morphology.c  **** 	newState->channel = channel;
 565:morphology.c  **** 	newState->value = value;
 566:morphology.c  **** 
 567:morphology.c  **** 	return ORIENTATION_NOERROR; // no problem
 568:morphology.c  **** }
 569:morphology.c  **** 
 570:morphology.c  **** int getInitialState(MMORPH *morph, u08 id, u08 devclass, u08 channel, STATEDESC *state)
 571:morphology.c  **** {
 192              		.loc 1 571 0
 193              		@ args = 4, pretend = 0, frame = 0
 194              		@ frame_needed = 0, uses_anonymous_args = 0
 195              	.LVL20:
 196 0164 10402DE9 		stmfd	sp!, {r4, lr}
 197              	.LCFI1:
 198 0168 FF1001E2 		and	r1, r1, #255
 199 016c FFE002E2 		and	lr, r2, #255
 200 0170 FF4003E2 		and	r4, r3, #255
 572:morphology.c  **** 	int i;
 573:morphology.c  **** 	for(i=0; i<morph->statecount; i++)
 201              		.loc 1 573 0
 202 0174 042090E5 		ldr	r2, [r0, #4]
 203              	.LVL21:
 204 0178 0830D0E5 		ldrb	r3, [r0, #8]	@ zero_extendqisi2
 205              	.LVL22:
 206 017c 033CA0E1 		mov	r3, r3, asl #24
 207 0180 22C493E1 		orrs	ip, r3, r2, lsr #8
 208 0184 7400000A 		beq	.L37
 209 0188 082090E5 		ldr	r2, [r0, #8]
 210 018c 0C30D0E5 		ldrb	r3, [r0, #12]	@ zero_extendqisi2
 211 0190 033CA0E1 		mov	r3, r3, asl #24
 212 0194 220483E1 		orr	r0, r3, r2, lsr #8
 213              	.LVL23:
 214 0198 0020A0E3 		mov	r2, #0
 215              	.LVL24:
 216              	.L39:
 574:morphology.c  **** 	{
 575:morphology.c  **** 		if((morph->states[i].id == id) && 
 217              		.loc 1 575 0
 218 019c 0030D0E5 		ldrb	r3, [r0, #0]	@ zero_extendqisi2
 219 01a0 010053E1 		cmp	r3, r1
ARM GAS  C:\DOCUME~1\TECHCO~1\LOCALS~1\Temp/ccQdbaaa.s 			page 15


 220 01a4 7000001A 		bne	.L40
 221 01a8 0130D0E5 		ldrb	r3, [r0, #1]	@ zero_extendqisi2
 222 01ac 0E0053E1 		cmp	r3, lr
 223 01b0 7000001A 		bne	.L40
 224 01b4 0630D0E5 		ldrb	r3, [r0, #6]	@ zero_extendqisi2
 225 01b8 040053E1 		cmp	r3, r4
 226 01bc 7000001A 		bne	.L40
 227 01c0 0000A0E3 		mov	r0, #0
 228 01c4 1080BDE8 		ldmfd	sp!, {r4, pc}
 229              	.L40:
 230              		.loc 1 573 0
 231 01c8 012082E2 		add	r2, r2, #1
 232 01cc 0C0080E2 		add	r0, r0, #12
 233 01d0 0C0052E1 		cmp	r2, ip
 234 01d4 6500001A 		bne	.L39
 235              	.LVL25:
 236              	.L37:
 237 01d8 0C00A0E3 		mov	r0, #12
 238              	.LVL26:
 576:morphology.c  **** 			(morph->states[i].cubeClass == devclass) &&
 577:morphology.c  **** 			(morph->states[i].channel == channel))
 578:morphology.c  **** 		{
 579:morphology.c  **** 			state = &morph->states[i];
 580:morphology.c  **** 			return ORIENTATION_NOERROR;
 581:morphology.c  **** 		}
 582:morphology.c  **** 	}
 583:morphology.c  **** 	return ORIENTATION_NO_STATE_FOUND;
 584:morphology.c  **** }
 239              		.loc 1 584 0
 240 01dc 1080BDE8 		ldmfd	sp!, {r4, pc}
 241              	.LFE18:
 242              		.size	getInitialState, .-getInitialState
 243              		.align	2
 244              		.global	getCube
 245              		.type	getCube, %function
 246              	getCube:
 247              	.LFB19:
 585:morphology.c  **** 
 586:morphology.c  **** // This performs a sequential search for a cube with a matching id and class
 587:morphology.c  **** MCUBE *getCube(MMORPH *morph, u08 id)
 588:morphology.c  **** {
 248              		.loc 1 588 0
 249              		@ args = 0, pretend = 0, frame = 0
 250              		@ frame_needed = 0, uses_anonymous_args = 0
 251              	.LVL27:
 252 01e0 04E02DE5 		str	lr, [sp, #-4]!
 253              	.LCFI2:
 254 01e4 FF1001E2 		and	r1, r1, #255
 589:morphology.c  **** 	int i;
 590:morphology.c  **** 	for(i=0;i<morph->cubecount;i++)
 255              		.loc 1 590 0
 256 01e8 00E0D0E5 		ldrb	lr, [r0, #0]	@ zero_extendqisi2
 257 01ec 00005EE3 		cmp	lr, #0
 258 01f0 8D0000DA 		ble	.L48
 591:morphology.c  **** 	{
 592:morphology.c  **** 		if(morph->cubes[i].id == id)
 259              		.loc 1 592 0
ARM GAS  C:\DOCUME~1\TECHCO~1\LOCALS~1\Temp/ccQdbaaa.s 			page 16


 260 01f4 003090E5 		ldr	r3, [r0, #0]
 261 01f8 0420D0E5 		ldrb	r2, [r0, #4]	@ zero_extendqisi2
 262 01fc 022CA0E1 		mov	r2, r2, asl #24
 263 0200 230482E1 		orr	r0, r2, r3, lsr #8
 264              	.LVL28:
 265 0204 0030D0E5 		ldrb	r3, [r0, #0]	@ zero_extendqisi2
 266 0208 010053E1 		cmp	r3, r1
 267 020c 08C08012 		addne	ip, r0, #8
 268 0210 0020A013 		movne	r2, #0
 269              	.LVL29:
 270 0214 04F09D04 		ldreq	pc, [sp], #4
 271 0218 8A0000EA 		b	.L52
 272              	.L53:
 273 021c 0C00A0E1 		mov	r0, ip
 274 0220 0030DCE5 		ldrb	r3, [ip, #0]	@ zero_extendqisi2
 275 0224 08C08CE2 		add	ip, ip, #8
 276 0228 010053E1 		cmp	r3, r1
 277 022c 04F09D04 		ldreq	pc, [sp], #4
 278              	.L52:
 279              		.loc 1 590 0
 280 0230 012082E2 		add	r2, r2, #1
 281 0234 0E0052E1 		cmp	r2, lr
 282 0238 8500001A 		bne	.L53
 283              	.LVL30:
 284              	.L48:
 285 023c 0000A0E3 		mov	r0, #0
 286              	.LVL31:
 593:morphology.c  **** 		{
 594:morphology.c  **** 			return &morph->cubes[i];
 595:morphology.c  **** 		}
 596:morphology.c  **** 	}
 597:morphology.c  **** 	return NULL; // no device found
 598:morphology.c  **** }
 287              		.loc 1 598 0
 288 0240 04F09DE4 		ldr	pc, [sp], #4
 289              	.LFE19:
 290              		.size	getCube, .-getCube
 291              		.align	2
 292              		.global	getCubeState
 293              		.type	getCubeState, %function
 294              	getCubeState:
 295              	.LFB20:
 599:morphology.c  **** 
 600:morphology.c  **** STATEDESC *getCubeState(MMORPH *morph, MCUBE *cube, u08 channel)
 601:morphology.c  **** {
 296              		.loc 1 601 0
 297              		@ args = 0, pretend = 0, frame = 0
 298              		@ frame_needed = 0, uses_anonymous_args = 0
 299              	.LVL32:
 300 0244 10402DE9 		stmfd	sp!, {r4, lr}
 301              	.LCFI3:
 302 0248 FF4002E2 		and	r4, r2, #255
 602:morphology.c  **** 	int i;
 603:morphology.c  **** 	for(i=0; i<morph->statecount; i++)
 303              		.loc 1 603 0
 304 024c 042090E5 		ldr	r2, [r0, #4]
 305              	.LVL33:
ARM GAS  C:\DOCUME~1\TECHCO~1\LOCALS~1\Temp/ccQdbaaa.s 			page 17


 306 0250 0830D0E5 		ldrb	r3, [r0, #8]	@ zero_extendqisi2
 307 0254 033CA0E1 		mov	r3, r3, asl #24
 308 0258 22E493E1 		orrs	lr, r3, r2, lsr #8
 309 025c A700000A 		beq	.L56
 604:morphology.c  **** 	{
 605:morphology.c  **** 		if((morph->states[i].id == cube->id) &&
 310              		.loc 1 605 0
 311 0260 B010D1E1 		ldrh	r1, [r1, #0]
 312              	.LVL34:
 313 0264 082090E5 		ldr	r2, [r0, #8]
 314 0268 0C30D0E5 		ldrb	r3, [r0, #12]	@ zero_extendqisi2
 315 026c 033CA0E1 		mov	r3, r3, asl #24
 316 0270 222483E1 		orr	r2, r3, r2, lsr #8
 317 0274 00C0A0E3 		mov	ip, #0
 318              	.LVL35:
 319              	.L58:
 320 0278 0200A0E1 		mov	r0, r2
 321              	.LVL36:
 322 027c B030D2E1 		ldrh	r3, [r2, #0]
 323 0280 010053E1 		cmp	r3, r1
 324 0284 A300001A 		bne	.L59
 325 0288 0630D2E5 		ldrb	r3, [r2, #6]	@ zero_extendqisi2
 326 028c 040053E1 		cmp	r3, r4
 327 0290 1080BD08 		ldmeqfd	sp!, {r4, pc}
 328              	.L59:
 329              		.loc 1 603 0
 330 0294 01C08CE2 		add	ip, ip, #1
 331 0298 0C2082E2 		add	r2, r2, #12
 332 029c 0E005CE1 		cmp	ip, lr
 333 02a0 9C00001A 		bne	.L58
 334              	.LVL37:
 335              	.L56:
 336 02a4 0000A0E3 		mov	r0, #0
 337              	.LVL38:
 606:morphology.c  **** 			(morph->states[i].cubeClass == cube->cubeclass) &&
 607:morphology.c  **** 			(morph->states[i].channel == channel))
 608:morphology.c  **** 		{
 609:morphology.c  **** 			return &morph->states[i];
 610:morphology.c  **** 		}
 611:morphology.c  **** 	}
 612:morphology.c  **** 	return NULL;
 613:morphology.c  **** }
 338              		.loc 1 613 0
 339 02a8 1080BDE8 		ldmfd	sp!, {r4, pc}
 340              	.LFE20:
 341              		.size	getCubeState, .-getCubeState
 342              		.align	2
 343              		.global	getCubeLink
 344              		.type	getCubeLink, %function
 345              	getCubeLink:
 346              	.LFB21:
 614:morphology.c  **** 
 615:morphology.c  **** CUBELINKS *getCubeLink(MCUBE *cube, u08 selfSide)
 616:morphology.c  **** {
 347              		.loc 1 616 0
 348              		@ args = 0, pretend = 0, frame = 0
 349              		@ frame_needed = 0, uses_anonymous_args = 0
ARM GAS  C:\DOCUME~1\TECHCO~1\LOCALS~1\Temp/ccQdbaaa.s 			page 18


 350              	.LVL39:
 351 02ac 04E02DE5 		str	lr, [sp, #-4]!
 352              	.LCFI4:
 353 02b0 FF1001E2 		and	r1, r1, #255
 617:morphology.c  **** 	int i;
 618:morphology.c  **** 	for(i=0; i<cube->numlinks; i++)
 354              		.loc 1 618 0
 355 02b4 02E0D0E5 		ldrb	lr, [r0, #2]	@ zero_extendqisi2
 356 02b8 00005EE3 		cmp	lr, #0
 357 02bc BF0000DA 		ble	.L65
 619:morphology.c  **** 	{
 620:morphology.c  **** 		if(cube->clinks[i].selfSide == selfSide)
 358              		.loc 1 620 0
 359 02c0 0330D0E5 		ldrb	r3, [r0, #3]	@ zero_extendqisi2
 360 02c4 042090E5 		ldr	r2, [r0, #4]
 361 02c8 020483E1 		orr	r0, r3, r2, asl #8
 362              	.LVL40:
 363 02cc 0230D0E5 		ldrb	r3, [r0, #2]	@ zero_extendqisi2
 364 02d0 010053E1 		cmp	r3, r1
 365 02d4 08C08012 		addne	ip, r0, #8
 366 02d8 0020A013 		movne	r2, #0
 367              	.LVL41:
 368 02dc 04F09D04 		ldreq	pc, [sp], #4
 369 02e0 BC0000EA 		b	.L69
 370              	.L70:
 371 02e4 0C00A0E1 		mov	r0, ip
 372 02e8 0230DCE5 		ldrb	r3, [ip, #2]	@ zero_extendqisi2
 373 02ec 08C08CE2 		add	ip, ip, #8
 374 02f0 010053E1 		cmp	r3, r1
 375 02f4 04F09D04 		ldreq	pc, [sp], #4
 376              	.L69:
 377              		.loc 1 618 0
 378 02f8 012082E2 		add	r2, r2, #1
 379 02fc 0E0052E1 		cmp	r2, lr
 380 0300 B700001A 		bne	.L70
 381              	.LVL42:
 382              	.L65:
 383 0304 0000A0E3 		mov	r0, #0
 384              	.LVL43:
 621:morphology.c  **** 		{
 622:morphology.c  **** 			return &cube->clinks[i];
 623:morphology.c  **** 		}
 624:morphology.c  **** 	}
 625:morphology.c  **** 	return NULL;
 626:morphology.c  **** }
 385              		.loc 1 626 0
 386 0308 04F09DE4 		ldr	pc, [sp], #4
 387              	.LFE21:
 388              		.size	getCubeLink, .-getCubeLink
 389              		.align	2
 390              		.global	getPinOrientation
 391              		.type	getPinOrientation, %function
 392              	getPinOrientation:
 393              	.LFB24:
 627:morphology.c  **** 
 628:morphology.c  **** int insertNewCubeEntry(MMORPH *morph, u08 id, u08 devclass)
 629:morphology.c  **** {
ARM GAS  C:\DOCUME~1\TECHCO~1\LOCALS~1\Temp/ccQdbaaa.s 			page 19


 630:morphology.c  **** 	// does this cube already exist?
 631:morphology.c  **** 	if(getCube(morph, id) != NULL)
 632:morphology.c  **** 		return ORIENTATION_ERROR_DUPLICATE_CUBE;
 633:morphology.c  **** 
 634:morphology.c  **** 	// safe to create new cube
 635:morphology.c  **** 	morph->cubecount++;
 636:morphology.c  **** 	if((morph->cubes = realloc(morph->cubes, morph->cubecount*sizeof(MCUBE))) == NULL)
 637:morphology.c  **** 		return ORIENTATION_ERROR_MEM_ALLOC;
 638:morphology.c  **** 
 639:morphology.c  **** 	MCUBE *newCube = &morph->cubes[morph->cubecount-1];
 640:morphology.c  **** 
 641:morphology.c  **** 	newCube->id = id;
 642:morphology.c  **** 	newCube->cubeclass = devclass;
 643:morphology.c  **** 	newCube->numlinks = 0;
 644:morphology.c  **** 	newCube->clinks = NULL;
 645:morphology.c  **** 
 646:morphology.c  **** 	return ORIENTATION_NOERROR;
 647:morphology.c  **** }
 648:morphology.c  **** 
 649:morphology.c  **** // This function inserts a new link between two neighbor cubes
 650:morphology.c  **** int insertNewLinkEntry(MMORPH *morph, 
 651:morphology.c  **** 					   u08 cubeA_id, u08 cubeA_class, u08 cubeA_side, u08 cubeA_pin,
 652:morphology.c  **** 					   u08 cubeB_id, u08 cubeB_class, u08 cubeB_side, u08 cubeB_pin)
 653:morphology.c  **** {
 654:morphology.c  **** 	u08 orient;
 655:morphology.c  **** 	// decode orientation
 656:morphology.c  **** 	if(getPinOrientation(cubeA_pin, cubeB_pin, &orient))
 657:morphology.c  **** 		return ORIENTATION_ERROR_PARAMETERS;
 658:morphology.c  **** 
 659:morphology.c  **** 	MCUBE *cubeA = NULL;
 660:morphology.c  **** 	MCUBE *cubeB = NULL;
 661:morphology.c  **** 	
 662:morphology.c  **** 	// get pointer to cube A
 663:morphology.c  **** 	cubeA = getCube(morph, cubeA_id);
 664:morphology.c  **** 	if(cubeA == NULL)
 665:morphology.c  **** 		return ORIENTATION_NO_DEVICE_FOUND;
 666:morphology.c  **** 
 667:morphology.c  **** 	// get pointer to cube B
 668:morphology.c  **** 	cubeB = getCube(morph, cubeB_id);
 669:morphology.c  **** 	if(cubeB == NULL)
 670:morphology.c  **** 		return ORIENTATION_NO_DEVICE_FOUND;
 671:morphology.c  **** 
 672:morphology.c  **** 	if(getCubeLink(cubeA, cubeA_side) != NULL)
 673:morphology.c  **** 		return ORIENTATION_ERROR_DUPLICATE_CUBE_LINK;
 674:morphology.c  **** 
 675:morphology.c  **** 	if(getCubeLink(cubeB, cubeB_side) != NULL)
 676:morphology.c  **** 		return ORIENTATION_ERROR_DUPLICATE_CUBE_LINK;
 677:morphology.c  **** 	
 678:morphology.c  **** 	// no duplicate links exist, safe to create new link
 679:morphology.c  **** 	cubeA->numlinks++;
 680:morphology.c  **** 	if((cubeA->clinks = realloc(cubeA->clinks, cubeA->numlinks*sizeof(CUBELINKS))) == NULL)
 681:morphology.c  **** 		return ORIENTATION_ERROR_MEM_ALLOC;
 682:morphology.c  **** 
 683:morphology.c  **** 	cubeB->numlinks++;
 684:morphology.c  **** 	if((cubeB->clinks = realloc(cubeB->clinks, cubeB->numlinks*sizeof(CUBELINKS))) == NULL)
 685:morphology.c  **** 		return ORIENTATION_ERROR_MEM_ALLOC;
 686:morphology.c  **** 
ARM GAS  C:\DOCUME~1\TECHCO~1\LOCALS~1\Temp/ccQdbaaa.s 			page 20


 687:morphology.c  **** 	u08 newCubeIndexA = cubeA->numlinks-1;
 688:morphology.c  **** 	u08 newCubeIndexB = cubeB->numlinks-1;
 689:morphology.c  **** 
 690:morphology.c  **** 	cubeA->clinks[newCubeIndexA].selfID = cubeA_id;
 691:morphology.c  **** 	cubeA->clinks[newCubeIndexA].selfClass = cubeA_class;
 692:morphology.c  **** 	cubeA->clinks[newCubeIndexA].selfSide = cubeA_side;
 693:morphology.c  **** 	cubeA->clinks[newCubeIndexA].selfOrient = orient;
 694:morphology.c  **** 	cubeA->clinks[newCubeIndexA].neighborID = cubeB_id;
 695:morphology.c  **** 	cubeA->clinks[newCubeIndexA].neighborClass = cubeB_class;
 696:morphology.c  **** 	cubeA->clinks[newCubeIndexA].neighborSide = cubeB_side;
 697:morphology.c  **** 
 698:morphology.c  **** 	cubeB->clinks[newCubeIndexB].selfID = cubeB_id;
 699:morphology.c  **** 	cubeB->clinks[newCubeIndexB].selfClass = cubeB_class;
 700:morphology.c  **** 	cubeB->clinks[newCubeIndexB].selfSide = cubeB_side;
 701:morphology.c  **** 	cubeB->clinks[newCubeIndexB].selfOrient = orient;
 702:morphology.c  **** 	cubeB->clinks[newCubeIndexB].neighborID = cubeA_id;
 703:morphology.c  **** 	cubeB->clinks[newCubeIndexB].neighborClass = cubeA_class;
 704:morphology.c  **** 	cubeB->clinks[newCubeIndexB].neighborSide = cubeA_side;
 705:morphology.c  **** 
 706:morphology.c  **** 	return ORIENTATION_NOERROR;
 707:morphology.c  **** }
 708:morphology.c  **** 
 709:morphology.c  **** int getPinOrientation(u08 cubeA_pin, u08 cubeB_pin, u08 *orient)
 710:morphology.c  **** {
 394              		.loc 1 710 0
 395              		@ args = 0, pretend = 0, frame = 0
 396              		@ frame_needed = 0, uses_anonymous_args = 0
 397              	.LVL44:
 398 030c F0412DE9 		stmfd	sp!, {r4, r5, r6, r7, r8, lr}
 399              	.LCFI5:
 400 0310 FF1001E2 		and	r1, r1, #255
 711:morphology.c  **** 	if((cubeA_pin == SIDEPIN0 && cubeB_pin == SIDEPIN3) ||
 401              		.loc 1 711 0
 402 0314 FF0010E2 		ands	r0, r0, #255
 403 0318 0030A013 		movne	r3, #0
 404 031c 0130A003 		moveq	r3, #1
 405 0320 030051E3 		cmp	r1, #3
 406 0324 00C0A013 		movne	ip, #0
 407 0328 01C0A003 		moveq	ip, #1
 408 032c 0C0013E1 		tst	r3, ip
 409 0330 E200001A 		bne	.L73
 410 0334 010050E3 		cmp	r0, #1
 411 0338 00E0A013 		movne	lr, #0
 412 033c 01E0A003 		moveq	lr, #1
 413 0340 020051E3 		cmp	r1, #2
 414 0344 0040A013 		movne	r4, #0
 415 0348 0140A003 		moveq	r4, #1
 416 034c 04001EE1 		tst	lr, r4
 417 0350 E200001A 		bne	.L73
 418 0354 020050E3 		cmp	r0, #2
 419 0358 0070A013 		movne	r7, #0
 420 035c 0170A003 		moveq	r7, #1
 421 0360 010051E3 		cmp	r1, #1
 422 0364 0060A013 		movne	r6, #0
 423 0368 0160A003 		moveq	r6, #1
 424 036c 060017E1 		tst	r7, r6
 425 0370 E200001A 		bne	.L73
ARM GAS  C:\DOCUME~1\TECHCO~1\LOCALS~1\Temp/ccQdbaaa.s 			page 21


 426 0374 030050E3 		cmp	r0, #3
 427 0378 0080A013 		movne	r8, #0
 428 037c 0180A003 		moveq	r8, #1
 429 0380 015071E2 		rsbs	r5, r1, #1
 430 0384 0050A033 		movcc	r5, #0
 431 0388 050018E1 		tst	r8, r5
 432 038c E600000A 		beq	.L77
 433              	.L73:
 712:morphology.c  **** 		(cubeA_pin == SIDEPIN1 && cubeB_pin == SIDEPIN2) ||
 713:morphology.c  **** 		(cubeA_pin == SIDEPIN2 && cubeB_pin == SIDEPIN1) ||
 714:morphology.c  **** 		(cubeA_pin == SIDEPIN3 && cubeB_pin == SIDEPIN0))
 715:morphology.c  **** 	{ // orientation 0
 716:morphology.c  **** 		*orient = 0;
 434              		.loc 1 716 0
 435 0390 0030A0E3 		mov	r3, #0
 436 0394 0030C2E5 		strb	r3, [r2, #0]
 437 0398 0300A0E1 		mov	r0, r3
 438              	.LVL45:
 439 039c F081BDE8 		ldmfd	sp!, {r4, r5, r6, r7, r8, pc}
 440              	.LVL46:
 441              	.L77:
 717:morphology.c  **** 		return ORIENTATION_NOERROR;
 718:morphology.c  **** 	} else if((cubeA_pin == SIDEPIN0 && cubeB_pin == SIDEPIN2) ||
 442              		.loc 1 718 0
 443 03a0 040013E1 		tst	r3, r4
 444 03a4 EE00001A 		bne	.L79
 445 03a8 06001EE1 		tst	lr, r6
 446 03ac EE00001A 		bne	.L79
 447 03b0 050017E1 		tst	r7, r5
 448 03b4 EE00001A 		bne	.L79
 449 03b8 08001CE1 		tst	ip, r8
 450 03bc F200000A 		beq	.L83
 451              	.L79:
 719:morphology.c  **** 		(cubeA_pin == SIDEPIN1 && cubeB_pin == SIDEPIN1) ||
 720:morphology.c  **** 		(cubeA_pin == SIDEPIN2 && cubeB_pin == SIDEPIN0) ||
 721:morphology.c  **** 		(cubeA_pin == SIDEPIN3 && cubeB_pin == SIDEPIN3))
 722:morphology.c  **** 	{ // orientation 1
 723:morphology.c  **** 		*orient = 1;
 452              		.loc 1 723 0
 453 03c0 0130A0E3 		mov	r3, #1
 454 03c4 0030C2E5 		strb	r3, [r2, #0]
 455 03c8 0000A0E3 		mov	r0, #0
 456              	.LVL47:
 457 03cc F081BDE8 		ldmfd	sp!, {r4, r5, r6, r7, r8, pc}
 458              	.LVL48:
 459              	.L83:
 724:morphology.c  **** 		return ORIENTATION_NOERROR;
 725:morphology.c  **** 	} else if((cubeA_pin == SIDEPIN0 && cubeB_pin == SIDEPIN1) ||
 460              		.loc 1 725 0
 461 03d0 060013E1 		tst	r3, r6
 462 03d4 FA00001A 		bne	.L84
 463 03d8 05001EE1 		tst	lr, r5
 464 03dc FA00001A 		bne	.L84
 465 03e0 07001CE1 		tst	ip, r7
 466 03e4 FA00001A 		bne	.L84
 467 03e8 080014E1 		tst	r4, r8
 468 03ec FE00000A 		beq	.L88
ARM GAS  C:\DOCUME~1\TECHCO~1\LOCALS~1\Temp/ccQdbaaa.s 			page 22


 469              	.L84:
 726:morphology.c  **** 		(cubeA_pin == SIDEPIN1 && cubeB_pin == SIDEPIN0) ||
 727:morphology.c  **** 		(cubeA_pin == SIDEPIN2 && cubeB_pin == SIDEPIN3) ||
 728:morphology.c  **** 		(cubeA_pin == SIDEPIN3 && cubeB_pin == SIDEPIN2))
 729:morphology.c  **** 	{ // orientation 2
 730:morphology.c  **** 		*orient = 2;
 470              		.loc 1 730 0
 471 03f0 0230A0E3 		mov	r3, #2
 472 03f4 0030C2E5 		strb	r3, [r2, #0]
 473 03f8 0000A0E3 		mov	r0, #0
 474              	.LVL49:
 475 03fc F081BDE8 		ldmfd	sp!, {r4, r5, r6, r7, r8, pc}
 476              	.LVL50:
 477              	.L88:
 731:morphology.c  **** 		return ORIENTATION_NOERROR;
 732:morphology.c  **** 	} else if((cubeA_pin == SIDEPIN0 && cubeB_pin == SIDEPIN0) ||
 478              		.loc 1 732 0
 479 0400 010090E1 		orrs	r0, r0, r1
 480              	.LVL51:
 481 0404 0701000A 		beq	.L89
 482 0408 0E001CE1 		tst	ip, lr
 483 040c 0701001A 		bne	.L89
 484 0410 070014E1 		tst	r4, r7
 485 0414 0701001A 		bne	.L89
 486 0418 080016E1 		tst	r6, r8
 487 041c 0400A003 		moveq	r0, #4
 488 0420 F081BD08 		ldmeqfd	sp!, {r4, r5, r6, r7, r8, pc}
 489              	.L89:
 733:morphology.c  **** 		(cubeA_pin == SIDEPIN1 && cubeB_pin == SIDEPIN3) ||
 734:morphology.c  **** 		(cubeA_pin == SIDEPIN2 && cubeB_pin == SIDEPIN2) ||
 735:morphology.c  **** 		(cubeA_pin == SIDEPIN3 && cubeB_pin == SIDEPIN1))
 736:morphology.c  **** 	{ // orientation 3
 737:morphology.c  **** 		*orient = 3;
 490              		.loc 1 737 0
 491 0424 0330A0E3 		mov	r3, #3
 492 0428 0030C2E5 		strb	r3, [r2, #0]
 493 042c 0000A0E3 		mov	r0, #0
 738:morphology.c  **** 		return ORIENTATION_NOERROR;
 739:morphology.c  **** 	} else
 740:morphology.c  **** 		return ORIENTATION_ERROR_PARAMETERS;
 741:morphology.c  **** }
 494              		.loc 1 741 0
 495 0430 F081BDE8 		ldmfd	sp!, {r4, r5, r6, r7, r8, pc}
 496              	.LFE24:
 497              		.size	getPinOrientation, .-getPinOrientation
 498              		.align	2
 499              		.global	checksum_calc
 500              		.type	checksum_calc, %function
 501              	checksum_calc:
 502              	.LFB29:
 742:morphology.c  **** 
 743:morphology.c  **** int enableAngleTracking(MMORPH *morph)
 744:morphology.c  **** {
 745:morphology.c  **** 	int i;
 746:morphology.c  **** 	int error_code;
 747:morphology.c  **** 	
 748:morphology.c  **** 	for(i=0; i<morph->cubecount; i++)
ARM GAS  C:\DOCUME~1\TECHCO~1\LOCALS~1\Temp/ccQdbaaa.s 			page 23


 749:morphology.c  **** 	{
 750:morphology.c  **** 		if(morph->cubes[i].cubeclass == 0xFA)
 751:morphology.c  **** 		{
 752:morphology.c  **** 			STATEDESC *state = getCubeState(morph, &morph->cubes[i], ACTUATOR_POSITION);
 753:morphology.c  **** 			if(state == NULL)
 754:morphology.c  **** 				return ORIENTATION_NO_STATE_FOUND;
 755:morphology.c  **** 			
 756:morphology.c  **** 			// set initial target position to position which was sensed during morphology generation
 757:morphology.c  **** 			if((error_code = setServoSpeedAndAngle(morph->cubes[i].id, morph->cubes[i].cubeclass, state->val
 758:morphology.c  **** 			{
 759:morphology.c  **** 				printCommandErrorCode(error_code);
 760:morphology.c  **** 				return ORIENTATION_ERROR_ON_TARGET_CUBE;
 761:morphology.c  **** 			}
 762:morphology.c  **** 
 763:morphology.c  **** 			// enable control loop internal to actuator cubes, this results in high packet loss and is there
 764:morphology.c  **** 			if((error_code = setServoAngleTracking(morph->cubes[i].id, morph->cubes[i].cubeclass, ANGLE_TRAC
 765:morphology.c  **** 			{	
 766:morphology.c  **** 				printCommandErrorCode(error_code);
 767:morphology.c  **** 				return ORIENTATION_ERROR_ON_TARGET_CUBE;
 768:morphology.c  **** 			}
 769:morphology.c  **** 		}
 770:morphology.c  **** 	}
 771:morphology.c  **** 	return ORIENTATION_NOERROR;
 772:morphology.c  **** }
 773:morphology.c  **** 
 774:morphology.c  **** int writeMorphologyToFile(char *filename)
 775:morphology.c  **** {
 776:morphology.c  **** 	int i,j;
 777:morphology.c  **** 	int ret;
 778:morphology.c  **** 	u08 cube_chksum = cube_checksum_generator();
 779:morphology.c  **** 	u08 state_chksum = state_checksum_generator();
 780:morphology.c  **** 
 781:morphology.c  **** 	if ( (ret = file_fopen( &filer, &efs.myFs , filename , 'w' )) )
 782:morphology.c  **** 		return ret;
 783:morphology.c  **** 
 784:morphology.c  **** 	if(file_write(&filer, sizeof(u08), &cubemorph.cubecount) != sizeof(u08))
 785:morphology.c  **** 		return 2;
 786:morphology.c  **** 	for(i=0; i<cubemorph.cubecount; i++)
 787:morphology.c  **** 	{
 788:morphology.c  **** 		if(file_write(&filer, sizeof(u08), &cubemorph.cubes[i].id) != sizeof(u08))
 789:morphology.c  **** 			return 2;
 790:morphology.c  **** 		if(file_write(&filer, sizeof(u08), &cubemorph.cubes[i].cubeclass) != sizeof(u08))
 791:morphology.c  **** 			return 2;
 792:morphology.c  **** 		if(file_write(&filer, sizeof(u08), &cubemorph.cubes[i].numlinks) != sizeof(u08))
 793:morphology.c  **** 			return 2;
 794:morphology.c  **** 		
 795:morphology.c  **** 		for(j=0; j<cubemorph.cubes[i].numlinks; j++)
 796:morphology.c  **** 		{
 797:morphology.c  **** 			if(file_write(&filer, sizeof(u08), &cubemorph.cubes[i].clinks[j].selfID) != sizeof(u08))
 798:morphology.c  **** 				return 3;
 799:morphology.c  **** 			if(file_write(&filer, sizeof(u08), &cubemorph.cubes[i].clinks[j].selfClass) != sizeof(u08))
 800:morphology.c  **** 				return 3;
 801:morphology.c  **** 			if(file_write(&filer, sizeof(u08), &cubemorph.cubes[i].clinks[j].selfSide) != sizeof(u08))
 802:morphology.c  **** 				return 3;
 803:morphology.c  **** 			if(file_write(&filer, sizeof(u08), &cubemorph.cubes[i].clinks[j].selfOrient) != sizeof(u08))
 804:morphology.c  **** 				return 3;
 805:morphology.c  **** 			if(file_write(&filer, sizeof(u08), &cubemorph.cubes[i].clinks[j].neighborID) != sizeof(u08))
ARM GAS  C:\DOCUME~1\TECHCO~1\LOCALS~1\Temp/ccQdbaaa.s 			page 24


 806:morphology.c  **** 				return 3;
 807:morphology.c  **** 			if(file_write(&filer, sizeof(u08), &cubemorph.cubes[i].clinks[j].neighborClass) != sizeof(u08))
 808:morphology.c  **** 				return 3;
 809:morphology.c  **** 			if(file_write(&filer, sizeof(u08), &cubemorph.cubes[i].clinks[j].neighborSide) != sizeof(u08))
 810:morphology.c  **** 				return 3;
 811:morphology.c  **** 		}
 812:morphology.c  **** 	}
 813:morphology.c  **** 	
 814:morphology.c  **** 	if(file_write(&filer, sizeof(u08), &cube_chksum) != sizeof(u08))
 815:morphology.c  **** 		return 4;
 816:morphology.c  **** 
 817:morphology.c  **** 	if(file_write(&filer, sizeof(u32), (u08*)&cubemorph.statecount) != sizeof(u32))
 818:morphology.c  **** 		return 5;
 819:morphology.c  **** 
 820:morphology.c  **** 	for(i=0; i<cubemorph.statecount; i++)
 821:morphology.c  **** 	{
 822:morphology.c  **** 		if(file_write(&filer, sizeof(u08), &cubemorph.states[i].id) != sizeof(u08))
 823:morphology.c  **** 			return 6;
 824:morphology.c  **** 		if(file_write(&filer, sizeof(u08), &cubemorph.states[i].cubeClass) != sizeof(u08))
 825:morphology.c  **** 			return 6;
 826:morphology.c  **** 		if(file_write(&filer, sizeof(u32), (u08*)&cubemorph.states[i].timestamp) != sizeof(u32))
 827:morphology.c  **** 			return 6;
 828:morphology.c  **** 		if(file_write(&filer, sizeof(u08), &cubemorph.states[i].channel) != sizeof(u08))
 829:morphology.c  **** 			return 6;
 830:morphology.c  **** 		if(file_write(&filer, sizeof(u32), (u08*)&cubemorph.states[i].value) != sizeof(u32))
 831:morphology.c  **** 			return 6;
 832:morphology.c  **** 	}
 833:morphology.c  **** 
 834:morphology.c  **** 	if(file_write(&filer, sizeof(u08), &state_chksum) != sizeof(u08))
 835:morphology.c  **** 		return 4;
 836:morphology.c  **** 
 837:morphology.c  **** 	file_fclose(&filer);
 838:morphology.c  **** 	return 0;
 839:morphology.c  **** }
 840:morphology.c  **** 
 841:morphology.c  **** int buildMorphologyFromFile(char *filename)
 842:morphology.c  **** {
 843:morphology.c  **** 	int i,j;
 844:morphology.c  **** 	u08 cube_chksum, state_chksum;
 845:morphology.c  **** 	deleteMorphology();
 846:morphology.c  **** 
 847:morphology.c  **** 	if ( file_fopen( &filer, &efs.myFs , filename , 'r' ) )
 848:morphology.c  **** 		return 1;
 849:morphology.c  **** 	
 850:morphology.c  **** 	if(file_read(&filer, sizeof(u08), &cubemorph.cubecount) != sizeof(u08))
 851:morphology.c  **** 		return 2;
 852:morphology.c  **** 	cubemorph.cubes = (MCUBE*)malloc(cubemorph.cubecount * sizeof(MCUBE));
 853:morphology.c  **** 	
 854:morphology.c  **** 	for(i=0; i<cubemorph.cubecount; i++)
 855:morphology.c  **** 	{
 856:morphology.c  **** 		if(file_read(&filer, sizeof(u08), &cubemorph.cubes[i].id) != sizeof(u08))
 857:morphology.c  **** 			return 2;
 858:morphology.c  **** 		if(file_read(&filer, sizeof(u08), &cubemorph.cubes[i].cubeclass) != sizeof(u08))
 859:morphology.c  **** 			return 2;
 860:morphology.c  **** 		if(file_read(&filer, sizeof(u08), &cubemorph.cubes[i].numlinks) != sizeof(u08))
 861:morphology.c  **** 			return 2;
 862:morphology.c  **** 		cubemorph.cubes[i].clinks = (CUBELINKS*)malloc(cubemorph.cubes[i].numlinks * sizeof(CUBELINKS));
ARM GAS  C:\DOCUME~1\TECHCO~1\LOCALS~1\Temp/ccQdbaaa.s 			page 25


 863:morphology.c  **** 
 864:morphology.c  **** 		for(j=0; j<cubemorph.cubes[i].numlinks; j++)
 865:morphology.c  **** 		{
 866:morphology.c  **** 			if(file_read(&filer, sizeof(u08), &cubemorph.cubes[i].clinks[j].selfID) != sizeof(u08))
 867:morphology.c  **** 				return 3;
 868:morphology.c  **** 			if(file_read(&filer, sizeof(u08), &cubemorph.cubes[i].clinks[j].selfClass) != sizeof(u08))
 869:morphology.c  **** 				return 3;
 870:morphology.c  **** 			if(file_read(&filer, sizeof(u08), &cubemorph.cubes[i].clinks[j].selfSide) != sizeof(u08))
 871:morphology.c  **** 				return 3;
 872:morphology.c  **** 			if(file_read(&filer, sizeof(u08), &cubemorph.cubes[i].clinks[j].selfOrient) != sizeof(u08))
 873:morphology.c  **** 				return 3;
 874:morphology.c  **** 			if(file_read(&filer, sizeof(u08), &cubemorph.cubes[i].clinks[j].neighborID) != sizeof(u08))
 875:morphology.c  **** 				return 3;
 876:morphology.c  **** 			if(file_read(&filer, sizeof(u08), &cubemorph.cubes[i].clinks[j].neighborClass) != sizeof(u08))
 877:morphology.c  **** 				return 3;
 878:morphology.c  **** 			if(file_read(&filer, sizeof(u08), &cubemorph.cubes[i].clinks[j].neighborSide) != sizeof(u08))
 879:morphology.c  **** 				return 3;
 880:morphology.c  **** 		}
 881:morphology.c  **** 	}
 882:morphology.c  **** 	
 883:morphology.c  **** 	if(file_read(&filer, sizeof(u08), &cube_chksum) != sizeof(u08))
 884:morphology.c  **** 		return 4;
 885:morphology.c  **** 
 886:morphology.c  **** 	if(file_read(&filer, sizeof(u32), (u08*)&cubemorph.statecount) != sizeof(u32))
 887:morphology.c  **** 		return 5;
 888:morphology.c  **** 	cubemorph.states = (STATEDESC*)malloc(cubemorph.statecount * sizeof(STATEDESC));
 889:morphology.c  **** 
 890:morphology.c  **** 	for(i=0; i<cubemorph.statecount; i++)
 891:morphology.c  **** 	{
 892:morphology.c  **** 		if(file_read(&filer, sizeof(u08), &cubemorph.states[i].id) != sizeof(u08))
 893:morphology.c  **** 			return 6;
 894:morphology.c  **** 		if(file_read(&filer, sizeof(u08), &cubemorph.states[i].cubeClass) != sizeof(u08))
 895:morphology.c  **** 			return 6;
 896:morphology.c  **** 		if(file_read(&filer, sizeof(u32), (u08*)&cubemorph.states[i].timestamp) != sizeof(u32))
 897:morphology.c  **** 			return 6;
 898:morphology.c  **** 		if(file_read(&filer, sizeof(u08), &cubemorph.states[i].channel) != sizeof(u08))
 899:morphology.c  **** 			return 6;
 900:morphology.c  **** 		if(file_read(&filer, sizeof(u32), (u08*)&cubemorph.states[i].value) != sizeof(u32))
 901:morphology.c  **** 			return 6;
 902:morphology.c  **** 	}
 903:morphology.c  **** 
 904:morphology.c  **** 	if(file_read(&filer, sizeof(u08), &state_chksum) != sizeof(u08))
 905:morphology.c  **** 		return 7;
 906:morphology.c  **** 
 907:morphology.c  **** 	if(cube_chksum != cube_checksum_generator() || 
 908:morphology.c  **** 		state_chksum != state_checksum_generator())
 909:morphology.c  **** 	{
 910:morphology.c  **** 		deleteMorphology();
 911:morphology.c  **** 		return 8;
 912:morphology.c  **** 	}
 913:morphology.c  **** 
 914:morphology.c  **** 	file_fclose(&filer);
 915:morphology.c  **** 
 916:morphology.c  **** 	return 0;
 917:morphology.c  **** }
 918:morphology.c  **** 
 919:morphology.c  **** void deleteMorphology(void)
ARM GAS  C:\DOCUME~1\TECHCO~1\LOCALS~1\Temp/ccQdbaaa.s 			page 26


 920:morphology.c  **** {
 921:morphology.c  **** 	int i;
 922:morphology.c  **** 	for(i=0; i<cubemorph.cubecount; i++)
 923:morphology.c  **** 		free(cubemorph.cubes[i].clinks);
 924:morphology.c  **** 	free(cubemorph.cubes);
 925:morphology.c  **** 	cubemorph.cubecount = 0;
 926:morphology.c  **** 	free(cubemorph.states);
 927:morphology.c  **** 	cubemorph.statecount = 0;
 928:morphology.c  **** }
 929:morphology.c  **** 
 930:morphology.c  **** u08 checksum_calc(void *buf, u08 size)
 931:morphology.c  **** {
 503              		.loc 1 931 0
 504              		@ args = 0, pretend = 0, frame = 0
 505              		@ frame_needed = 0, uses_anonymous_args = 0
 506              		@ link register save eliminated.
 507              	.LVL52:
 508              		@ lr needed for prologue
 509 0434 FF1001E2 		and	r1, r1, #255
 510              	.LVL53:
 932:morphology.c  **** 	int i;
 933:morphology.c  **** 	u08 sum=0;
 934:morphology.c  **** 	unsigned char *c_buf;
 935:morphology.c  **** 
 936:morphology.c  **** 	c_buf=(unsigned char *)buf;
 937:morphology.c  **** 
 938:morphology.c  **** 	for(i=0 ; i<size ; i++,c_buf++){
 511              		.loc 1 938 0
 512 0438 000051E3 		cmp	r1, #0
 513 043c 00C0A0D3 		movle	ip, #0
 514              	.LVL54:
 515 0440 170100DA 		ble	.L98
 516              		.loc 1 936 0
 517 0444 00C0A0E3 		mov	ip, #0
 518 0448 0C20A0E1 		mov	r2, ip
 519              	.LVL55:
 520              	.L99:
 521              	.LVL56:
 939:morphology.c  **** 		sum += *c_buf;
 522              		.loc 1 939 0
 523 044c 0030D2E7 		ldrb	r3, [r2, r0]	@ zero_extendqisi2
 524 0450 03308CE0 		add	r3, ip, r3
 525 0454 FFC003E2 		and	ip, r3, #255
 526              		.loc 1 938 0
 527 0458 012082E2 		add	r2, r2, #1
 528 045c 010052E1 		cmp	r2, r1
 529 0460 1101001A 		bne	.L99
 530              	.LVL57:
 531              	.L98:
 940:morphology.c  **** 	}
 941:morphology.c  **** 
 942:morphology.c  **** 	return sum;
 943:morphology.c  **** }
 532              		.loc 1 943 0
 533 0464 0C00A0E1 		mov	r0, ip
 534              	.LVL58:
 535 0468 1EFF2FE1 		bx	lr
ARM GAS  C:\DOCUME~1\TECHCO~1\LOCALS~1\Temp/ccQdbaaa.s 			page 27


 536              	.LFE29:
 537              		.size	checksum_calc, .-checksum_calc
 538              		.align	2
 539              		.global	cube_checksum_generator
 540              		.type	cube_checksum_generator, %function
 541              	cube_checksum_generator:
 542              	.LFB30:
 944:morphology.c  **** 
 945:morphology.c  **** 
 946:morphology.c  **** u08 cube_checksum_generator(void)
 947:morphology.c  **** {
 543              		.loc 1 947 0
 544              		@ args = 0, pretend = 0, frame = 0
 545              		@ frame_needed = 0, uses_anonymous_args = 0
 546 046c F0452DE9 		stmfd	sp!, {r4, r5, r6, r7, r8, sl, lr}
 547              	.LCFI6:
 948:morphology.c  **** 	u08 i, j;
 949:morphology.c  **** 	u08 sum = 0;
 950:morphology.c  **** 	sum += checksum_calc(&cubemorph.cubecount, sizeof(u08));
 548              		.loc 1 950 0
 549 0470 D4409FE5 		ldr	r4, .L112
 550 0474 0400A0E1 		mov	r0, r4
 551 0478 0110A0E3 		mov	r1, #1
 552 047c FEFFFFEB 		bl	checksum_calc
 553 0480 0050A0E1 		mov	r5, r0
 554              	.LVL59:
 951:morphology.c  **** 	
 952:morphology.c  **** 	for(i=0; i<cubemorph.cubecount; i++)
 555              		.loc 1 952 0
 556 0484 0030D4E5 		ldrb	r3, [r4, #0]	@ zero_extendqisi2
 557 0488 000053E3 		cmp	r3, #0
 558 048c 4F01000A 		beq	.L103
 559 0490 00A0A0E3 		mov	sl, #0
 560              	.LVL60:
 561 0494 0480A0E1 		mov	r8, r4
 562              	.LVL61:
 563              	.L105:
 953:morphology.c  **** 	{
 954:morphology.c  **** 		sum += checksum_calc(&cubemorph.cubes[i], 3 * sizeof(u08));
 564              		.loc 1 954 0
 565 0498 8A61A0E1 		mov	r6, sl, asl #3
 566 049c 003098E5 		ldr	r3, [r8, #0]
 567 04a0 0400D8E5 		ldrb	r0, [r8, #4]	@ zero_extendqisi2
 568 04a4 000CA0E1 		mov	r0, r0, asl #24
 569 04a8 230480E1 		orr	r0, r0, r3, lsr #8
 570 04ac 060080E0 		add	r0, r0, r6
 571 04b0 0310A0E3 		mov	r1, #3
 572 04b4 FEFFFFEB 		bl	checksum_calc
 573 04b8 050080E0 		add	r0, r0, r5
 574 04bc FF5000E2 		and	r5, r0, #255
 955:morphology.c  **** 		for(j=0; j<cubemorph.cubes[i].numlinks; j++)
 575              		.loc 1 955 0
 576 04c0 002098E5 		ldr	r2, [r8, #0]
 577 04c4 0430D8E5 		ldrb	r3, [r8, #4]	@ zero_extendqisi2
 578 04c8 033CA0E1 		mov	r3, r3, asl #24
 579 04cc 223483E1 		orr	r3, r3, r2, lsr #8
 580 04d0 032086E0 		add	r2, r6, r3
ARM GAS  C:\DOCUME~1\TECHCO~1\LOCALS~1\Temp/ccQdbaaa.s 			page 28


 581 04d4 0230D2E5 		ldrb	r3, [r2, #2]	@ zero_extendqisi2
 582 04d8 000053E3 		cmp	r3, #0
 583 04dc 4A01000A 		beq	.L106
 584 04e0 0040A0E3 		mov	r4, #0
 585 04e4 60709FE5 		ldr	r7, .L112
 586              	.L108:
 956:morphology.c  **** 		{
 957:morphology.c  **** 			sum += checksum_calc(&cubemorph.cubes[i].clinks[j], 7 * sizeof(u08));
 587              		.loc 1 957 0
 588 04e8 0300D2E5 		ldrb	r0, [r2, #3]	@ zero_extendqisi2
 589 04ec 043092E5 		ldr	r3, [r2, #4]
 590 04f0 030480E1 		orr	r0, r0, r3, asl #8
 591 04f4 840180E0 		add	r0, r0, r4, asl #3
 592 04f8 0710A0E3 		mov	r1, #7
 593 04fc FEFFFFEB 		bl	checksum_calc
 594 0500 050080E0 		add	r0, r0, r5
 595 0504 FF5000E2 		and	r5, r0, #255
 596              		.loc 1 955 0
 597 0508 013084E2 		add	r3, r4, #1
 598 050c FF4003E2 		and	r4, r3, #255
 599 0510 002097E5 		ldr	r2, [r7, #0]
 600 0514 0430D7E5 		ldrb	r3, [r7, #4]	@ zero_extendqisi2
 601 0518 033CA0E1 		mov	r3, r3, asl #24
 602 051c 223483E1 		orr	r3, r3, r2, lsr #8
 603 0520 032086E0 		add	r2, r6, r3
 604 0524 0230D2E5 		ldrb	r3, [r2, #2]	@ zero_extendqisi2
 605 0528 040053E1 		cmp	r3, r4
 606 052c 3801008A 		bhi	.L108
 607              	.L106:
 608              		.loc 1 952 0
 609 0530 01308AE2 		add	r3, sl, #1
 610 0534 FFA003E2 		and	sl, r3, #255
 611 0538 0030D8E5 		ldrb	r3, [r8, #0]	@ zero_extendqisi2
 612 053c 0A0053E1 		cmp	r3, sl
 613 0540 2401008A 		bhi	.L105
 614              	.L103:
 958:morphology.c  **** 		}
 959:morphology.c  **** 	}
 960:morphology.c  **** 
 961:morphology.c  **** 	return sum;
 962:morphology.c  **** }
 615              		.loc 1 962 0
 616 0544 0500A0E1 		mov	r0, r5
 617 0548 F085BDE8 		ldmfd	sp!, {r4, r5, r6, r7, r8, sl, pc}
 618              	.L113:
 619              		.align	2
 620              	.L112:
 621 054c 00000000 		.word	cubemorph
 622              	.LFE30:
 623              		.size	cube_checksum_generator, .-cube_checksum_generator
 624              		.align	2
 625              		.global	state_checksum_generator
 626              		.type	state_checksum_generator, %function
 627              	state_checksum_generator:
 628              	.LFB31:
 963:morphology.c  **** 
 964:morphology.c  **** u08 state_checksum_generator(void)
ARM GAS  C:\DOCUME~1\TECHCO~1\LOCALS~1\Temp/ccQdbaaa.s 			page 29


 965:morphology.c  **** {
 629              		.loc 1 965 0
 630              		@ args = 0, pretend = 0, frame = 0
 631              		@ frame_needed = 0, uses_anonymous_args = 0
 632 0550 70402DE9 		stmfd	sp!, {r4, r5, r6, lr}
 633              	.LCFI7:
 966:morphology.c  **** 	u08 i;
 967:morphology.c  **** 	u08 sum = 0;
 968:morphology.c  **** 	sum += checksum_calc(&cubemorph.statecount, 4 * sizeof(u08));
 634              		.loc 1 968 0
 635 0554 7C409FE5 		ldr	r4, .L120
 636 0558 0400A0E1 		mov	r0, r4
 637 055c 0410A0E3 		mov	r1, #4
 638 0560 FEFFFFEB 		bl	checksum_calc
 639 0564 0060A0E1 		mov	r6, r0
 640              	.LVL62:
 969:morphology.c  **** 	
 970:morphology.c  **** 	for(i=0; i<cubemorph.statecount; i++)
 641              		.loc 1 970 0
 642 0568 054044E2 		sub	r4, r4, #5
 643 056c 042094E5 		ldr	r2, [r4, #4]
 644 0570 0830D4E5 		ldrb	r3, [r4, #8]	@ zero_extendqisi2
 645 0574 033CA0E1 		mov	r3, r3, asl #24
 646 0578 223493E1 		orrs	r3, r3, r2, lsr #8
 647 057c 7201000A 		beq	.L115
 648 0580 0040A0E3 		mov	r4, #0
 649              	.LVL63:
 650 0584 50509FE5 		ldr	r5, .L120+4
 651              	.L117:
 971:morphology.c  **** 	{
 972:morphology.c  **** 		sum += checksum_calc(&cubemorph.states[i], 11 * sizeof(u08));
 652              		.loc 1 972 0
 653 0588 083095E5 		ldr	r3, [r5, #8]
 654 058c 0C00D5E5 		ldrb	r0, [r5, #12]	@ zero_extendqisi2
 655 0590 000CA0E1 		mov	r0, r0, asl #24
 656 0594 230480E1 		orr	r0, r0, r3, lsr #8
 657 0598 843084E0 		add	r3, r4, r4, asl #1
 658 059c 030180E0 		add	r0, r0, r3, asl #2
 659 05a0 0B10A0E3 		mov	r1, #11
 660 05a4 FEFFFFEB 		bl	checksum_calc
 661 05a8 060080E0 		add	r0, r0, r6
 662 05ac FF6000E2 		and	r6, r0, #255
 663              		.loc 1 970 0
 664 05b0 013084E2 		add	r3, r4, #1
 665 05b4 FF4003E2 		and	r4, r3, #255
 666 05b8 042095E5 		ldr	r2, [r5, #4]
 667 05bc 0830D5E5 		ldrb	r3, [r5, #8]	@ zero_extendqisi2
 668 05c0 033CA0E1 		mov	r3, r3, asl #24
 669 05c4 223483E1 		orr	r3, r3, r2, lsr #8
 670 05c8 030054E1 		cmp	r4, r3
 671 05cc 6001003A 		bcc	.L117
 672              	.L115:
 973:morphology.c  **** 	}
 974:morphology.c  **** 
 975:morphology.c  **** 	return sum;
 976:morphology.c  **** }
 673              		.loc 1 976 0
ARM GAS  C:\DOCUME~1\TECHCO~1\LOCALS~1\Temp/ccQdbaaa.s 			page 30


 674 05d0 0600A0E1 		mov	r0, r6
 675 05d4 7080BDE8 		ldmfd	sp!, {r4, r5, r6, pc}
 676              	.L121:
 677              		.align	2
 678              	.L120:
 679 05d8 05000000 		.word	cubemorph+5
 680 05dc 00000000 		.word	cubemorph
 681              	.LFE31:
 682              		.size	state_checksum_generator, .-state_checksum_generator
 683              		.section	.rodata.str1.4,"aMS",%progbits,1
 684              		.align	2
 685              	.LC0:
 686 0000 4F524945 		.ascii	"ORIENTATION_NOERROR\012\015\000"
 686      4E544154 
 686      494F4E5F 
 686      4E4F4552 
 686      524F520A 
 687 0016 0000     		.align	2
 688              	.LC1:
 689 0018 4F524945 		.ascii	"ORIENTATION_ERROR_CANNOT_SET_PIN\012\015\000"
 689      4E544154 
 689      494F4E5F 
 689      4552524F 
 689      525F4341 
 690 003b 00       		.align	2
 691              	.LC2:
 692 003c 4F524945 		.ascii	"ORIENTATION_ERROR_ON_TARGET_CUBE\012\015\000"
 692      4E544154 
 692      494F4E5F 
 692      4552524F 
 692      525F4F4E 
 693 005f 00       		.align	2
 694              	.LC3:
 695 0060 4F524945 		.ascii	"ORIENTATION_ERROR_TIMEOUT\012\015\000"
 695      4E544154 
 695      494F4E5F 
 695      4552524F 
 695      525F5449 
 696              		.align	2
 697              	.LC4:
 698 007c 4F524945 		.ascii	"ORIENTATION_ERROR_PARAMETERS\012\015\000"
 698      4E544154 
 698      494F4E5F 
 698      4552524F 
 698      525F5041 
 699 009b 00       		.align	2
 700              	.LC5:
 701 009c 4F524945 		.ascii	"ORIENTATION_ERROR_MEM_ALLOC\012\015\000"
 701      4E544154 
 701      494F4E5F 
 701      4552524F 
 701      525F4D45 
 702 00ba 0000     		.align	2
 703              	.LC6:
 704 00bc 4F524945 		.ascii	"ORIENTATION_ERROR_INVALID_PIN_COMBO\012\015\000"
 704      4E544154 
 704      494F4E5F 
ARM GAS  C:\DOCUME~1\TECHCO~1\LOCALS~1\Temp/ccQdbaaa.s 			page 31


 704      4552524F 
 704      525F494E 
 705 00e2 0000     		.align	2
 706              	.LC7:
 707 00e4 4F524945 		.ascii	"ORIENTATION_NO_DEVICE_FOUND\012\015\000"
 707      4E544154 
 707      494F4E5F 
 707      4E4F5F44 
 707      45564943 
 708 0102 0000     		.align	2
 709              	.LC8:
 710 0104 4F524945 		.ascii	"ORIENTATION_NO_LINK_FOUND\012\015\000"
 710      4E544154 
 710      494F4E5F 
 710      4E4F5F4C 
 710      494E4B5F 
 711              		.align	2
 712              	.LC9:
 713 0120 4F524945 		.ascii	"ORIENTATION_ERROR_DUPLICATE_CUBE_LINK\012\015\000"
 713      4E544154 
 713      494F4E5F 
 713      4552524F 
 713      525F4455 
 714              		.align	2
 715              	.LC10:
 716 0148 4F524945 		.ascii	"ORIENTATION_ERROR_DUPLICATE_CUBE\012\015\000"
 716      4E544154 
 716      494F4E5F 
 716      4552524F 
 716      525F4455 
 717 016b 00       		.align	2
 718              	.LC11:
 719 016c 4F524945 		.ascii	"ORIENTATION_ERROR_CANNOT_CREATE_CUBE\012\015\000"
 719      4E544154 
 719      494F4E5F 
 719      4552524F 
 719      525F4341 
 720 0193 00       		.align	2
 721              	.LC12:
 722 0194 4F524945 		.ascii	"ORIENTATION_NO_STATE_FOUND\012\015\000"
 722      4E544154 
 722      494F4E5F 
 722      4E4F5F53 
 722      54415445 
 723 01b1 000000   		.align	2
 724              	.LC13:
 725 01b4 4F524945 		.ascii	"ORIENTATION_ERROR_DUPLICATE_STATE\012\015\000"
 725      4E544154 
 725      494F4E5F 
 725      4552524F 
 725      525F4455 
 726              		.align	2
 727              	.LC14:
 728 01d8 4F524945 		.ascii	"ORIENTATION_ERROR_CANNOT_SET_STATE\012\015\000"
 728      4E544154 
 728      494F4E5F 
 728      4552524F 
ARM GAS  C:\DOCUME~1\TECHCO~1\LOCALS~1\Temp/ccQdbaaa.s 			page 32


 728      525F4341 
 729 01fd 000000   		.align	2
 730              	.LC15:
 731 0200 4F524945 		.ascii	"ORIENTATION_UNKNOWN_CLASS\012\015\000"
 731      4E544154 
 731      494F4E5F 
 731      554E4B4E 
 731      4F574E5F 
 732              		.align	2
 733              	.LC16:
 734 021c 4F524945 		.ascii	"ORIENTATION_SIDE_NOT_PRESENT\012\015\000"
 734      4E544154 
 734      494F4E5F 
 734      53494445 
 734      5F4E4F54 
 735 023b 00       		.align	2
 736              	.LC17:
 737 023c 4F524945 		.ascii	"ORIENTATION - UNKNOWN ERROR CODE\012\015\000"
 737      4E544154 
 737      494F4E20 
 737      2D20554E 
 737      4B4E4F57 
 738              		.text
 739              		.align	2
 740              		.global	printOrientationErrorCode
 741              		.type	printOrientationErrorCode, %function
 742              	printOrientationErrorCode:
 743              	.LFB32:
 977:morphology.c  **** 
 978:morphology.c  **** void printOrientationErrorCode(int code)
 979:morphology.c  **** {
 744              		.loc 1 979 0
 745              		@ args = 0, pretend = 0, frame = 0
 746              		@ frame_needed = 0, uses_anonymous_args = 0
 747              	.LVL64:
 748 05e0 04E02DE5 		str	lr, [sp, #-4]!
 749              	.LCFI8:
 980:morphology.c  **** 	switch(code) {
 750              		.loc 1 980 0
 751 05e4 100050E3 		cmp	r0, #16
 752 05e8 00F19F97 		ldrls	pc, [pc, r0, asl #2]
 753 05ec CF0100EA 		b	.L123
 754              		.p2align 2
 755              	.L141:
 756 05f0 34060000 		.word	.L124
 757 05f4 44060000 		.word	.L125
 758 05f8 54060000 		.word	.L126
 759 05fc 64060000 		.word	.L127
 760 0600 74060000 		.word	.L128
 761 0604 84060000 		.word	.L129
 762 0608 94060000 		.word	.L130
 763 060c A4060000 		.word	.L131
 764 0610 B4060000 		.word	.L132
 765 0614 C4060000 		.word	.L133
 766 0618 D4060000 		.word	.L134
 767 061c E4060000 		.word	.L135
 768 0620 F4060000 		.word	.L136
ARM GAS  C:\DOCUME~1\TECHCO~1\LOCALS~1\Temp/ccQdbaaa.s 			page 33


 769 0624 04070000 		.word	.L137
 770 0628 14070000 		.word	.L138
 771 062c 24070000 		.word	.L139
 772 0630 34070000 		.word	.L140
 773              	.L124:
 981:morphology.c  **** 		case ORIENTATION_NOERROR:
 982:morphology.c  **** 			rprintf("ORIENTATION_NOERROR\n\r"); 
 774              		.loc 1 982 0
 775 0634 0000A0E3 		mov	r0, #0
 776              	.LVL65:
 777 0638 14119FE5 		ldr	r1, .L144
 778 063c FEFFFFEB 		bl	rprintf1RamRom
 779 0640 04F09DE4 		ldr	pc, [sp], #4
 780              	.LVL66:
 781              	.L125:
 983:morphology.c  **** 			break;
 984:morphology.c  **** 		case ORIENTATION_ERROR_CANNOT_SET_PIN:
 985:morphology.c  **** 			rprintf("ORIENTATION_ERROR_CANNOT_SET_PIN\n\r"); 
 782              		.loc 1 985 0
 783 0644 0000A0E3 		mov	r0, #0
 784              	.LVL67:
 785 0648 08119FE5 		ldr	r1, .L144+4
 786 064c FEFFFFEB 		bl	rprintf1RamRom
 787 0650 04F09DE4 		ldr	pc, [sp], #4
 788              	.LVL68:
 789              	.L126:
 986:morphology.c  **** 			break;
 987:morphology.c  **** 		case ORIENTATION_ERROR_ON_TARGET_CUBE:
 988:morphology.c  **** 			rprintf("ORIENTATION_ERROR_ON_TARGET_CUBE\n\r"); 
 790              		.loc 1 988 0
 791 0654 0000A0E3 		mov	r0, #0
 792              	.LVL69:
 793 0658 FC109FE5 		ldr	r1, .L144+8
 794 065c FEFFFFEB 		bl	rprintf1RamRom
 795 0660 04F09DE4 		ldr	pc, [sp], #4
 796              	.LVL70:
 797              	.L127:
 989:morphology.c  **** 			break;
 990:morphology.c  **** 		case ORIENTATION_ERROR_TIMEOUT:
 991:morphology.c  **** 			rprintf("ORIENTATION_ERROR_TIMEOUT\n\r"); 
 798              		.loc 1 991 0
 799 0664 0000A0E3 		mov	r0, #0
 800              	.LVL71:
 801 0668 F0109FE5 		ldr	r1, .L144+12
 802 066c FEFFFFEB 		bl	rprintf1RamRom
 803 0670 04F09DE4 		ldr	pc, [sp], #4
 804              	.LVL72:
 805              	.L128:
 992:morphology.c  **** 			break;
 993:morphology.c  **** 		case ORIENTATION_ERROR_PARAMETERS:
 994:morphology.c  **** 			rprintf("ORIENTATION_ERROR_PARAMETERS\n\r"); 
 806              		.loc 1 994 0
 807 0674 0000A0E3 		mov	r0, #0
 808              	.LVL73:
 809 0678 E4109FE5 		ldr	r1, .L144+16
 810 067c FEFFFFEB 		bl	rprintf1RamRom
 811 0680 04F09DE4 		ldr	pc, [sp], #4
ARM GAS  C:\DOCUME~1\TECHCO~1\LOCALS~1\Temp/ccQdbaaa.s 			page 34


 812              	.LVL74:
 813              	.L129:
 995:morphology.c  **** 			break;
 996:morphology.c  **** 		case ORIENTATION_ERROR_MEM_ALLOC:
 997:morphology.c  **** 			rprintf("ORIENTATION_ERROR_MEM_ALLOC\n\r"); 
 814              		.loc 1 997 0
 815 0684 0000A0E3 		mov	r0, #0
 816              	.LVL75:
 817 0688 D8109FE5 		ldr	r1, .L144+20
 818 068c FEFFFFEB 		bl	rprintf1RamRom
 819 0690 04F09DE4 		ldr	pc, [sp], #4
 820              	.LVL76:
 821              	.L130:
 998:morphology.c  **** 			break;
 999:morphology.c  **** 		case ORIENTATION_ERROR_INVALID_PIN_COMBO:
1000:morphology.c  **** 			rprintf("ORIENTATION_ERROR_INVALID_PIN_COMBO\n\r"); 
 822              		.loc 1 1000 0
 823 0694 0000A0E3 		mov	r0, #0
 824              	.LVL77:
 825 0698 CC109FE5 		ldr	r1, .L144+24
 826 069c FEFFFFEB 		bl	rprintf1RamRom
 827 06a0 04F09DE4 		ldr	pc, [sp], #4
 828              	.LVL78:
 829              	.L131:
1001:morphology.c  **** 			break;
1002:morphology.c  **** 		case ORIENTATION_NO_DEVICE_FOUND:
1003:morphology.c  **** 			rprintf("ORIENTATION_NO_DEVICE_FOUND\n\r"); 
 830              		.loc 1 1003 0
 831 06a4 0000A0E3 		mov	r0, #0
 832              	.LVL79:
 833 06a8 C0109FE5 		ldr	r1, .L144+28
 834 06ac FEFFFFEB 		bl	rprintf1RamRom
 835 06b0 04F09DE4 		ldr	pc, [sp], #4
 836              	.LVL80:
 837              	.L132:
1004:morphology.c  **** 			break;
1005:morphology.c  **** 		case ORIENTATION_NO_LINK_FOUND:
1006:morphology.c  **** 			rprintf("ORIENTATION_NO_LINK_FOUND\n\r"); 
 838              		.loc 1 1006 0
 839 06b4 0000A0E3 		mov	r0, #0
 840              	.LVL81:
 841 06b8 B4109FE5 		ldr	r1, .L144+32
 842 06bc FEFFFFEB 		bl	rprintf1RamRom
 843 06c0 04F09DE4 		ldr	pc, [sp], #4
 844              	.LVL82:
 845              	.L133:
1007:morphology.c  **** 			break;
1008:morphology.c  **** 		case ORIENTATION_ERROR_DUPLICATE_CUBE_LINK:
1009:morphology.c  **** 			rprintf("ORIENTATION_ERROR_DUPLICATE_CUBE_LINK\n\r"); 
 846              		.loc 1 1009 0
 847 06c4 0000A0E3 		mov	r0, #0
 848              	.LVL83:
 849 06c8 A8109FE5 		ldr	r1, .L144+36
 850 06cc FEFFFFEB 		bl	rprintf1RamRom
 851 06d0 04F09DE4 		ldr	pc, [sp], #4
 852              	.LVL84:
 853              	.L134:
ARM GAS  C:\DOCUME~1\TECHCO~1\LOCALS~1\Temp/ccQdbaaa.s 			page 35


1010:morphology.c  **** 			break;
1011:morphology.c  **** 		case ORIENTATION_ERROR_DUPLICATE_CUBE:
1012:morphology.c  **** 			rprintf("ORIENTATION_ERROR_DUPLICATE_CUBE\n\r"); 
 854              		.loc 1 1012 0
 855 06d4 0000A0E3 		mov	r0, #0
 856              	.LVL85:
 857 06d8 9C109FE5 		ldr	r1, .L144+40
 858 06dc FEFFFFEB 		bl	rprintf1RamRom
 859 06e0 04F09DE4 		ldr	pc, [sp], #4
 860              	.LVL86:
 861              	.L135:
1013:morphology.c  **** 			break;
1014:morphology.c  **** 		case ORIENTATION_ERROR_CANNOT_CREATE_CUBE:
1015:morphology.c  **** 			rprintf("ORIENTATION_ERROR_CANNOT_CREATE_CUBE\n\r"); 
 862              		.loc 1 1015 0
 863 06e4 0000A0E3 		mov	r0, #0
 864              	.LVL87:
 865 06e8 90109FE5 		ldr	r1, .L144+44
 866 06ec FEFFFFEB 		bl	rprintf1RamRom
 867 06f0 04F09DE4 		ldr	pc, [sp], #4
 868              	.LVL88:
 869              	.L136:
1016:morphology.c  **** 			break;
1017:morphology.c  **** 		case ORIENTATION_NO_STATE_FOUND:
1018:morphology.c  **** 			rprintf("ORIENTATION_NO_STATE_FOUND\n\r"); 
 870              		.loc 1 1018 0
 871 06f4 0000A0E3 		mov	r0, #0
 872              	.LVL89:
 873 06f8 84109FE5 		ldr	r1, .L144+48
 874 06fc FEFFFFEB 		bl	rprintf1RamRom
 875 0700 04F09DE4 		ldr	pc, [sp], #4
 876              	.LVL90:
 877              	.L137:
1019:morphology.c  **** 			break;
1020:morphology.c  **** 		case ORIENTATION_ERROR_DUPLICATE_STATE:
1021:morphology.c  **** 			rprintf("ORIENTATION_ERROR_DUPLICATE_STATE\n\r"); 
 878              		.loc 1 1021 0
 879 0704 0000A0E3 		mov	r0, #0
 880              	.LVL91:
 881 0708 78109FE5 		ldr	r1, .L144+52
 882 070c FEFFFFEB 		bl	rprintf1RamRom
 883 0710 04F09DE4 		ldr	pc, [sp], #4
 884              	.LVL92:
 885              	.L138:
1022:morphology.c  **** 			break;
1023:morphology.c  **** 		case ORIENTATION_ERROR_CANNOT_SET_STATE:
1024:morphology.c  **** 			rprintf("ORIENTATION_ERROR_CANNOT_SET_STATE\n\r"); 
 886              		.loc 1 1024 0
 887 0714 0000A0E3 		mov	r0, #0
 888              	.LVL93:
 889 0718 6C109FE5 		ldr	r1, .L144+56
 890 071c FEFFFFEB 		bl	rprintf1RamRom
 891 0720 04F09DE4 		ldr	pc, [sp], #4
 892              	.LVL94:
 893              	.L139:
1025:morphology.c  **** 			break;
1026:morphology.c  **** 		case ORIENTATION_UNKNOWN_CLASS:
ARM GAS  C:\DOCUME~1\TECHCO~1\LOCALS~1\Temp/ccQdbaaa.s 			page 36


1027:morphology.c  **** 			rprintf("ORIENTATION_UNKNOWN_CLASS\n\r"); 
 894              		.loc 1 1027 0
 895 0724 0000A0E3 		mov	r0, #0
 896              	.LVL95:
 897 0728 60109FE5 		ldr	r1, .L144+60
 898 072c FEFFFFEB 		bl	rprintf1RamRom
 899 0730 04F09DE4 		ldr	pc, [sp], #4
 900              	.LVL96:
 901              	.L140:
1028:morphology.c  **** 			break;
1029:morphology.c  **** 		case ORIENTATION_SIDE_NOT_PRESENT:
1030:morphology.c  **** 			rprintf("ORIENTATION_SIDE_NOT_PRESENT\n\r"); 
 902              		.loc 1 1030 0
 903 0734 0000A0E3 		mov	r0, #0
 904              	.LVL97:
 905 0738 54109FE5 		ldr	r1, .L144+64
 906 073c FEFFFFEB 		bl	rprintf1RamRom
 907 0740 04F09DE4 		ldr	pc, [sp], #4
 908              	.LVL98:
 909              	.L123:
1031:morphology.c  **** 			break;
1032:morphology.c  **** 		default:
1033:morphology.c  **** 			rprintf("ORIENTATION - UNKNOWN ERROR CODE\n\r");
 910              		.loc 1 1033 0
 911 0744 0000A0E3 		mov	r0, #0
 912              	.LVL99:
 913 0748 48109FE5 		ldr	r1, .L144+68
 914 074c FEFFFFEB 		bl	rprintf1RamRom
 915 0750 04F09DE4 		ldr	pc, [sp], #4
 916              	.L145:
 917              		.align	2
 918              	.L144:
 919 0754 00000000 		.word	.LC0
 920 0758 18000000 		.word	.LC1
 921 075c 3C000000 		.word	.LC2
 922 0760 60000000 		.word	.LC3
 923 0764 7C000000 		.word	.LC4
 924 0768 9C000000 		.word	.LC5
 925 076c BC000000 		.word	.LC6
 926 0770 E4000000 		.word	.LC7
 927 0774 04010000 		.word	.LC8
 928 0778 20010000 		.word	.LC9
 929 077c 48010000 		.word	.LC10
 930 0780 6C010000 		.word	.LC11
 931 0784 94010000 		.word	.LC12
 932 0788 B4010000 		.word	.LC13
 933 078c D8010000 		.word	.LC14
 934 0790 00020000 		.word	.LC15
 935 0794 1C020000 		.word	.LC16
 936 0798 3C020000 		.word	.LC17
 937              	.LFE32:
 938              		.size	printOrientationErrorCode, .-printOrientationErrorCode
 939              		.align	2
 940              		.global	deleteMorphology
 941              		.type	deleteMorphology, %function
 942              	deleteMorphology:
 943              	.LFB28:
ARM GAS  C:\DOCUME~1\TECHCO~1\LOCALS~1\Temp/ccQdbaaa.s 			page 37


 944              		.loc 1 920 0
 945              		@ args = 0, pretend = 0, frame = 0
 946              		@ frame_needed = 0, uses_anonymous_args = 0
 947 079c 30402DE9 		stmfd	sp!, {r4, r5, lr}
 948              	.LCFI9:
 949              		.loc 1 922 0
 950 07a0 88309FE5 		ldr	r3, .L152
 951 07a4 0030D3E5 		ldrb	r3, [r3, #0]	@ zero_extendqisi2
 952 07a8 000053E3 		cmp	r3, #0
 953 07ac F90100DA 		ble	.L147
 954 07b0 0040A0E3 		mov	r4, #0
 955              	.LVL100:
 956 07b4 74509FE5 		ldr	r5, .L152
 957              	.L149:
 958              		.loc 1 923 0
 959 07b8 002095E5 		ldr	r2, [r5, #0]
 960 07bc 0430D5E5 		ldrb	r3, [r5, #4]	@ zero_extendqisi2
 961 07c0 033CA0E1 		mov	r3, r3, asl #24
 962 07c4 223483E1 		orr	r3, r3, r2, lsr #8
 963 07c8 843183E0 		add	r3, r3, r4, asl #3
 964 07cc 0320D3E5 		ldrb	r2, [r3, #3]	@ zero_extendqisi2
 965 07d0 040093E5 		ldr	r0, [r3, #4]
 966 07d4 000482E1 		orr	r0, r2, r0, asl #8
 967 07d8 FEFFFFEB 		bl	free
 968              		.loc 1 922 0
 969 07dc 014084E2 		add	r4, r4, #1
 970 07e0 0030D5E5 		ldrb	r3, [r5, #0]	@ zero_extendqisi2
 971 07e4 040053E1 		cmp	r3, r4
 972 07e8 EC0100CA 		bgt	.L149
 973              	.L147:
 974              		.loc 1 924 0
 975 07ec 3C409FE5 		ldr	r4, .L152
 976              	.LVL101:
 977 07f0 003094E5 		ldr	r3, [r4, #0]
 978 07f4 0400D4E5 		ldrb	r0, [r4, #4]	@ zero_extendqisi2
 979 07f8 000CA0E1 		mov	r0, r0, asl #24
 980 07fc 230480E1 		orr	r0, r0, r3, lsr #8
 981 0800 FEFFFFEB 		bl	free
 982              		.loc 1 925 0
 983 0804 0050A0E3 		mov	r5, #0
 984 0808 0050C4E5 		strb	r5, [r4, #0]
 985              		.loc 1 926 0
 986 080c 083094E5 		ldr	r3, [r4, #8]
 987 0810 0C00D4E5 		ldrb	r0, [r4, #12]	@ zero_extendqisi2
 988 0814 000CA0E1 		mov	r0, r0, asl #24
 989 0818 230480E1 		orr	r0, r0, r3, lsr #8
 990 081c FEFFFFEB 		bl	free
 991              		.loc 1 927 0
 992 0820 0430D4E5 		ldrb	r3, [r4, #4]	@ zero_extendqisi2
 993 0824 043084E5 		str	r3, [r4, #4]
 994 0828 0850C4E5 		strb	r5, [r4, #8]
 995              		.loc 1 928 0
 996 082c 3080BDE8 		ldmfd	sp!, {r4, r5, pc}
 997              	.L153:
 998              		.align	2
 999              	.L152:
 1000 0830 00000000 		.word	cubemorph
ARM GAS  C:\DOCUME~1\TECHCO~1\LOCALS~1\Temp/ccQdbaaa.s 			page 38


 1001              	.LFE28:
 1002              		.size	deleteMorphology, .-deleteMorphology
 1003              		.align	2
 1004              		.global	buildMorphologyFromFile
 1005              		.type	buildMorphologyFromFile, %function
 1006              	buildMorphologyFromFile:
 1007              	.LFB27:
 1008              		.loc 1 842 0
 1009              		@ args = 0, pretend = 0, frame = 4
 1010              		@ frame_needed = 0, uses_anonymous_args = 0
 1011              	.LVL102:
 1012 0834 F04F2DE9 		stmfd	sp!, {r4, r5, r6, r7, r8, r9, sl, fp, lr}
 1013              	.LCFI10:
 1014 0838 04D04DE2 		sub	sp, sp, #4
 1015              	.LCFI11:
 1016 083c 0040A0E1 		mov	r4, r0
 1017              		.loc 1 845 0
 1018 0840 FEFFFFEB 		bl	deleteMorphology
 1019              	.LVL103:
 1020              		.loc 1 847 0
 1021 0844 14059FE5 		ldr	r0, .L199
 1022 0848 14159FE5 		ldr	r1, .L199+4
 1023 084c 0420A0E1 		mov	r2, r4
 1024 0850 7230A0E3 		mov	r3, #114
 1025 0854 FEFFFFEB 		bl	file_fopen
 1026 0858 FF0010E3 		tst	r0, #255
 1027 085c 0100A013 		movne	r0, #1
 1028 0860 5403001A 		bne	.L157
 1029              		.loc 1 850 0
 1030 0864 FC449FE5 		ldr	r4, .L199+8
 1031              	.LVL104:
 1032 0868 F0049FE5 		ldr	r0, .L199
 1033 086c 0110A0E3 		mov	r1, #1
 1034 0870 0420A0E1 		mov	r2, r4
 1035 0874 FEFFFFEB 		bl	file_read
 1036 0878 010050E3 		cmp	r0, #1
 1037 087c 4F03001A 		bne	.L158
 1038              		.loc 1 852 0
 1039 0880 0000D4E5 		ldrb	r0, [r4, #0]	@ zero_extendqisi2
 1040 0884 8001A0E1 		mov	r0, r0, asl #3
 1041 0888 FEFFFFEB 		bl	malloc
 1042 088c 0030D4E5 		ldrb	r3, [r4, #0]	@ zero_extendqisi2
 1043 0890 003483E1 		orr	r3, r3, r0, asl #8
 1044 0894 003084E5 		str	r3, [r4, #0]
 1045 0898 200CA0E1 		mov	r0, r0, lsr #24
 1046 089c 0400C4E5 		strb	r0, [r4, #4]
 1047              		.loc 1 854 0
 1048 08a0 0030D4E5 		ldrb	r3, [r4, #0]	@ zero_extendqisi2
 1049 08a4 000053E3 		cmp	r3, #0
 1050 08a8 D60200DA 		ble	.L160
 1051 08ac 00B0A0E3 		mov	fp, #0
 1052              	.LVL105:
 1053 08b0 A8949FE5 		ldr	r9, .L199
 1054 08b4 04A0A0E1 		mov	sl, r4
 1055              	.LVL106:
 1056              	.L162:
 1057 08b8 8B61A0E1 		mov	r6, fp, asl #3
ARM GAS  C:\DOCUME~1\TECHCO~1\LOCALS~1\Temp/ccQdbaaa.s 			page 39


 1058              		.loc 1 856 0
 1059 08bc 00309AE5 		ldr	r3, [sl, #0]
 1060 08c0 0420DAE5 		ldrb	r2, [sl, #4]	@ zero_extendqisi2
 1061 08c4 022CA0E1 		mov	r2, r2, asl #24
 1062 08c8 232482E1 		orr	r2, r2, r3, lsr #8
 1063 08cc 0900A0E1 		mov	r0, r9
 1064 08d0 0110A0E3 		mov	r1, #1
 1065 08d4 062082E0 		add	r2, r2, r6
 1066 08d8 FEFFFFEB 		bl	file_read
 1067 08dc 0010A0E1 		mov	r1, r0
 1068 08e0 010050E3 		cmp	r0, #1
 1069 08e4 4F03001A 		bne	.L158
 1070              		.loc 1 858 0
 1071 08e8 00309AE5 		ldr	r3, [sl, #0]
 1072 08ec 0420DAE5 		ldrb	r2, [sl, #4]	@ zero_extendqisi2
 1073 08f0 022CA0E1 		mov	r2, r2, asl #24
 1074 08f4 232482E1 		orr	r2, r2, r3, lsr #8
 1075 08f8 062082E0 		add	r2, r2, r6
 1076 08fc 0900A0E1 		mov	r0, r9
 1077 0900 012082E2 		add	r2, r2, #1
 1078 0904 FEFFFFEB 		bl	file_read
 1079 0908 0010A0E1 		mov	r1, r0
 1080 090c 010050E3 		cmp	r0, #1
 1081 0910 4F03001A 		bne	.L158
 1082              		.loc 1 860 0
 1083 0914 00309AE5 		ldr	r3, [sl, #0]
 1084 0918 0420DAE5 		ldrb	r2, [sl, #4]	@ zero_extendqisi2
 1085 091c 022CA0E1 		mov	r2, r2, asl #24
 1086 0920 232482E1 		orr	r2, r2, r3, lsr #8
 1087 0924 062082E0 		add	r2, r2, r6
 1088 0928 0900A0E1 		mov	r0, r9
 1089 092c 022082E2 		add	r2, r2, #2
 1090 0930 FEFFFFEB 		bl	file_read
 1091 0934 010050E3 		cmp	r0, #1
 1092 0938 4F03001A 		bne	.L158
 1093              		.loc 1 862 0
 1094 093c 00309AE5 		ldr	r3, [sl, #0]
 1095 0940 0440DAE5 		ldrb	r4, [sl, #4]	@ zero_extendqisi2
 1096 0944 044CA0E1 		mov	r4, r4, asl #24
 1097 0948 234484E1 		orr	r4, r4, r3, lsr #8
 1098 094c 064084E0 		add	r4, r4, r6
 1099 0950 0200D4E5 		ldrb	r0, [r4, #2]	@ zero_extendqisi2
 1100 0954 8001A0E1 		mov	r0, r0, asl #3
 1101 0958 FEFFFFEB 		bl	malloc
 1102 095c 0300C4E5 		strb	r0, [r4, #3]
 1103 0960 043094E5 		ldr	r3, [r4, #4]
 1104 0964 FF3403E2 		and	r3, r3, #-16777216
 1105 0968 203483E1 		orr	r3, r3, r0, lsr #8
 1106 096c 043084E5 		str	r3, [r4, #4]
 1107              		.loc 1 864 0
 1108 0970 00209AE5 		ldr	r2, [sl, #0]
 1109 0974 0430DAE5 		ldrb	r3, [sl, #4]	@ zero_extendqisi2
 1110 0978 033CA0E1 		mov	r3, r3, asl #24
 1111 097c 223483E1 		orr	r3, r3, r2, lsr #8
 1112 0980 061083E0 		add	r1, r3, r6
 1113 0984 0230D1E5 		ldrb	r3, [r1, #2]	@ zero_extendqisi2
 1114 0988 000053E3 		cmp	r3, #0
ARM GAS  C:\DOCUME~1\TECHCO~1\LOCALS~1\Temp/ccQdbaaa.s 			page 40


 1115 098c D20200DA 		ble	.L166
 1116 0990 0080A0E3 		mov	r8, #0
 1117 0994 C4739FE5 		ldr	r7, .L199
 1118              	.L168:
 1119 0998 8841A0E1 		mov	r4, r8, asl #3
 1120              		.loc 1 866 0
 1121 099c 0320D1E5 		ldrb	r2, [r1, #3]	@ zero_extendqisi2
 1122 09a0 043091E5 		ldr	r3, [r1, #4]
 1123 09a4 032482E1 		orr	r2, r2, r3, asl #8
 1124 09a8 0700A0E1 		mov	r0, r7
 1125 09ac 0110A0E3 		mov	r1, #1
 1126 09b0 042082E0 		add	r2, r2, r4
 1127 09b4 FEFFFFEB 		bl	file_read
 1128 09b8 0010A0E1 		mov	r1, r0
 1129 09bc 010050E3 		cmp	r0, #1
 1130 09c0 5103001A 		bne	.L169
 1131              		.loc 1 868 0
 1132 09c4 9C539FE5 		ldr	r5, .L199+8
 1133 09c8 002095E5 		ldr	r2, [r5, #0]
 1134 09cc 0430D5E5 		ldrb	r3, [r5, #4]	@ zero_extendqisi2
 1135 09d0 033CA0E1 		mov	r3, r3, asl #24
 1136 09d4 223483E1 		orr	r3, r3, r2, lsr #8
 1137 09d8 063083E0 		add	r3, r3, r6
 1138 09dc 0320D3E5 		ldrb	r2, [r3, #3]	@ zero_extendqisi2
 1139 09e0 043093E5 		ldr	r3, [r3, #4]
 1140 09e4 032482E1 		orr	r2, r2, r3, asl #8
 1141 09e8 042082E0 		add	r2, r2, r4
 1142 09ec 0700A0E1 		mov	r0, r7
 1143 09f0 012082E2 		add	r2, r2, #1
 1144 09f4 FEFFFFEB 		bl	file_read
 1145 09f8 0010A0E1 		mov	r1, r0
 1146 09fc 010050E3 		cmp	r0, #1
 1147 0a00 5103001A 		bne	.L169
 1148              		.loc 1 870 0
 1149 0a04 002095E5 		ldr	r2, [r5, #0]
 1150 0a08 0430D5E5 		ldrb	r3, [r5, #4]	@ zero_extendqisi2
 1151 0a0c 033CA0E1 		mov	r3, r3, asl #24
 1152 0a10 223483E1 		orr	r3, r3, r2, lsr #8
 1153 0a14 063083E0 		add	r3, r3, r6
 1154 0a18 0320D3E5 		ldrb	r2, [r3, #3]	@ zero_extendqisi2
 1155 0a1c 043093E5 		ldr	r3, [r3, #4]
 1156 0a20 032482E1 		orr	r2, r2, r3, asl #8
 1157 0a24 042082E0 		add	r2, r2, r4
 1158 0a28 0700A0E1 		mov	r0, r7
 1159 0a2c 022082E2 		add	r2, r2, #2
 1160 0a30 FEFFFFEB 		bl	file_read
 1161 0a34 0010A0E1 		mov	r1, r0
 1162 0a38 010050E3 		cmp	r0, #1
 1163 0a3c 5103001A 		bne	.L169
 1164              		.loc 1 872 0
 1165 0a40 002095E5 		ldr	r2, [r5, #0]
 1166 0a44 0430D5E5 		ldrb	r3, [r5, #4]	@ zero_extendqisi2
 1167 0a48 033CA0E1 		mov	r3, r3, asl #24
 1168 0a4c 223483E1 		orr	r3, r3, r2, lsr #8
 1169 0a50 063083E0 		add	r3, r3, r6
 1170 0a54 0320D3E5 		ldrb	r2, [r3, #3]	@ zero_extendqisi2
 1171 0a58 043093E5 		ldr	r3, [r3, #4]
ARM GAS  C:\DOCUME~1\TECHCO~1\LOCALS~1\Temp/ccQdbaaa.s 			page 41


 1172 0a5c 032482E1 		orr	r2, r2, r3, asl #8
 1173 0a60 042082E0 		add	r2, r2, r4
 1174 0a64 0700A0E1 		mov	r0, r7
 1175 0a68 032082E2 		add	r2, r2, #3
 1176 0a6c FEFFFFEB 		bl	file_read
 1177 0a70 0010A0E1 		mov	r1, r0
 1178 0a74 010050E3 		cmp	r0, #1
 1179 0a78 5103001A 		bne	.L169
 1180              		.loc 1 874 0
 1181 0a7c 002095E5 		ldr	r2, [r5, #0]
 1182 0a80 0430D5E5 		ldrb	r3, [r5, #4]	@ zero_extendqisi2
 1183 0a84 033CA0E1 		mov	r3, r3, asl #24
 1184 0a88 223483E1 		orr	r3, r3, r2, lsr #8
 1185 0a8c 063083E0 		add	r3, r3, r6
 1186 0a90 0320D3E5 		ldrb	r2, [r3, #3]	@ zero_extendqisi2
 1187 0a94 043093E5 		ldr	r3, [r3, #4]
 1188 0a98 032482E1 		orr	r2, r2, r3, asl #8
 1189 0a9c 042082E0 		add	r2, r2, r4
 1190 0aa0 0700A0E1 		mov	r0, r7
 1191 0aa4 042082E2 		add	r2, r2, #4
 1192 0aa8 FEFFFFEB 		bl	file_read
 1193 0aac 0010A0E1 		mov	r1, r0
 1194 0ab0 010050E3 		cmp	r0, #1
 1195 0ab4 5103001A 		bne	.L169
 1196              		.loc 1 876 0
 1197 0ab8 002095E5 		ldr	r2, [r5, #0]
 1198 0abc 0430D5E5 		ldrb	r3, [r5, #4]	@ zero_extendqisi2
 1199 0ac0 033CA0E1 		mov	r3, r3, asl #24
 1200 0ac4 223483E1 		orr	r3, r3, r2, lsr #8
 1201 0ac8 063083E0 		add	r3, r3, r6
 1202 0acc 0320D3E5 		ldrb	r2, [r3, #3]	@ zero_extendqisi2
 1203 0ad0 043093E5 		ldr	r3, [r3, #4]
 1204 0ad4 032482E1 		orr	r2, r2, r3, asl #8
 1205 0ad8 042082E0 		add	r2, r2, r4
 1206 0adc 0700A0E1 		mov	r0, r7
 1207 0ae0 052082E2 		add	r2, r2, #5
 1208 0ae4 FEFFFFEB 		bl	file_read
 1209 0ae8 0010A0E1 		mov	r1, r0
 1210 0aec 010050E3 		cmp	r0, #1
 1211 0af0 5103001A 		bne	.L169
 1212              		.loc 1 878 0
 1213 0af4 002095E5 		ldr	r2, [r5, #0]
 1214 0af8 0430D5E5 		ldrb	r3, [r5, #4]	@ zero_extendqisi2
 1215 0afc 033CA0E1 		mov	r3, r3, asl #24
 1216 0b00 223483E1 		orr	r3, r3, r2, lsr #8
 1217 0b04 063083E0 		add	r3, r3, r6
 1218 0b08 0320D3E5 		ldrb	r2, [r3, #3]	@ zero_extendqisi2
 1219 0b0c 043093E5 		ldr	r3, [r3, #4]
 1220 0b10 032482E1 		orr	r2, r2, r3, asl #8
 1221 0b14 042082E0 		add	r2, r2, r4
 1222 0b18 0700A0E1 		mov	r0, r7
 1223 0b1c 062082E2 		add	r2, r2, #6
 1224 0b20 FEFFFFEB 		bl	file_read
 1225 0b24 010050E3 		cmp	r0, #1
 1226 0b28 5103001A 		bne	.L169
 1227              		.loc 1 864 0
 1228 0b2c 018088E2 		add	r8, r8, #1
ARM GAS  C:\DOCUME~1\TECHCO~1\LOCALS~1\Temp/ccQdbaaa.s 			page 42


 1229 0b30 003095E5 		ldr	r3, [r5, #0]
 1230 0b34 0420D5E5 		ldrb	r2, [r5, #4]	@ zero_extendqisi2
 1231 0b38 022CA0E1 		mov	r2, r2, asl #24
 1232 0b3c 232482E1 		orr	r2, r2, r3, lsr #8
 1233 0b40 061082E0 		add	r1, r2, r6
 1234 0b44 0230D1E5 		ldrb	r3, [r1, #2]	@ zero_extendqisi2
 1235 0b48 080053E1 		cmp	r3, r8
 1236 0b4c 640200CA 		bgt	.L168
 1237              	.L166:
 1238              		.loc 1 854 0
 1239 0b50 01B08BE2 		add	fp, fp, #1
 1240 0b54 0030DAE5 		ldrb	r3, [sl, #0]	@ zero_extendqisi2
 1241 0b58 0B0053E1 		cmp	r3, fp
 1242 0b5c 2C0200CA 		bgt	.L162
 1243              	.L160:
 1244              		.loc 1 883 0
 1245 0b60 F8019FE5 		ldr	r0, .L199
 1246 0b64 0110A0E3 		mov	r1, #1
 1247 0b68 03208DE2 		add	r2, sp, #3
 1248 0b6c FEFFFFEB 		bl	file_read
 1249 0b70 010050E3 		cmp	r0, #1
 1250 0b74 0400A013 		movne	r0, #4
 1251 0b78 5403001A 		bne	.L157
 1252              		.loc 1 886 0
 1253 0b7c DC019FE5 		ldr	r0, .L199
 1254 0b80 0410A0E3 		mov	r1, #4
 1255 0b84 E0219FE5 		ldr	r2, .L199+12
 1256 0b88 FEFFFFEB 		bl	file_read
 1257 0b8c 040050E3 		cmp	r0, #4
 1258 0b90 0500A013 		movne	r0, #5
 1259 0b94 5403001A 		bne	.L157
 1260              		.loc 1 888 0
 1261 0b98 C8419FE5 		ldr	r4, .L199+8
 1262 0b9c 043094E5 		ldr	r3, [r4, #4]
 1263 0ba0 0800D4E5 		ldrb	r0, [r4, #8]	@ zero_extendqisi2
 1264 0ba4 000CA0E1 		mov	r0, r0, asl #24
 1265 0ba8 230480E1 		orr	r0, r0, r3, lsr #8
 1266 0bac 800080E0 		add	r0, r0, r0, asl #1
 1267 0bb0 0001A0E1 		mov	r0, r0, asl #2
 1268 0bb4 FEFFFFEB 		bl	malloc
 1269 0bb8 0830D4E5 		ldrb	r3, [r4, #8]	@ zero_extendqisi2
 1270 0bbc 003483E1 		orr	r3, r3, r0, asl #8
 1271 0bc0 083084E5 		str	r3, [r4, #8]
 1272 0bc4 200CA0E1 		mov	r0, r0, lsr #24
 1273 0bc8 0C00C4E5 		strb	r0, [r4, #12]
 1274              		.loc 1 890 0
 1275 0bcc 042094E5 		ldr	r2, [r4, #4]
 1276 0bd0 0830D4E5 		ldrb	r3, [r4, #8]	@ zero_extendqisi2
 1277 0bd4 033CA0E1 		mov	r3, r3, asl #24
 1278 0bd8 223493E1 		orrs	r3, r3, r2, lsr #8
 1279 0bdc 3903000A 		beq	.L181
 1280 0be0 00A0A0E3 		mov	sl, #0
 1281              	.LVL107:
 1282 0be4 0A50A0E1 		mov	r5, sl
 1283 0be8 70819FE5 		ldr	r8, .L199
 1284              	.LVL108:
 1285              	.L183:
ARM GAS  C:\DOCUME~1\TECHCO~1\LOCALS~1\Temp/ccQdbaaa.s 			page 43


 1286              		.loc 1 892 0
 1287 0bec 083094E5 		ldr	r3, [r4, #8]
 1288 0bf0 0C20D4E5 		ldrb	r2, [r4, #12]	@ zero_extendqisi2
 1289 0bf4 022CA0E1 		mov	r2, r2, asl #24
 1290 0bf8 232482E1 		orr	r2, r2, r3, lsr #8
 1291 0bfc 0800A0E1 		mov	r0, r8
 1292 0c00 0110A0E3 		mov	r1, #1
 1293 0c04 052082E0 		add	r2, r2, r5
 1294 0c08 FEFFFFEB 		bl	file_read
 1295 0c0c 0010A0E1 		mov	r1, r0
 1296 0c10 010050E3 		cmp	r0, #1
 1297 0c14 5303001A 		bne	.L184
 1298              		.loc 1 894 0
 1299 0c18 083094E5 		ldr	r3, [r4, #8]
 1300 0c1c 0C20D4E5 		ldrb	r2, [r4, #12]	@ zero_extendqisi2
 1301 0c20 022CA0E1 		mov	r2, r2, asl #24
 1302 0c24 232482E1 		orr	r2, r2, r3, lsr #8
 1303 0c28 052082E0 		add	r2, r2, r5
 1304 0c2c 0800A0E1 		mov	r0, r8
 1305 0c30 012082E2 		add	r2, r2, #1
 1306 0c34 FEFFFFEB 		bl	file_read
 1307 0c38 0070A0E1 		mov	r7, r0
 1308 0c3c 010050E3 		cmp	r0, #1
 1309 0c40 5303001A 		bne	.L184
 1310              		.loc 1 896 0
 1311 0c44 083094E5 		ldr	r3, [r4, #8]
 1312 0c48 0C20D4E5 		ldrb	r2, [r4, #12]	@ zero_extendqisi2
 1313 0c4c 022CA0E1 		mov	r2, r2, asl #24
 1314 0c50 232482E1 		orr	r2, r2, r3, lsr #8
 1315 0c54 052082E0 		add	r2, r2, r5
 1316 0c58 0800A0E1 		mov	r0, r8
 1317 0c5c 0410A0E3 		mov	r1, #4
 1318 0c60 022082E2 		add	r2, r2, #2
 1319 0c64 FEFFFFEB 		bl	file_read
 1320 0c68 0060A0E1 		mov	r6, r0
 1321 0c6c 040050E3 		cmp	r0, #4
 1322 0c70 5303001A 		bne	.L184
 1323              		.loc 1 898 0
 1324 0c74 083094E5 		ldr	r3, [r4, #8]
 1325 0c78 0C20D4E5 		ldrb	r2, [r4, #12]	@ zero_extendqisi2
 1326 0c7c 022CA0E1 		mov	r2, r2, asl #24
 1327 0c80 232482E1 		orr	r2, r2, r3, lsr #8
 1328 0c84 052082E0 		add	r2, r2, r5
 1329 0c88 0800A0E1 		mov	r0, r8
 1330 0c8c 0710A0E1 		mov	r1, r7
 1331 0c90 062082E2 		add	r2, r2, #6
 1332 0c94 FEFFFFEB 		bl	file_read
 1333 0c98 010050E3 		cmp	r0, #1
 1334 0c9c 5303001A 		bne	.L184
 1335              		.loc 1 900 0
 1336 0ca0 083094E5 		ldr	r3, [r4, #8]
 1337 0ca4 0C20D4E5 		ldrb	r2, [r4, #12]	@ zero_extendqisi2
 1338 0ca8 022CA0E1 		mov	r2, r2, asl #24
 1339 0cac 232482E1 		orr	r2, r2, r3, lsr #8
 1340 0cb0 052082E0 		add	r2, r2, r5
 1341 0cb4 0800A0E1 		mov	r0, r8
 1342 0cb8 0610A0E1 		mov	r1, r6
ARM GAS  C:\DOCUME~1\TECHCO~1\LOCALS~1\Temp/ccQdbaaa.s 			page 44


 1343 0cbc 072082E2 		add	r2, r2, #7
 1344 0cc0 FEFFFFEB 		bl	file_read
 1345 0cc4 040050E3 		cmp	r0, #4
 1346 0cc8 5303001A 		bne	.L184
 1347              		.loc 1 890 0
 1348 0ccc 01A08AE2 		add	sl, sl, #1
 1349 0cd0 0C5085E2 		add	r5, r5, #12
 1350 0cd4 042094E5 		ldr	r2, [r4, #4]
 1351 0cd8 0830D4E5 		ldrb	r3, [r4, #8]	@ zero_extendqisi2
 1352 0cdc 033CA0E1 		mov	r3, r3, asl #24
 1353 0ce0 223483E1 		orr	r3, r3, r2, lsr #8
 1354 0ce4 0A0053E1 		cmp	r3, sl
 1355 0ce8 F902008A 		bhi	.L183
 1356              	.LVL109:
 1357              	.L181:
 1358              		.loc 1 904 0
 1359 0cec 6C009FE5 		ldr	r0, .L199
 1360 0cf0 0110A0E3 		mov	r1, #1
 1361 0cf4 02208DE2 		add	r2, sp, #2
 1362 0cf8 FEFFFFEB 		bl	file_read
 1363 0cfc 010050E3 		cmp	r0, #1
 1364 0d00 0700A013 		movne	r0, #7
 1365 0d04 5403001A 		bne	.L157
 1366              		.loc 1 907 0
 1367 0d08 FEFFFFEB 		bl	cube_checksum_generator
 1368              	.LVL110:
 1369 0d0c 0330DDE5 		ldrb	r3, [sp, #3]	@ zero_extendqisi2
 1370 0d10 000053E1 		cmp	r3, r0
 1371 0d14 4803001A 		bne	.L192
 1372              	.LVL111:
 1373 0d18 FEFFFFEB 		bl	state_checksum_generator
 1374              	.LVL112:
 1375 0d1c 0230DDE5 		ldrb	r3, [sp, #2]	@ zero_extendqisi2
 1376 0d20 000053E1 		cmp	r3, r0
 1377 0d24 4B03000A 		beq	.L194
 1378              	.LVL113:
 1379              	.L192:
 1380              		.loc 1 910 0
 1381 0d28 FEFFFFEB 		bl	deleteMorphology
 1382              	.LVL114:
 1383 0d2c 0800A0E3 		mov	r0, #8
 1384 0d30 540300EA 		b	.L157
 1385              	.LVL115:
 1386              	.L194:
 1387              		.loc 1 914 0
 1388 0d34 24009FE5 		ldr	r0, .L199
 1389 0d38 FEFFFFEB 		bl	file_fclose
 1390              	.LVL116:
 1391 0d3c 0000A0E3 		mov	r0, #0
 1392 0d40 540300EA 		b	.L157
 1393              	.LVL117:
 1394              	.L158:
 1395              		.loc 1 916 0
 1396 0d44 0200A0E3 		mov	r0, #2
 1397 0d48 540300EA 		b	.L157
 1398              	.L169:
 1399 0d4c 0300A0E3 		mov	r0, #3
ARM GAS  C:\DOCUME~1\TECHCO~1\LOCALS~1\Temp/ccQdbaaa.s 			page 45


 1400 0d50 540300EA 		b	.L157
 1401              	.LVL118:
 1402              	.L184:
 1403 0d54 0600A0E3 		mov	r0, #6
 1404              	.LVL119:
 1405              	.L157:
 1406              		.loc 1 917 0
 1407 0d58 04D08DE2 		add	sp, sp, #4
 1408 0d5c F08FBDE8 		ldmfd	sp!, {r4, r5, r6, r7, r8, r9, sl, fp, pc}
 1409              	.L200:
 1410              		.align	2
 1411              	.L199:
 1412 0d60 00000000 		.word	filer
 1413 0d64 84020000 		.word	efs+644
 1414 0d68 00000000 		.word	cubemorph
 1415 0d6c 05000000 		.word	cubemorph+5
 1416              	.LFE27:
 1417              		.size	buildMorphologyFromFile, .-buildMorphologyFromFile
 1418              		.align	2
 1419              		.global	writeMorphologyToFile
 1420              		.type	writeMorphologyToFile, %function
 1421              	writeMorphologyToFile:
 1422              	.LFB26:
 1423              		.loc 1 775 0
 1424              		@ args = 0, pretend = 0, frame = 4
 1425              		@ frame_needed = 0, uses_anonymous_args = 0
 1426              	.LVL120:
 1427 0d70 F04F2DE9 		stmfd	sp!, {r4, r5, r6, r7, r8, r9, sl, fp, lr}
 1428              	.LCFI12:
 1429 0d74 04D04DE2 		sub	sp, sp, #4
 1430              	.LCFI13:
 1431 0d78 0040A0E1 		mov	r4, r0
 1432              		.loc 1 778 0
 1433 0d7c FEFFFFEB 		bl	cube_checksum_generator
 1434              	.LVL121:
 1435 0d80 0300CDE5 		strb	r0, [sp, #3]
 1436              	.LVL122:
 1437              		.loc 1 779 0
 1438 0d84 FEFFFFEB 		bl	state_checksum_generator
 1439 0d88 0200CDE5 		strb	r0, [sp, #2]
 1440              	.LVL123:
 1441              		.loc 1 781 0
 1442 0d8c 74049FE5 		ldr	r0, .L242
 1443 0d90 74149FE5 		ldr	r1, .L242+4
 1444 0d94 0420A0E1 		mov	r2, r4
 1445 0d98 7730A0E3 		mov	r3, #119
 1446 0d9c FEFFFFEB 		bl	file_fopen
 1447 0da0 FF0010E2 		ands	r0, r0, #255
 1448 0da4 003CA011 		movne	r3, r0, asl #24
 1449 0da8 430CA011 		movne	r0, r3, asr #24
 1450              	.LVL124:
 1451 0dac 7E04001A 		bne	.L204
 1452              		.loc 1 784 0
 1453 0db0 58449FE5 		ldr	r4, .L242+8
 1454              	.LVL125:
 1455 0db4 4C049FE5 		ldr	r0, .L242
 1456              	.LVL126:
ARM GAS  C:\DOCUME~1\TECHCO~1\LOCALS~1\Temp/ccQdbaaa.s 			page 46


 1457 0db8 0110A0E3 		mov	r1, #1
 1458 0dbc 0420A0E1 		mov	r2, r4
 1459 0dc0 FEFFFFEB 		bl	file_write
 1460 0dc4 010050E3 		cmp	r0, #1
 1461 0dc8 7704001A 		bne	.L205
 1462              		.loc 1 786 0
 1463 0dcc 0030D4E5 		ldrb	r3, [r4, #0]	@ zero_extendqisi2
 1464 0dd0 000053E3 		cmp	r3, #0
 1465 0dd4 140400DA 		ble	.L207
 1466 0dd8 00B0A0E3 		mov	fp, #0
 1467              	.LVL127:
 1468 0ddc 24949FE5 		ldr	r9, .L242
 1469 0de0 04A0A0E1 		mov	sl, r4
 1470              	.LVL128:
 1471              	.L209:
 1472 0de4 8B61A0E1 		mov	r6, fp, asl #3
 1473              		.loc 1 788 0
 1474 0de8 00309AE5 		ldr	r3, [sl, #0]
 1475 0dec 0420DAE5 		ldrb	r2, [sl, #4]	@ zero_extendqisi2
 1476 0df0 022CA0E1 		mov	r2, r2, asl #24
 1477 0df4 232482E1 		orr	r2, r2, r3, lsr #8
 1478 0df8 0900A0E1 		mov	r0, r9
 1479 0dfc 0110A0E3 		mov	r1, #1
 1480 0e00 062082E0 		add	r2, r2, r6
 1481 0e04 FEFFFFEB 		bl	file_write
 1482 0e08 0010A0E1 		mov	r1, r0
 1483 0e0c 010050E3 		cmp	r0, #1
 1484 0e10 7704001A 		bne	.L205
 1485              		.loc 1 790 0
 1486 0e14 00309AE5 		ldr	r3, [sl, #0]
 1487 0e18 0420DAE5 		ldrb	r2, [sl, #4]	@ zero_extendqisi2
 1488 0e1c 022CA0E1 		mov	r2, r2, asl #24
 1489 0e20 232482E1 		orr	r2, r2, r3, lsr #8
 1490 0e24 062082E0 		add	r2, r2, r6
 1491 0e28 0900A0E1 		mov	r0, r9
 1492 0e2c 012082E2 		add	r2, r2, #1
 1493 0e30 FEFFFFEB 		bl	file_write
 1494 0e34 0010A0E1 		mov	r1, r0
 1495 0e38 010050E3 		cmp	r0, #1
 1496 0e3c 7704001A 		bne	.L205
 1497              		.loc 1 792 0
 1498 0e40 00309AE5 		ldr	r3, [sl, #0]
 1499 0e44 0420DAE5 		ldrb	r2, [sl, #4]	@ zero_extendqisi2
 1500 0e48 022CA0E1 		mov	r2, r2, asl #24
 1501 0e4c 232482E1 		orr	r2, r2, r3, lsr #8
 1502 0e50 062082E0 		add	r2, r2, r6
 1503 0e54 0900A0E1 		mov	r0, r9
 1504 0e58 022082E2 		add	r2, r2, #2
 1505 0e5c FEFFFFEB 		bl	file_write
 1506 0e60 010050E3 		cmp	r0, #1
 1507 0e64 7704001A 		bne	.L205
 1508              		.loc 1 795 0
 1509 0e68 00309AE5 		ldr	r3, [sl, #0]
 1510 0e6c 0420DAE5 		ldrb	r2, [sl, #4]	@ zero_extendqisi2
 1511 0e70 022CA0E1 		mov	r2, r2, asl #24
 1512 0e74 232482E1 		orr	r2, r2, r3, lsr #8
 1513 0e78 061082E0 		add	r1, r2, r6
ARM GAS  C:\DOCUME~1\TECHCO~1\LOCALS~1\Temp/ccQdbaaa.s 			page 47


 1514 0e7c 0230D1E5 		ldrb	r3, [r1, #2]	@ zero_extendqisi2
 1515 0e80 000053E3 		cmp	r3, #0
 1516 0e84 100400DA 		ble	.L213
 1517 0e88 0080A0E3 		mov	r8, #0
 1518 0e8c 74739FE5 		ldr	r7, .L242
 1519              	.L215:
 1520 0e90 8841A0E1 		mov	r4, r8, asl #3
 1521              		.loc 1 797 0
 1522 0e94 0320D1E5 		ldrb	r2, [r1, #3]	@ zero_extendqisi2
 1523 0e98 043091E5 		ldr	r3, [r1, #4]
 1524 0e9c 032482E1 		orr	r2, r2, r3, asl #8
 1525 0ea0 0700A0E1 		mov	r0, r7
 1526 0ea4 0110A0E3 		mov	r1, #1
 1527 0ea8 042082E0 		add	r2, r2, r4
 1528 0eac FEFFFFEB 		bl	file_write
 1529 0eb0 0010A0E1 		mov	r1, r0
 1530 0eb4 010050E3 		cmp	r0, #1
 1531 0eb8 7904001A 		bne	.L216
 1532              		.loc 1 799 0
 1533 0ebc 4C539FE5 		ldr	r5, .L242+8
 1534 0ec0 002095E5 		ldr	r2, [r5, #0]
 1535 0ec4 0430D5E5 		ldrb	r3, [r5, #4]	@ zero_extendqisi2
 1536 0ec8 033CA0E1 		mov	r3, r3, asl #24
 1537 0ecc 223483E1 		orr	r3, r3, r2, lsr #8
 1538 0ed0 063083E0 		add	r3, r3, r6
 1539 0ed4 0320D3E5 		ldrb	r2, [r3, #3]	@ zero_extendqisi2
 1540 0ed8 043093E5 		ldr	r3, [r3, #4]
 1541 0edc 032482E1 		orr	r2, r2, r3, asl #8
 1542 0ee0 042082E0 		add	r2, r2, r4
 1543 0ee4 0700A0E1 		mov	r0, r7
 1544 0ee8 012082E2 		add	r2, r2, #1
 1545 0eec FEFFFFEB 		bl	file_write
 1546 0ef0 0010A0E1 		mov	r1, r0
 1547 0ef4 010050E3 		cmp	r0, #1
 1548 0ef8 7904001A 		bne	.L216
 1549              		.loc 1 801 0
 1550 0efc 002095E5 		ldr	r2, [r5, #0]
 1551 0f00 0430D5E5 		ldrb	r3, [r5, #4]	@ zero_extendqisi2
 1552 0f04 033CA0E1 		mov	r3, r3, asl #24
 1553 0f08 223483E1 		orr	r3, r3, r2, lsr #8
 1554 0f0c 063083E0 		add	r3, r3, r6
 1555 0f10 0320D3E5 		ldrb	r2, [r3, #3]	@ zero_extendqisi2
 1556 0f14 043093E5 		ldr	r3, [r3, #4]
 1557 0f18 032482E1 		orr	r2, r2, r3, asl #8
 1558 0f1c 042082E0 		add	r2, r2, r4
 1559 0f20 0700A0E1 		mov	r0, r7
 1560 0f24 022082E2 		add	r2, r2, #2
 1561 0f28 FEFFFFEB 		bl	file_write
 1562 0f2c 0010A0E1 		mov	r1, r0
 1563 0f30 010050E3 		cmp	r0, #1
 1564 0f34 7904001A 		bne	.L216
 1565              		.loc 1 803 0
 1566 0f38 002095E5 		ldr	r2, [r5, #0]
 1567 0f3c 0430D5E5 		ldrb	r3, [r5, #4]	@ zero_extendqisi2
 1568 0f40 033CA0E1 		mov	r3, r3, asl #24
 1569 0f44 223483E1 		orr	r3, r3, r2, lsr #8
 1570 0f48 063083E0 		add	r3, r3, r6
ARM GAS  C:\DOCUME~1\TECHCO~1\LOCALS~1\Temp/ccQdbaaa.s 			page 48


 1571 0f4c 0320D3E5 		ldrb	r2, [r3, #3]	@ zero_extendqisi2
 1572 0f50 043093E5 		ldr	r3, [r3, #4]
 1573 0f54 032482E1 		orr	r2, r2, r3, asl #8
 1574 0f58 022084E0 		add	r2, r4, r2
 1575 0f5c 0700A0E1 		mov	r0, r7
 1576 0f60 032082E2 		add	r2, r2, #3
 1577 0f64 FEFFFFEB 		bl	file_write
 1578 0f68 0010A0E1 		mov	r1, r0
 1579 0f6c 010050E3 		cmp	r0, #1
 1580 0f70 7904001A 		bne	.L216
 1581              		.loc 1 805 0
 1582 0f74 002095E5 		ldr	r2, [r5, #0]
 1583 0f78 0430D5E5 		ldrb	r3, [r5, #4]	@ zero_extendqisi2
 1584 0f7c 033CA0E1 		mov	r3, r3, asl #24
 1585 0f80 223483E1 		orr	r3, r3, r2, lsr #8
 1586 0f84 033086E0 		add	r3, r6, r3
 1587 0f88 0320D3E5 		ldrb	r2, [r3, #3]	@ zero_extendqisi2
 1588 0f8c 043093E5 		ldr	r3, [r3, #4]
 1589 0f90 032482E1 		orr	r2, r2, r3, asl #8
 1590 0f94 022084E0 		add	r2, r4, r2
 1591 0f98 0700A0E1 		mov	r0, r7
 1592 0f9c 042082E2 		add	r2, r2, #4
 1593 0fa0 FEFFFFEB 		bl	file_write
 1594 0fa4 0010A0E1 		mov	r1, r0
 1595 0fa8 010050E3 		cmp	r0, #1
 1596 0fac 7904001A 		bne	.L216
 1597              		.loc 1 807 0
 1598 0fb0 002095E5 		ldr	r2, [r5, #0]
 1599 0fb4 0430D5E5 		ldrb	r3, [r5, #4]	@ zero_extendqisi2
 1600 0fb8 033CA0E1 		mov	r3, r3, asl #24
 1601 0fbc 223483E1 		orr	r3, r3, r2, lsr #8
 1602 0fc0 033086E0 		add	r3, r6, r3
 1603 0fc4 0320D3E5 		ldrb	r2, [r3, #3]	@ zero_extendqisi2
 1604 0fc8 043093E5 		ldr	r3, [r3, #4]
 1605 0fcc 032482E1 		orr	r2, r2, r3, asl #8
 1606 0fd0 022084E0 		add	r2, r4, r2
 1607 0fd4 0700A0E1 		mov	r0, r7
 1608 0fd8 052082E2 		add	r2, r2, #5
 1609 0fdc FEFFFFEB 		bl	file_write
 1610 0fe0 0010A0E1 		mov	r1, r0
 1611 0fe4 010050E3 		cmp	r0, #1
 1612 0fe8 7904001A 		bne	.L216
 1613              		.loc 1 809 0
 1614 0fec 002095E5 		ldr	r2, [r5, #0]
 1615 0ff0 0430D5E5 		ldrb	r3, [r5, #4]	@ zero_extendqisi2
 1616 0ff4 033CA0E1 		mov	r3, r3, asl #24
 1617 0ff8 223483E1 		orr	r3, r3, r2, lsr #8
 1618 0ffc 033086E0 		add	r3, r6, r3
 1619 1000 0320D3E5 		ldrb	r2, [r3, #3]	@ zero_extendqisi2
 1620 1004 043093E5 		ldr	r3, [r3, #4]
 1621 1008 032482E1 		orr	r2, r2, r3, asl #8
 1622 100c 022084E0 		add	r2, r4, r2
 1623 1010 0700A0E1 		mov	r0, r7
 1624 1014 062082E2 		add	r2, r2, #6
 1625 1018 FEFFFFEB 		bl	file_write
 1626 101c 010050E3 		cmp	r0, #1
 1627 1020 7904001A 		bne	.L216
ARM GAS  C:\DOCUME~1\TECHCO~1\LOCALS~1\Temp/ccQdbaaa.s 			page 49


 1628              		.loc 1 795 0
 1629 1024 018088E2 		add	r8, r8, #1
 1630 1028 003095E5 		ldr	r3, [r5, #0]
 1631 102c 0420D5E5 		ldrb	r2, [r5, #4]	@ zero_extendqisi2
 1632 1030 022CA0E1 		mov	r2, r2, asl #24
 1633 1034 232482E1 		orr	r2, r2, r3, lsr #8
 1634 1038 061082E0 		add	r1, r2, r6
 1635 103c 0230D1E5 		ldrb	r3, [r1, #2]	@ zero_extendqisi2
 1636 1040 080053E1 		cmp	r3, r8
 1637 1044 A20300CA 		bgt	.L215
 1638              	.L213:
 1639              		.loc 1 786 0
 1640 1048 01B08BE2 		add	fp, fp, #1
 1641 104c 0030DAE5 		ldrb	r3, [sl, #0]	@ zero_extendqisi2
 1642 1050 0B0053E1 		cmp	r3, fp
 1643 1054 770300CA 		bgt	.L209
 1644              	.L207:
 1645              		.loc 1 814 0
 1646 1058 A8419FE5 		ldr	r4, .L242
 1647 105c 0400A0E1 		mov	r0, r4
 1648 1060 0110A0E3 		mov	r1, #1
 1649 1064 03208DE2 		add	r2, sp, #3
 1650 1068 FEFFFFEB 		bl	file_write
 1651 106c 010050E3 		cmp	r0, #1
 1652 1070 7B04001A 		bne	.L224
 1653              		.loc 1 817 0
 1654 1074 0400A0E1 		mov	r0, r4
 1655 1078 0410A0E3 		mov	r1, #4
 1656 107c 90219FE5 		ldr	r2, .L242+12
 1657 1080 FEFFFFEB 		bl	file_write
 1658 1084 040050E3 		cmp	r0, #4
 1659 1088 0500A013 		movne	r0, #5
 1660              	.LVL129:
 1661 108c 7E04001A 		bne	.L204
 1662              		.loc 1 820 0
 1663 1090 78319FE5 		ldr	r3, .L242+8
 1664 1094 042093E5 		ldr	r2, [r3, #4]
 1665 1098 0830D3E5 		ldrb	r3, [r3, #8]	@ zero_extendqisi2
 1666 109c 033CA0E1 		mov	r3, r3, asl #24
 1667 10a0 223493E1 		orrs	r3, r3, r2, lsr #8
 1668 10a4 6C04000A 		beq	.L228
 1669 10a8 00A0A0E3 		mov	sl, #0
 1670              	.LVL130:
 1671 10ac 0A50A0E1 		mov	r5, sl
 1672 10b0 50819FE5 		ldr	r8, .L242
 1673              	.LVL131:
 1674 10b4 54419FE5 		ldr	r4, .L242+8
 1675              	.L230:
 1676              		.loc 1 822 0
 1677 10b8 083094E5 		ldr	r3, [r4, #8]
 1678 10bc 0C20D4E5 		ldrb	r2, [r4, #12]	@ zero_extendqisi2
 1679 10c0 022CA0E1 		mov	r2, r2, asl #24
 1680 10c4 232482E1 		orr	r2, r2, r3, lsr #8
 1681 10c8 0800A0E1 		mov	r0, r8
 1682              	.LVL132:
 1683 10cc 0110A0E3 		mov	r1, #1
 1684 10d0 052082E0 		add	r2, r2, r5
ARM GAS  C:\DOCUME~1\TECHCO~1\LOCALS~1\Temp/ccQdbaaa.s 			page 50


 1685 10d4 FEFFFFEB 		bl	file_write
 1686 10d8 0010A0E1 		mov	r1, r0
 1687 10dc 010050E3 		cmp	r0, #1
 1688 10e0 7D04001A 		bne	.L231
 1689              		.loc 1 824 0
 1690 10e4 083094E5 		ldr	r3, [r4, #8]
 1691 10e8 0C20D4E5 		ldrb	r2, [r4, #12]	@ zero_extendqisi2
 1692 10ec 022CA0E1 		mov	r2, r2, asl #24
 1693 10f0 232482E1 		orr	r2, r2, r3, lsr #8
 1694 10f4 052082E0 		add	r2, r2, r5
 1695 10f8 0800A0E1 		mov	r0, r8
 1696 10fc 012082E2 		add	r2, r2, #1
 1697 1100 FEFFFFEB 		bl	file_write
 1698 1104 0070A0E1 		mov	r7, r0
 1699 1108 010050E3 		cmp	r0, #1
 1700 110c 7D04001A 		bne	.L231
 1701              		.loc 1 826 0
 1702 1110 083094E5 		ldr	r3, [r4, #8]
 1703 1114 0C20D4E5 		ldrb	r2, [r4, #12]	@ zero_extendqisi2
 1704 1118 022CA0E1 		mov	r2, r2, asl #24
 1705 111c 232482E1 		orr	r2, r2, r3, lsr #8
 1706 1120 052082E0 		add	r2, r2, r5
 1707 1124 0800A0E1 		mov	r0, r8
 1708 1128 0410A0E3 		mov	r1, #4
 1709 112c 022082E2 		add	r2, r2, #2
 1710 1130 FEFFFFEB 		bl	file_write
 1711 1134 0060A0E1 		mov	r6, r0
 1712 1138 040050E3 		cmp	r0, #4
 1713 113c 7D04001A 		bne	.L231
 1714              		.loc 1 828 0
 1715 1140 083094E5 		ldr	r3, [r4, #8]
 1716 1144 0C20D4E5 		ldrb	r2, [r4, #12]	@ zero_extendqisi2
 1717 1148 022CA0E1 		mov	r2, r2, asl #24
 1718 114c 232482E1 		orr	r2, r2, r3, lsr #8
 1719 1150 052082E0 		add	r2, r2, r5
 1720 1154 0800A0E1 		mov	r0, r8
 1721 1158 0710A0E1 		mov	r1, r7
 1722 115c 062082E2 		add	r2, r2, #6
 1723 1160 FEFFFFEB 		bl	file_write
 1724 1164 010050E3 		cmp	r0, #1
 1725 1168 7D04001A 		bne	.L231
 1726              		.loc 1 830 0
 1727 116c 083094E5 		ldr	r3, [r4, #8]
 1728 1170 0C20D4E5 		ldrb	r2, [r4, #12]	@ zero_extendqisi2
 1729 1174 022CA0E1 		mov	r2, r2, asl #24
 1730 1178 232482E1 		orr	r2, r2, r3, lsr #8
 1731 117c 052082E0 		add	r2, r2, r5
 1732 1180 0800A0E1 		mov	r0, r8
 1733 1184 0610A0E1 		mov	r1, r6
 1734 1188 072082E2 		add	r2, r2, #7
 1735 118c FEFFFFEB 		bl	file_write
 1736 1190 040050E3 		cmp	r0, #4
 1737 1194 7D04001A 		bne	.L231
 1738              		.loc 1 820 0
 1739 1198 01A08AE2 		add	sl, sl, #1
 1740 119c 0C5085E2 		add	r5, r5, #12
 1741 11a0 042094E5 		ldr	r2, [r4, #4]
ARM GAS  C:\DOCUME~1\TECHCO~1\LOCALS~1\Temp/ccQdbaaa.s 			page 51


 1742 11a4 0830D4E5 		ldrb	r3, [r4, #8]	@ zero_extendqisi2
 1743 11a8 033CA0E1 		mov	r3, r3, asl #24
 1744 11ac 223483E1 		orr	r3, r3, r2, lsr #8
 1745 11b0 0A0053E1 		cmp	r3, sl
 1746 11b4 2C04008A 		bhi	.L230
 1747              	.LVL133:
 1748              	.L228:
 1749              		.loc 1 834 0
 1750 11b8 48409FE5 		ldr	r4, .L242
 1751 11bc 0400A0E1 		mov	r0, r4
 1752              	.LVL134:
 1753 11c0 0110A0E3 		mov	r1, #1
 1754 11c4 02208DE2 		add	r2, sp, #2
 1755 11c8 FEFFFFEB 		bl	file_write
 1756 11cc 010050E3 		cmp	r0, #1
 1757 11d0 7B04001A 		bne	.L224
 1758              		.loc 1 837 0
 1759 11d4 0400A0E1 		mov	r0, r4
 1760 11d8 FEFFFFEB 		bl	file_fclose
 1761 11dc 0000A0E3 		mov	r0, #0
 1762              	.LVL135:
 1763 11e0 7E0400EA 		b	.L204
 1764              	.LVL136:
 1765              	.L205:
 1766              		.loc 1 838 0
 1767 11e4 0200A0E3 		mov	r0, #2
 1768              	.LVL137:
 1769 11e8 7E0400EA 		b	.L204
 1770              	.LVL138:
 1771              	.L216:
 1772 11ec 0300A0E3 		mov	r0, #3
 1773              	.LVL139:
 1774 11f0 7E0400EA 		b	.L204
 1775              	.LVL140:
 1776              	.L224:
 1777 11f4 0400A0E3 		mov	r0, #4
 1778              	.LVL141:
 1779 11f8 7E0400EA 		b	.L204
 1780              	.LVL142:
 1781              	.L231:
 1782 11fc 0600A0E3 		mov	r0, #6
 1783              	.LVL143:
 1784              	.L204:
 1785              	.LVL144:
 1786              		.loc 1 839 0
 1787 1200 04D08DE2 		add	sp, sp, #4
 1788 1204 F08FBDE8 		ldmfd	sp!, {r4, r5, r6, r7, r8, r9, sl, fp, pc}
 1789              	.L243:
 1790              		.align	2
 1791              	.L242:
 1792 1208 00000000 		.word	filer
 1793 120c 84020000 		.word	efs+644
 1794 1210 00000000 		.word	cubemorph
 1795 1214 05000000 		.word	cubemorph+5
 1796              	.LFE26:
 1797              		.size	writeMorphologyToFile, .-writeMorphologyToFile
 1798              		.align	2
ARM GAS  C:\DOCUME~1\TECHCO~1\LOCALS~1\Temp/ccQdbaaa.s 			page 52


 1799              		.global	enableAngleTracking
 1800              		.type	enableAngleTracking, %function
 1801              	enableAngleTracking:
 1802              	.LFB25:
 1803              		.loc 1 744 0
 1804              		@ args = 0, pretend = 0, frame = 0
 1805              		@ frame_needed = 0, uses_anonymous_args = 0
 1806              	.LVL145:
 1807 1218 70402DE9 		stmfd	sp!, {r4, r5, r6, lr}
 1808              	.LCFI14:
 1809 121c 0040A0E1 		mov	r4, r0
 1810              		.loc 1 748 0
 1811 1220 0030D0E5 		ldrb	r3, [r0, #0]	@ zero_extendqisi2
 1812 1224 000053E3 		cmp	r3, #0
 1813 1228 BF0400DA 		ble	.L245
 1814 122c 0060A0E3 		mov	r6, #0
 1815              	.LVL146:
 1816              	.L247:
 1817 1230 8651A0E1 		mov	r5, r6, asl #3
 1818              		.loc 1 750 0
 1819 1234 003094E5 		ldr	r3, [r4, #0]
 1820 1238 0420D4E5 		ldrb	r2, [r4, #4]	@ zero_extendqisi2
 1821 123c 022CA0E1 		mov	r2, r2, asl #24
 1822 1240 232482E1 		orr	r2, r2, r3, lsr #8
 1823 1244 051082E0 		add	r1, r2, r5
 1824 1248 0130D1E5 		ldrb	r3, [r1, #1]	@ zero_extendqisi2
 1825 124c FA0053E3 		cmp	r3, #250
 1826 1250 BB04001A 		bne	.L248
 1827              	.LVL147:
 1828              	.LBB2:
 1829              		.loc 1 752 0
 1830 1254 0400A0E1 		mov	r0, r4
 1831 1258 0020A0E3 		mov	r2, #0
 1832 125c FEFFFFEB 		bl	getCubeState
 1833              		.loc 1 753 0
 1834 1260 000050E3 		cmp	r0, #0
 1835              	.LVL148:
 1836 1264 9A04001A 		bne	.L250
 1837 1268 0C00A0E3 		mov	r0, #12
 1838              	.LVL149:
 1839 126c 7080BDE8 		ldmfd	sp!, {r4, r5, r6, pc}
 1840              	.LVL150:
 1841              	.L250:
 1842              		.loc 1 757 0
 1843 1270 003094E5 		ldr	r3, [r4, #0]
 1844 1274 0410D4E5 		ldrb	r1, [r4, #4]	@ zero_extendqisi2
 1845 1278 011CA0E1 		mov	r1, r1, asl #24
 1846 127c 231481E1 		orr	r1, r1, r3, lsr #8
 1847 1280 05C081E0 		add	ip, r1, r5
 1848 1284 0720D0E5 		ldrb	r2, [r0, #7]	@ zero_extendqisi2
 1849 1288 083090E5 		ldr	r3, [r0, #8]
 1850 128c 032482E1 		orr	r2, r2, r3, asl #8
 1851 1290 0228A0E1 		mov	r2, r2, asl #16
 1852 1294 0500D1E7 		ldrb	r0, [r1, r5]	@ zero_extendqisi2
 1853              	.LVL151:
 1854 1298 0110DCE5 		ldrb	r1, [ip, #1]	@ zero_extendqisi2
 1855 129c 2228A0E1 		mov	r2, r2, lsr #16
ARM GAS  C:\DOCUME~1\TECHCO~1\LOCALS~1\Temp/ccQdbaaa.s 			page 53


 1856 12a0 0030A0E3 		mov	r3, #0
 1857 12a4 FEFFFFEB 		bl	setServoSpeedAndAngle
 1858 12a8 000050E3 		cmp	r0, #0
 1859 12ac AD04000A 		beq	.L253
 1860              		.loc 1 759 0
 1861 12b0 FEFFFFEB 		bl	printCommandErrorCode
 1862 12b4 0200A0E3 		mov	r0, #2
 1863 12b8 7080BDE8 		ldmfd	sp!, {r4, r5, r6, pc}
 1864              	.L253:
 1865              		.loc 1 764 0
 1866 12bc 003094E5 		ldr	r3, [r4, #0]
 1867 12c0 0420D4E5 		ldrb	r2, [r4, #4]	@ zero_extendqisi2
 1868 12c4 022CA0E1 		mov	r2, r2, asl #24
 1869 12c8 232482E1 		orr	r2, r2, r3, lsr #8
 1870 12cc 053082E0 		add	r3, r2, r5
 1871 12d0 0500D2E7 		ldrb	r0, [r2, r5]	@ zero_extendqisi2
 1872 12d4 0110D3E5 		ldrb	r1, [r3, #1]	@ zero_extendqisi2
 1873 12d8 0120A0E3 		mov	r2, #1
 1874 12dc FEFFFFEB 		bl	setServoAngleTracking
 1875 12e0 000050E3 		cmp	r0, #0
 1876 12e4 BB04000A 		beq	.L248
 1877              		.loc 1 766 0
 1878 12e8 FEFFFFEB 		bl	printCommandErrorCode
 1879 12ec 0200A0E3 		mov	r0, #2
 1880 12f0 7080BDE8 		ldmfd	sp!, {r4, r5, r6, pc}
 1881              	.LVL152:
 1882              	.L248:
 1883              	.LBE2:
 1884              		.loc 1 748 0
 1885 12f4 016086E2 		add	r6, r6, #1
 1886 12f8 0030D4E5 		ldrb	r3, [r4, #0]	@ zero_extendqisi2
 1887 12fc 060053E1 		cmp	r3, r6
 1888 1300 8A0400CA 		bgt	.L247
 1889              	.LVL153:
 1890              	.L245:
 1891 1304 0000A0E3 		mov	r0, #0
 1892              	.LVL154:
 1893              		.loc 1 772 0
 1894 1308 7080BDE8 		ldmfd	sp!, {r4, r5, r6, pc}
 1895              	.LFE25:
 1896              		.size	enableAngleTracking, .-enableAngleTracking
 1897              		.align	2
 1898              		.global	insertNewLinkEntry
 1899              		.type	insertNewLinkEntry, %function
 1900              	insertNewLinkEntry:
 1901              	.LFB23:
 1902              		.loc 1 653 0
 1903              		@ args = 20, pretend = 0, frame = 8
 1904              		@ frame_needed = 0, uses_anonymous_args = 0
 1905              	.LVL155:
 1906 130c F04F2DE9 		stmfd	sp!, {r4, r5, r6, r7, r8, r9, sl, fp, lr}
 1907              	.LCFI15:
 1908 1310 08D04DE2 		sub	sp, sp, #8
 1909              	.LCFI16:
 1910 1314 0050A0E1 		mov	r5, r0
 1911 1318 FF8001E2 		and	r8, r1, #255
 1912 131c FFB002E2 		and	fp, r2, #255
ARM GAS  C:\DOCUME~1\TECHCO~1\LOCALS~1\Temp/ccQdbaaa.s 			page 54


 1913 1320 FFA003E2 		and	sl, r3, #255
 1914 1324 3060DDE5 		ldrb	r6, [sp, #48]	@ zero_extendqisi2
 1915 1328 3490DDE5 		ldrb	r9, [sp, #52]	@ zero_extendqisi2
 1916 132c 3870DDE5 		ldrb	r7, [sp, #56]	@ zero_extendqisi2
 1917              		.loc 1 656 0
 1918 1330 2C00DDE5 		ldrb	r0, [sp, #44]	@ zero_extendqisi2
 1919              	.LVL156:
 1920 1334 3C10DDE5 		ldrb	r1, [sp, #60]	@ zero_extendqisi2
 1921              	.LVL157:
 1922 1338 07208DE2 		add	r2, sp, #7
 1923              	.LVL158:
 1924 133c FEFFFFEB 		bl	getPinOrientation
 1925              	.LVL159:
 1926 1340 000050E3 		cmp	r0, #0
 1927 1344 0400A013 		movne	r0, #4
 1928 1348 5B05001A 		bne	.L261
 1929              	.LVL160:
 1930              		.loc 1 663 0
 1931 134c 0500A0E1 		mov	r0, r5
 1932 1350 0810A0E1 		mov	r1, r8
 1933 1354 FEFFFFEB 		bl	getCube
 1934              		.loc 1 664 0
 1935 1358 004050E2 		subs	r4, r0, #0
 1936              	.LVL161:
 1937 135c 5605000A 		beq	.L262
 1938              		.loc 1 668 0
 1939 1360 0500A0E1 		mov	r0, r5
 1940 1364 0610A0E1 		mov	r1, r6
 1941 1368 FEFFFFEB 		bl	getCube
 1942              		.loc 1 669 0
 1943 136c 005050E2 		subs	r5, r0, #0
 1944              	.LVL162:
 1945 1370 5605000A 		beq	.L262
 1946              		.loc 1 672 0
 1947 1374 0400A0E1 		mov	r0, r4
 1948 1378 0A10A0E1 		mov	r1, sl
 1949 137c FEFFFFEB 		bl	getCubeLink
 1950 1380 000050E3 		cmp	r0, #0
 1951 1384 5805001A 		bne	.L265
 1952              		.loc 1 675 0
 1953 1388 0500A0E1 		mov	r0, r5
 1954 138c 0710A0E1 		mov	r1, r7
 1955 1390 FEFFFFEB 		bl	getCubeLink
 1956 1394 000050E3 		cmp	r0, #0
 1957 1398 00008DE5 		str	r0, [sp, #0]
 1958 139c 5805001A 		bne	.L265
 1959              		.loc 1 679 0
 1960 13a0 0210D4E5 		ldrb	r1, [r4, #2]	@ zero_extendqisi2
 1961 13a4 011081E2 		add	r1, r1, #1
 1962 13a8 FF1001E2 		and	r1, r1, #255
 1963 13ac 0210C4E5 		strb	r1, [r4, #2]
 1964              		.loc 1 680 0
 1965 13b0 0330D4E5 		ldrb	r3, [r4, #3]	@ zero_extendqisi2
 1966 13b4 040094E5 		ldr	r0, [r4, #4]
 1967 13b8 000483E1 		orr	r0, r3, r0, asl #8
 1968 13bc 8111A0E1 		mov	r1, r1, asl #3
 1969 13c0 FEFFFFEB 		bl	realloc
ARM GAS  C:\DOCUME~1\TECHCO~1\LOCALS~1\Temp/ccQdbaaa.s 			page 55


 1970 13c4 0300C4E5 		strb	r0, [r4, #3]
 1971 13c8 043094E5 		ldr	r3, [r4, #4]
 1972 13cc FF3403E2 		and	r3, r3, #-16777216
 1973 13d0 203483E1 		orr	r3, r3, r0, lsr #8
 1974 13d4 043084E5 		str	r3, [r4, #4]
 1975 13d8 000050E3 		cmp	r0, #0
 1976 13dc 5A05000A 		beq	.L268
 1977              		.loc 1 683 0
 1978 13e0 0210D5E5 		ldrb	r1, [r5, #2]	@ zero_extendqisi2
 1979 13e4 011081E2 		add	r1, r1, #1
 1980 13e8 FF1001E2 		and	r1, r1, #255
 1981 13ec 0210C5E5 		strb	r1, [r5, #2]
 1982              		.loc 1 684 0
 1983 13f0 0330D5E5 		ldrb	r3, [r5, #3]	@ zero_extendqisi2
 1984 13f4 040095E5 		ldr	r0, [r5, #4]
 1985 13f8 000483E1 		orr	r0, r3, r0, asl #8
 1986 13fc 8111A0E1 		mov	r1, r1, asl #3
 1987 1400 FEFFFFEB 		bl	realloc
 1988 1404 0300C5E5 		strb	r0, [r5, #3]
 1989 1408 043095E5 		ldr	r3, [r5, #4]
 1990 140c FF3403E2 		and	r3, r3, #-16777216
 1991 1410 203483E1 		orr	r3, r3, r0, lsr #8
 1992 1414 043085E5 		str	r3, [r5, #4]
 1993 1418 000050E3 		cmp	r0, #0
 1994 141c 5A05000A 		beq	.L268
 1995              		.loc 1 688 0
 1996 1420 0200D5E5 		ldrb	r0, [r5, #2]	@ zero_extendqisi2
 1997 1424 010040E2 		sub	r0, r0, #1
 1998 1428 FF0000E2 		and	r0, r0, #255
 1999              	.LVL163:
 2000              		.loc 1 690 0
 2001 142c 0210D4E5 		ldrb	r1, [r4, #2]	@ zero_extendqisi2
 2002 1430 011041E2 		sub	r1, r1, #1
 2003 1434 FF1001E2 		and	r1, r1, #255
 2004 1438 8111A0E1 		mov	r1, r1, asl #3
 2005 143c 0330D4E5 		ldrb	r3, [r4, #3]	@ zero_extendqisi2
 2006 1440 042094E5 		ldr	r2, [r4, #4]
 2007 1444 023483E1 		orr	r3, r3, r2, asl #8
 2008 1448 0180C3E7 		strb	r8, [r3, r1]
 2009              		.loc 1 691 0
 2010 144c 0330D4E5 		ldrb	r3, [r4, #3]	@ zero_extendqisi2
 2011 1450 042094E5 		ldr	r2, [r4, #4]
 2012 1454 023483E1 		orr	r3, r3, r2, asl #8
 2013 1458 033081E0 		add	r3, r1, r3
 2014 145c 01B0C3E5 		strb	fp, [r3, #1]
 2015              		.loc 1 692 0
 2016 1460 0330D4E5 		ldrb	r3, [r4, #3]	@ zero_extendqisi2
 2017 1464 042094E5 		ldr	r2, [r4, #4]
 2018 1468 023483E1 		orr	r3, r3, r2, asl #8
 2019 146c 033081E0 		add	r3, r1, r3
 2020 1470 02A0C3E5 		strb	sl, [r3, #2]
 2021              		.loc 1 693 0
 2022 1474 0330D4E5 		ldrb	r3, [r4, #3]	@ zero_extendqisi2
 2023 1478 042094E5 		ldr	r2, [r4, #4]
 2024 147c 023483E1 		orr	r3, r3, r2, asl #8
 2025 1480 033081E0 		add	r3, r1, r3
 2026              	.LVL164:
ARM GAS  C:\DOCUME~1\TECHCO~1\LOCALS~1\Temp/ccQdbaaa.s 			page 56


 2027 1484 0720DDE5 		ldrb	r2, [sp, #7]	@ zero_extendqisi2
 2028 1488 0320C3E5 		strb	r2, [r3, #3]
 2029              		.loc 1 694 0
 2030 148c 0330D4E5 		ldrb	r3, [r4, #3]	@ zero_extendqisi2
 2031 1490 042094E5 		ldr	r2, [r4, #4]
 2032 1494 023483E1 		orr	r3, r3, r2, asl #8
 2033 1498 033081E0 		add	r3, r1, r3
 2034 149c 0460C3E5 		strb	r6, [r3, #4]
 2035              		.loc 1 695 0
 2036 14a0 0330D4E5 		ldrb	r3, [r4, #3]	@ zero_extendqisi2
 2037 14a4 042094E5 		ldr	r2, [r4, #4]
 2038 14a8 023483E1 		orr	r3, r3, r2, asl #8
 2039 14ac 033081E0 		add	r3, r1, r3
 2040 14b0 0590C3E5 		strb	r9, [r3, #5]
 2041              		.loc 1 696 0
 2042 14b4 0330D4E5 		ldrb	r3, [r4, #3]	@ zero_extendqisi2
 2043 14b8 042094E5 		ldr	r2, [r4, #4]
 2044 14bc 023483E1 		orr	r3, r3, r2, asl #8
 2045 14c0 031081E0 		add	r1, r1, r3
 2046 14c4 0670C1E5 		strb	r7, [r1, #6]
 2047              		.loc 1 698 0
 2048 14c8 8001A0E1 		mov	r0, r0, asl #3
 2049              	.LVL165:
 2050 14cc 0330D5E5 		ldrb	r3, [r5, #3]	@ zero_extendqisi2
 2051 14d0 042095E5 		ldr	r2, [r5, #4]
 2052 14d4 023483E1 		orr	r3, r3, r2, asl #8
 2053 14d8 0060C3E7 		strb	r6, [r3, r0]
 2054              		.loc 1 699 0
 2055 14dc 0330D5E5 		ldrb	r3, [r5, #3]	@ zero_extendqisi2
 2056 14e0 042095E5 		ldr	r2, [r5, #4]
 2057 14e4 023483E1 		orr	r3, r3, r2, asl #8
 2058 14e8 033080E0 		add	r3, r0, r3
 2059 14ec 0190C3E5 		strb	r9, [r3, #1]
 2060              		.loc 1 700 0
 2061 14f0 0330D5E5 		ldrb	r3, [r5, #3]	@ zero_extendqisi2
 2062 14f4 042095E5 		ldr	r2, [r5, #4]
 2063 14f8 023483E1 		orr	r3, r3, r2, asl #8
 2064 14fc 033080E0 		add	r3, r0, r3
 2065 1500 0270C3E5 		strb	r7, [r3, #2]
 2066              		.loc 1 701 0
 2067 1504 0330D5E5 		ldrb	r3, [r5, #3]	@ zero_extendqisi2
 2068 1508 042095E5 		ldr	r2, [r5, #4]
 2069 150c 023483E1 		orr	r3, r3, r2, asl #8
 2070 1510 033080E0 		add	r3, r0, r3
 2071 1514 0720DDE5 		ldrb	r2, [sp, #7]	@ zero_extendqisi2
 2072 1518 0320C3E5 		strb	r2, [r3, #3]
 2073              		.loc 1 702 0
 2074 151c 0330D5E5 		ldrb	r3, [r5, #3]	@ zero_extendqisi2
 2075 1520 042095E5 		ldr	r2, [r5, #4]
 2076 1524 023483E1 		orr	r3, r3, r2, asl #8
 2077 1528 033080E0 		add	r3, r0, r3
 2078 152c 0480C3E5 		strb	r8, [r3, #4]
 2079              		.loc 1 703 0
 2080 1530 0330D5E5 		ldrb	r3, [r5, #3]	@ zero_extendqisi2
 2081 1534 042095E5 		ldr	r2, [r5, #4]
 2082 1538 023483E1 		orr	r3, r3, r2, asl #8
 2083 153c 033080E0 		add	r3, r0, r3
ARM GAS  C:\DOCUME~1\TECHCO~1\LOCALS~1\Temp/ccQdbaaa.s 			page 57


 2084 1540 05B0C3E5 		strb	fp, [r3, #5]
 2085              		.loc 1 704 0
 2086 1544 0330D5E5 		ldrb	r3, [r5, #3]	@ zero_extendqisi2
 2087 1548 042095E5 		ldr	r2, [r5, #4]
 2088 154c 023483E1 		orr	r3, r3, r2, asl #8
 2089 1550 030080E0 		add	r0, r0, r3
 2090 1554 06A0C0E5 		strb	sl, [r0, #6]
 2091 1558 00009DE5 		ldr	r0, [sp, #0]
 2092 155c 5B0500EA 		b	.L261
 2093              	.LVL166:
 2094              	.L262:
 2095              		.loc 1 706 0
 2096 1560 0700A0E3 		mov	r0, #7
 2097 1564 5B0500EA 		b	.L261
 2098              	.LVL167:
 2099              	.L265:
 2100 1568 0900A0E3 		mov	r0, #9
 2101 156c 5B0500EA 		b	.L261
 2102              	.L268:
 2103 1570 0500A0E3 		mov	r0, #5
 2104              	.LVL168:
 2105              	.L261:
 2106              		.loc 1 707 0
 2107 1574 08D08DE2 		add	sp, sp, #8
 2108 1578 F08FBDE8 		ldmfd	sp!, {r4, r5, r6, r7, r8, r9, sl, fp, pc}
 2109              	.LFE23:
 2110              		.size	insertNewLinkEntry, .-insertNewLinkEntry
 2111              		.align	2
 2112              		.global	insertNewCubeEntry
 2113              		.type	insertNewCubeEntry, %function
 2114              	insertNewCubeEntry:
 2115              	.LFB22:
 2116              		.loc 1 629 0
 2117              		@ args = 0, pretend = 0, frame = 0
 2118              		@ frame_needed = 0, uses_anonymous_args = 0
 2119              	.LVL169:
 2120 157c 70402DE9 		stmfd	sp!, {r4, r5, r6, lr}
 2121              	.LCFI17:
 2122 1580 0040A0E1 		mov	r4, r0
 2123 1584 FF5001E2 		and	r5, r1, #255
 2124 1588 FF6002E2 		and	r6, r2, #255
 2125              		.loc 1 631 0
 2126 158c 0510A0E1 		mov	r1, r5
 2127 1590 FEFFFFEB 		bl	getCube
 2128              	.LVL170:
 2129 1594 000050E3 		cmp	r0, #0
 2130 1598 0A00A013 		movne	r0, #10
 2131 159c 7080BD18 		ldmnefd	sp!, {r4, r5, r6, pc}
 2132              		.loc 1 635 0
 2133 15a0 0010D4E5 		ldrb	r1, [r4, #0]	@ zero_extendqisi2
 2134 15a4 011081E2 		add	r1, r1, #1
 2135 15a8 FF1001E2 		and	r1, r1, #255
 2136 15ac 0010C4E5 		strb	r1, [r4, #0]
 2137              		.loc 1 636 0
 2138 15b0 003094E5 		ldr	r3, [r4, #0]
 2139 15b4 0400D4E5 		ldrb	r0, [r4, #4]	@ zero_extendqisi2
 2140 15b8 000CA0E1 		mov	r0, r0, asl #24
ARM GAS  C:\DOCUME~1\TECHCO~1\LOCALS~1\Temp/ccQdbaaa.s 			page 58


 2141 15bc 230480E1 		orr	r0, r0, r3, lsr #8
 2142 15c0 8111A0E1 		mov	r1, r1, asl #3
 2143 15c4 FEFFFFEB 		bl	realloc
 2144 15c8 0030D4E5 		ldrb	r3, [r4, #0]	@ zero_extendqisi2
 2145 15cc 003483E1 		orr	r3, r3, r0, asl #8
 2146 15d0 003084E5 		str	r3, [r4, #0]
 2147 15d4 203CA0E1 		mov	r3, r0, lsr #24
 2148 15d8 0430C4E5 		strb	r3, [r4, #4]
 2149 15dc 000050E3 		cmp	r0, #0
 2150 15e0 05008002 		addeq	r0, r0, #5
 2151 15e4 7080BD08 		ldmeqfd	sp!, {r4, r5, r6, pc}
 2152              		.loc 1 639 0
 2153 15e8 0030D4E5 		ldrb	r3, [r4, #0]	@ zero_extendqisi2
 2154 15ec 833180E0 		add	r3, r0, r3, asl #3
 2155 15f0 082043E2 		sub	r2, r3, #8
 2156              	.LVL171:
 2157              		.loc 1 641 0
 2158 15f4 085043E5 		strb	r5, [r3, #-8]
 2159              		.loc 1 642 0
 2160 15f8 0160C2E5 		strb	r6, [r2, #1]
 2161              		.loc 1 643 0
 2162 15fc 0010A0E3 		mov	r1, #0
 2163 1600 0210C2E5 		strb	r1, [r2, #2]
 2164              		.loc 1 644 0
 2165 1604 0310C2E5 		strb	r1, [r2, #3]
 2166 1608 043092E5 		ldr	r3, [r2, #4]
 2167 160c FF3403E2 		and	r3, r3, #-16777216
 2168 1610 043082E5 		str	r3, [r2, #4]
 2169 1614 0100A0E1 		mov	r0, r1
 2170              		.loc 1 647 0
 2171 1618 7080BDE8 		ldmfd	sp!, {r4, r5, r6, pc}
 2172              	.LFE22:
 2173              		.size	insertNewCubeEntry, .-insertNewCubeEntry
 2174              		.align	2
 2175              		.global	insertInitialState
 2176              		.type	insertInitialState, %function
 2177              	insertInitialState:
 2178              	.LFB17:
 2179              		.loc 1 551 0
 2180              		@ args = 4, pretend = 0, frame = 0
 2181              		@ frame_needed = 0, uses_anonymous_args = 0
 2182              	.LVL172:
 2183 161c F0412DE9 		stmfd	sp!, {r4, r5, r6, r7, r8, lr}
 2184              	.LCFI18:
 2185 1620 04D04DE2 		sub	sp, sp, #4
 2186              	.LCFI19:
 2187 1624 0040A0E1 		mov	r4, r0
 2188 1628 1C809DE5 		ldr	r8, [sp, #28]
 2189 162c FF5001E2 		and	r5, r1, #255
 2190 1630 FF6002E2 		and	r6, r2, #255
 2191 1634 FF7003E2 		and	r7, r3, #255
 2192              		.loc 1 552 0
 2193 1638 0030A0E3 		mov	r3, #0
 2194              	.LVL173:
 2195 163c 00308DE5 		str	r3, [sp, #0]
 2196 1640 0510A0E1 		mov	r1, r5
 2197 1644 0620A0E1 		mov	r2, r6
ARM GAS  C:\DOCUME~1\TECHCO~1\LOCALS~1\Temp/ccQdbaaa.s 			page 59


 2198 1648 0730A0E1 		mov	r3, r7
 2199 164c FEFFFFEB 		bl	getInitialState
 2200              	.LVL174:
 2201 1650 0C0050E3 		cmp	r0, #12
 2202 1654 0D00A013 		movne	r0, #13
 2203 1658 C105001A 		bne	.L282
 2204              	.LVL175:
 2205              		.loc 1 555 0
 2206 165c 043094E5 		ldr	r3, [r4, #4]
 2207 1660 0810D4E5 		ldrb	r1, [r4, #8]	@ zero_extendqisi2
 2208 1664 011CA0E1 		mov	r1, r1, asl #24
 2209 1668 231481E1 		orr	r1, r1, r3, lsr #8
 2210 166c 011081E2 		add	r1, r1, #1
 2211 1670 FF3003E2 		and	r3, r3, #255
 2212 1674 013483E1 		orr	r3, r3, r1, asl #8
 2213 1678 043084E5 		str	r3, [r4, #4]
 2214 167c 213CA0E1 		mov	r3, r1, lsr #24
 2215 1680 0830C4E5 		strb	r3, [r4, #8]
 2216              		.loc 1 556 0
 2217 1684 083094E5 		ldr	r3, [r4, #8]
 2218 1688 0C00D4E5 		ldrb	r0, [r4, #12]	@ zero_extendqisi2
 2219 168c 000CA0E1 		mov	r0, r0, asl #24
 2220 1690 811081E0 		add	r1, r1, r1, asl #1
 2221 1694 230480E1 		orr	r0, r0, r3, lsr #8
 2222 1698 0111A0E1 		mov	r1, r1, asl #2
 2223 169c FEFFFFEB 		bl	realloc
 2224 16a0 0830D4E5 		ldrb	r3, [r4, #8]	@ zero_extendqisi2
 2225 16a4 003483E1 		orr	r3, r3, r0, asl #8
 2226 16a8 083084E5 		str	r3, [r4, #8]
 2227 16ac 203CA0E1 		mov	r3, r0, lsr #24
 2228 16b0 0C30C4E5 		strb	r3, [r4, #12]
 2229 16b4 000050E3 		cmp	r0, #0
 2230 16b8 05008002 		addeq	r0, r0, #5
 2231 16bc C105000A 		beq	.L282
 2232              		.loc 1 559 0
 2233 16c0 042094E5 		ldr	r2, [r4, #4]
 2234 16c4 0830D4E5 		ldrb	r3, [r4, #8]	@ zero_extendqisi2
 2235 16c8 033CA0E1 		mov	r3, r3, asl #24
 2236 16cc 223483E1 		orr	r3, r3, r2, lsr #8
 2237 16d0 833083E0 		add	r3, r3, r3, asl #1
 2238 16d4 033180E0 		add	r3, r0, r3, asl #2
 2239 16d8 0C2043E2 		sub	r2, r3, #12
 2240              	.LVL176:
 2241              		.loc 1 561 0
 2242 16dc 0C5043E5 		strb	r5, [r3, #-12]
 2243              		.loc 1 562 0
 2244 16e0 0160C2E5 		strb	r6, [r2, #1]
 2245              		.loc 1 563 0
 2246 16e4 0010A0E3 		mov	r1, #0
 2247 16e8 B210C2E1 		strh	r1, [r2, #2]	@ movhi
 2248 16ec B410C2E1 		strh	r1, [r2, #4]	@ movhi
 2249              		.loc 1 564 0
 2250 16f0 0670C2E5 		strb	r7, [r2, #6]
 2251              		.loc 1 565 0
 2252 16f4 0780C2E5 		strb	r8, [r2, #7]
 2253 16f8 083092E5 		ldr	r3, [r2, #8]
 2254 16fc FF3403E2 		and	r3, r3, #-16777216
ARM GAS  C:\DOCUME~1\TECHCO~1\LOCALS~1\Temp/ccQdbaaa.s 			page 60


 2255 1700 283483E1 		orr	r3, r3, r8, lsr #8
 2256 1704 083082E5 		str	r3, [r2, #8]
 2257 1708 0100A0E1 		mov	r0, r1
 2258              	.L282:
 2259              		.loc 1 568 0
 2260 170c 04D08DE2 		add	sp, sp, #4
 2261 1710 F081BDE8 		ldmfd	sp!, {r4, r5, r6, r7, r8, pc}
 2262              	.LFE17:
 2263              		.size	insertInitialState, .-insertInitialState
 2264              		.section	.rodata.str1.4
 2265 025f 00       		.align	2
 2266              	.LC18:
 2267 0260 49442000 		.ascii	"ID \000"
 2268              		.align	2
 2269              	.LC19:
 2270 0264 436C6173 		.ascii	"Class \000"
 2270      732000
 2271 026b 00       		.align	2
 2272              	.LC20:
 2273 026c 436D6420 		.ascii	"Cmd \000"
 2273      00
 2274 0271 000000   		.align	2
 2275              	.LC21:
 2276 0274 50617261 		.ascii	"Params \000"
 2276      6D732000 
 2277              		.text
 2278              		.align	2
 2279              		.global	printExternalCommand
 2280              		.type	printExternalCommand, %function
 2281              	printExternalCommand:
 2282              	.LFB15:
 2283              		.loc 1 508 0
 2284              		@ args = 0, pretend = 0, frame = 0
 2285              		@ frame_needed = 0, uses_anonymous_args = 0
 2286 1714 30402DE9 		stmfd	sp!, {r4, r5, lr}
 2287              	.LCFI20:
 2288              		.loc 1 509 0
 2289 1718 0000A0E3 		mov	r0, #0
 2290 171c 90109FE5 		ldr	r1, .L292
 2291 1720 FEFFFFEB 		bl	rprintf1RamRom
 2292              		.loc 1 510 0
 2293 1724 8C409FE5 		ldr	r4, .L292+4
 2294 1728 0000D4E5 		ldrb	r0, [r4, #0]	@ zero_extendqisi2
 2295 172c FEFFFFEB 		bl	rprintfu08
 2296              		.loc 1 511 0
 2297 1730 FEFFFFEB 		bl	rprintfCRLF
 2298              		.loc 1 512 0
 2299 1734 0000A0E3 		mov	r0, #0
 2300 1738 7C109FE5 		ldr	r1, .L292+8
 2301 173c FEFFFFEB 		bl	rprintf1RamRom
 2302              		.loc 1 513 0
 2303 1740 0100D4E5 		ldrb	r0, [r4, #1]	@ zero_extendqisi2
 2304 1744 FEFFFFEB 		bl	rprintfu08
 2305              		.loc 1 514 0
 2306 1748 FEFFFFEB 		bl	rprintfCRLF
 2307              		.loc 1 515 0
 2308 174c 0000A0E3 		mov	r0, #0
ARM GAS  C:\DOCUME~1\TECHCO~1\LOCALS~1\Temp/ccQdbaaa.s 			page 61


 2309 1750 68109FE5 		ldr	r1, .L292+12
 2310 1754 FEFFFFEB 		bl	rprintf1RamRom
 2311              		.loc 1 516 0
 2312 1758 0200D4E5 		ldrb	r0, [r4, #2]	@ zero_extendqisi2
 2313 175c FEFFFFEB 		bl	rprintfu08
 2314              		.loc 1 517 0
 2315 1760 FEFFFFEB 		bl	rprintfCRLF
 2316              		.loc 1 518 0
 2317 1764 0000A0E3 		mov	r0, #0
 2318 1768 54109FE5 		ldr	r1, .L292+16
 2319 176c FEFFFFEB 		bl	rprintf1RamRom
 2320              		.loc 1 519 0
 2321 1770 8300D4E5 		ldrb	r0, [r4, #131]	@ zero_extendqisi2
 2322 1774 FEFFFFEB 		bl	rprintfu08
 2323              		.loc 1 520 0
 2324 1778 FEFFFFEB 		bl	rprintfCRLF
 2325              		.loc 1 522 0
 2326 177c 8330D4E5 		ldrb	r3, [r4, #131]	@ zero_extendqisi2
 2327 1780 000053E3 		cmp	r3, #0
 2328 1784 E90500DA 		ble	.L287
 2329 1788 0040A0E3 		mov	r4, #0
 2330              	.LVL177:
 2331 178c 24509FE5 		ldr	r5, .L292+4
 2332              	.L289:
 2333              		.loc 1 524 0
 2334 1790 053084E0 		add	r3, r4, r5
 2335 1794 0300D3E5 		ldrb	r0, [r3, #3]	@ zero_extendqisi2
 2336 1798 FEFFFFEB 		bl	rprintfu08
 2337              		.loc 1 522 0
 2338 179c 014084E2 		add	r4, r4, #1
 2339 17a0 8330D5E5 		ldrb	r3, [r5, #131]	@ zero_extendqisi2
 2340 17a4 040053E1 		cmp	r3, r4
 2341 17a8 E20500CA 		bgt	.L289
 2342              	.L287:
 2343              		.loc 1 526 0
 2344 17ac FEFFFFEB 		bl	rprintfCRLF
 2345              		.loc 1 527 0
 2346 17b0 3080BDE8 		ldmfd	sp!, {r4, r5, pc}
 2347              	.L293:
 2348              		.align	2
 2349              	.L292:
 2350 17b4 60020000 		.word	.LC18
 2351 17b8 00000000 		.word	ext_busRxPkt
 2352 17bc 64020000 		.word	.LC19
 2353 17c0 6C020000 		.word	.LC20
 2354 17c4 74020000 		.word	.LC21
 2355              	.LFE15:
 2356              		.size	printExternalCommand, .-printExternalCommand
 2357              		.align	2
 2358              		.global	setOrientationPin
 2359              		.type	setOrientationPin, %function
 2360              	setOrientationPin:
 2361              	.LFB14:
 2362              		.loc 1 464 0
 2363              		@ args = 4, pretend = 0, frame = 4
 2364              		@ frame_needed = 0, uses_anonymous_args = 0
 2365              	.LVL178:
ARM GAS  C:\DOCUME~1\TECHCO~1\LOCALS~1\Temp/ccQdbaaa.s 			page 62


 2366 17c8 F0402DE9 		stmfd	sp!, {r4, r5, r6, r7, lr}
 2367              	.LCFI21:
 2368 17cc 08D04DE2 		sub	sp, sp, #8
 2369              	.LCFI22:
 2370 17d0 0340A0E1 		mov	r4, r3
 2371 17d4 1C509DE5 		ldr	r5, [sp, #28]
 2372 17d8 FF7000E2 		and	r7, r0, #255
 2373 17dc FF0001E2 		and	r0, r1, #255
 2374              	.LVL179:
 2375 17e0 FF3002E2 		and	r3, r2, #255
 2376              	.LVL180:
 2377 17e4 FFC004E2 		and	ip, r4, #255
 2378 17e8 FFE005E2 		and	lr, r5, #255
 2379              		.loc 1 468 0
 2380 17ec 0F0053E3 		cmp	r3, #15
 2381 17f0 3506008A 		bhi	.L295
 2382              	.LVL181:
 2383              		.loc 1 470 0
 2384 17f4 03005CE3 		cmp	ip, #3
 2385 17f8 3506008A 		bhi	.L295
 2386              		.loc 1 472 0
 2387 17fc 01005EE3 		cmp	lr, #1
 2388 1800 3506008A 		bhi	.L295
 2389              		.loc 1 478 0
 2390 1804 0F2002E2 		and	r2, r2, #15
 2391 1808 033004E2 		and	r3, r4, #3
 2392              	.LVL182:
 2393 180c 0331A0E1 		mov	r3, r3, asl #2
 2394 1810 023283E1 		orr	r3, r3, r2, asl #4
 2395 1814 012005E2 		and	r2, r5, #1
 2396 1818 023083E1 		orr	r3, r3, r2
 2397 181c 08208DE2 		add	r2, sp, #8
 2398 1820 013062E5 		strb	r3, [r2, #-1]!
 2399              	.LVL183:
 2400              		.loc 1 480 0
 2401 1824 0060A0E1 		mov	r6, r0
 2402 1828 0750A0E1 		mov	r5, r7
 2403 182c 00208DE5 		str	r2, [sp, #0]
 2404              	.LVL184:
 2405 1830 0710A0E1 		mov	r1, r7
 2406 1834 0820A0E3 		mov	r2, #8
 2407 1838 0130A0E3 		mov	r3, #1
 2408 183c FEFFFFEB 		bl	cmd_BuildPacket
 2409              	.LVL185:
 2410              		.loc 1 481 0
 2411 1840 0100A0E3 		mov	r0, #1
 2412 1844 FEFFFFEB 		bl	cmd_Execute
 2413 1848 0040A0E3 		mov	r4, #0
 2414              	.LVL186:
 2415 184c 4E3DA0E3 		mov	r3, #4992
 2416 1850 087083E2 		add	r7, r3, #8
 2417 1854 150600EA 		b	.L299
 2418              	.L300:
 2419              		.loc 1 490 0
 2420 1858 014084E2 		add	r4, r4, #1
 2421              	.L299:
 2422              		.loc 1 485 0
ARM GAS  C:\DOCUME~1\TECHCO~1\LOCALS~1\Temp/ccQdbaaa.s 			page 63


 2423 185c 0100A0E3 		mov	r0, #1
 2424 1860 FEFFFFEB 		bl	uartGetRxBuffer
 2425 1864 0030A0E1 		mov	r3, r0
 2426 1868 0100A0E3 		mov	r0, #1
 2427 186c 0610A0E1 		mov	r1, r6
 2428 1870 0520A0E1 		mov	r2, r5
 2429 1874 FEFFFFEB 		bl	packetRxProcess
 2430 1878 000050E3 		cmp	r0, #0
 2431 187c 2106001A 		bne	.L301
 2432 1880 070054E1 		cmp	r4, r7
 2433 1884 1406001A 		bne	.L300
 2434 1888 390600EA 		b	.L303
 2435              	.L301:
 2436              		.loc 1 491 0
 2437 188c 4E3DA0E3 		mov	r3, #4992
 2438 1890 073083E2 		add	r3, r3, #7
 2439 1894 030054E1 		cmp	r4, r3
 2440 1898 3906008A 		bhi	.L303
 2441              		.loc 1 493 0
 2442 189c 54309FE5 		ldr	r3, .L313
 2443 18a0 8300D3E5 		ldrb	r0, [r3, #131]	@ zero_extendqisi2
 2444 18a4 000050E3 		cmp	r0, #0
 2445 18a8 2D06001A 		bne	.L305
 2446 18ac 0230D3E5 		ldrb	r3, [r3, #2]	@ zero_extendqisi2
 2447 18b0 080053E3 		cmp	r3, #8
 2448 18b4 3706001A 		bne	.L307
 2449 18b8 3A0600EA 		b	.L309
 2450              	.L305:
 2451              		.loc 1 496 0
 2452 18bc 010050E3 		cmp	r0, #1
 2453 18c0 3706001A 		bne	.L307
 2454 18c4 2C309FE5 		ldr	r3, .L313
 2455 18c8 0330D3E5 		ldrb	r3, [r3, #3]	@ zero_extendqisi2
 2456 18cc 030053E3 		cmp	r3, #3
 2457 18d0 0F008002 		addeq	r0, r0, #15
 2458 18d4 3A06000A 		beq	.L309
 2459 18d8 370600EA 		b	.L307
 2460              	.LVL187:
 2461              	.L295:
 2462 18dc 0400A0E3 		mov	r0, #4
 2463              	.LVL188:
 2464 18e0 3A0600EA 		b	.L309
 2465              	.LVL189:
 2466              	.L307:
 2467 18e4 0200A0E3 		mov	r0, #2
 2468 18e8 3A0600EA 		b	.L309
 2469              	.L303:
 2470 18ec 0300A0E3 		mov	r0, #3
 2471              	.LVL190:
 2472              	.L309:
 2473              		.loc 1 505 0
 2474 18f0 08D08DE2 		add	sp, sp, #8
 2475 18f4 F080BDE8 		ldmfd	sp!, {r4, r5, r6, r7, pc}
 2476              	.L314:
 2477              		.align	2
 2478              	.L313:
 2479 18f8 00000000 		.word	ext_busRxPkt
ARM GAS  C:\DOCUME~1\TECHCO~1\LOCALS~1\Temp/ccQdbaaa.s 			page 64


 2480              	.LFE14:
 2481              		.size	setOrientationPin, .-setOrientationPin
 2482              		.align	2
 2483              		.global	setOrientationPin_AR
 2484              		.type	setOrientationPin_AR, %function
 2485              	setOrientationPin_AR:
 2486              	.LFB13:
 2487              		.loc 1 445 0
 2488              		@ args = 8, pretend = 0, frame = 0
 2489              		@ frame_needed = 0, uses_anonymous_args = 0
 2490              	.LVL191:
 2491 18fc F0472DE9 		stmfd	sp!, {r4, r5, r6, r7, r8, r9, sl, lr}
 2492              	.LCFI23:
 2493 1900 04D04DE2 		sub	sp, sp, #4
 2494              	.LCFI24:
 2495 1904 FF9001E2 		and	r9, r1, #255
 2496 1908 FFA002E2 		and	sl, r2, #255
 2497 190c FF8003E2 		and	r8, r3, #255
 2498 1910 2470DDE5 		ldrb	r7, [sp, #36]	@ zero_extendqisi2
 2499 1914 2860DDE5 		ldrb	r6, [sp, #40]	@ zero_extendqisi2
 2500              		.loc 1 448 0
 2501 1918 FF5010E2 		ands	r5, r0, #255
 2502 191c 0300A003 		moveq	r0, #3
 2503              	.LVL192:
 2504 1920 5406000A 		beq	.L318
 2505              	.LVL193:
 2506 1924 0040A0E3 		mov	r4, #0
 2507              	.LVL194:
 2508              	.L319:
 2509              		.loc 1 450 0
 2510 1928 00608DE5 		str	r6, [sp, #0]
 2511 192c 0900A0E1 		mov	r0, r9
 2512              	.LVL195:
 2513 1930 0A10A0E1 		mov	r1, sl
 2514 1934 0820A0E1 		mov	r2, r8
 2515 1938 0730A0E1 		mov	r3, r7
 2516 193c FEFFFFEB 		bl	setOrientationPin
 2517              	.LVL196:
 2518              		.loc 1 451 0
 2519 1940 030050E3 		cmp	r0, #3
 2520 1944 5406001A 		bne	.L318
 2521              		.loc 1 448 0
 2522 1948 013084E2 		add	r3, r4, #1
 2523 194c FF4003E2 		and	r4, r3, #255
 2524 1950 040055E1 		cmp	r5, r4
 2525 1954 4806001A 		bne	.L319
 2526              	.LVL197:
 2527              	.L318:
 2528              	.LVL198:
 2529              		.loc 1 455 0
 2530 1958 04D08DE2 		add	sp, sp, #4
 2531 195c F087BDE8 		ldmfd	sp!, {r4, r5, r6, r7, r8, r9, sl, pc}
 2532              	.LFE13:
 2533              		.size	setOrientationPin_AR, .-setOrientationPin_AR
 2534              		.align	2
 2535              		.global	getMeasuredAngle
 2536              		.type	getMeasuredAngle, %function
ARM GAS  C:\DOCUME~1\TECHCO~1\LOCALS~1\Temp/ccQdbaaa.s 			page 65


 2537              	getMeasuredAngle:
 2538              	.LFB12:
 2539              		.loc 1 419 0
 2540              		@ args = 0, pretend = 0, frame = 0
 2541              		@ frame_needed = 0, uses_anonymous_args = 0
 2542              	.LVL199:
 2543 1960 F0412DE9 		stmfd	sp!, {r4, r5, r6, r7, r8, lr}
 2544              	.LCFI25:
 2545 1964 04D04DE2 		sub	sp, sp, #4
 2546              	.LCFI26:
 2547 1968 0280A0E1 		mov	r8, r2
 2548 196c FF0000E2 		and	r0, r0, #255
 2549 1970 FF6001E2 		and	r6, r1, #255
 2550              		.loc 1 420 0
 2551 1974 0050A0E1 		mov	r5, r0
 2552 1978 0040A0E3 		mov	r4, #0
 2553 197c 00408DE5 		str	r4, [sp, #0]
 2554 1980 0600A0E1 		mov	r0, r6
 2555              	.LVL200:
 2556 1984 0510A0E1 		mov	r1, r5
 2557              	.LVL201:
 2558 1988 0720A0E3 		mov	r2, #7
 2559              	.LVL202:
 2560 198c 0430A0E1 		mov	r3, r4
 2561 1990 FEFFFFEB 		bl	cmd_BuildPacket
 2562              		.loc 1 421 0
 2563 1994 0100A0E3 		mov	r0, #1
 2564 1998 FEFFFFEB 		bl	cmd_Execute
 2565 199c 4E3DA0E3 		mov	r3, #4992
 2566 19a0 087083E2 		add	r7, r3, #8
 2567 19a4 690600EA 		b	.L324
 2568              	.LVL203:
 2569              	.L325:
 2570              		.loc 1 430 0
 2571 19a8 014084E2 		add	r4, r4, #1
 2572              	.L324:
 2573              		.loc 1 425 0
 2574 19ac 0100A0E3 		mov	r0, #1
 2575 19b0 FEFFFFEB 		bl	uartGetRxBuffer
 2576 19b4 0030A0E1 		mov	r3, r0
 2577 19b8 0100A0E3 		mov	r0, #1
 2578 19bc 0610A0E1 		mov	r1, r6
 2579 19c0 0520A0E1 		mov	r2, r5
 2580 19c4 FEFFFFEB 		bl	packetRxProcess
 2581 19c8 000050E3 		cmp	r0, #0
 2582 19cc 7506001A 		bne	.L326
 2583 19d0 070054E1 		cmp	r4, r7
 2584 19d4 6806001A 		bne	.L325
 2585 19d8 8B0600EA 		b	.L328
 2586              	.L326:
 2587              		.loc 1 431 0
 2588 19dc 4E3DA0E3 		mov	r3, #4992
 2589 19e0 073083E2 		add	r3, r3, #7
 2590 19e4 030054E1 		cmp	r4, r3
 2591 19e8 8B06008A 		bhi	.L328
 2592              		.loc 1 433 0
 2593 19ec 4C209FE5 		ldr	r2, .L335
ARM GAS  C:\DOCUME~1\TECHCO~1\LOCALS~1\Temp/ccQdbaaa.s 			page 66


 2594 19f0 8330D2E5 		ldrb	r3, [r2, #131]	@ zero_extendqisi2
 2595 19f4 020053E3 		cmp	r3, #2
 2596 19f8 8906001A 		bne	.L330
 2597 19fc 0230D2E5 		ldrb	r3, [r2, #2]	@ zero_extendqisi2
 2598 1a00 070053E3 		cmp	r3, #7
 2599 1a04 8906001A 		bne	.L330
 2600              		.loc 1 436 0
 2601 1a08 0430D2E5 		ldrb	r3, [r2, #4]	@ zero_extendqisi2
 2602 1a0c 0F3003E2 		and	r3, r3, #15
 2603 1a10 0334A0E1 		mov	r3, r3, asl #8
 2604 1a14 B030C8E1 		strh	r3, [r8, #0]	@ movhi
 2605              		.loc 1 437 0
 2606 1a18 0320D2E5 		ldrb	r2, [r2, #3]	@ zero_extendqisi2
 2607 1a1c 023083E1 		orr	r3, r3, r2
 2608 1a20 B030C8E1 		strh	r3, [r8, #0]	@ movhi
 2609 1a24 0000A0E3 		mov	r0, #0
 2610 1a28 8C0600EA 		b	.L333
 2611              	.L330:
 2612              		.loc 1 438 0
 2613 1a2c 0200A0E3 		mov	r0, #2
 2614 1a30 8C0600EA 		b	.L333
 2615              	.L328:
 2616 1a34 0300A0E3 		mov	r0, #3
 2617              	.L333:
 2618              		.loc 1 442 0
 2619 1a38 04D08DE2 		add	sp, sp, #4
 2620 1a3c F081BDE8 		ldmfd	sp!, {r4, r5, r6, r7, r8, pc}
 2621              	.L336:
 2622              		.align	2
 2623              	.L335:
 2624 1a40 00000000 		.word	ext_busRxPkt
 2625              	.LFE12:
 2626              		.size	getMeasuredAngle, .-getMeasuredAngle
 2627              		.align	2
 2628              		.global	getMeasuredAngle_AR
 2629              		.type	getMeasuredAngle_AR, %function
 2630              	getMeasuredAngle_AR:
 2631              	.LFB11:
 2632              		.loc 1 406 0
 2633              		@ args = 0, pretend = 0, frame = 0
 2634              		@ frame_needed = 0, uses_anonymous_args = 0
 2635              	.LVL204:
 2636 1a44 F0412DE9 		stmfd	sp!, {r4, r5, r6, r7, r8, lr}
 2637              	.LCFI27:
 2638 1a48 0380A0E1 		mov	r8, r3
 2639 1a4c FF7001E2 		and	r7, r1, #255
 2640 1a50 FF6002E2 		and	r6, r2, #255
 2641              		.loc 1 409 0
 2642 1a54 FF5010E2 		ands	r5, r0, #255
 2643 1a58 0300A003 		moveq	r0, #3
 2644              	.LVL205:
 2645 1a5c F081BD08 		ldmeqfd	sp!, {r4, r5, r6, r7, r8, pc}
 2646              	.LVL206:
 2647 1a60 0040A0E3 		mov	r4, #0
 2648              	.LVL207:
 2649              	.L341:
 2650              		.loc 1 411 0
ARM GAS  C:\DOCUME~1\TECHCO~1\LOCALS~1\Temp/ccQdbaaa.s 			page 67


 2651 1a64 0700A0E1 		mov	r0, r7
 2652              	.LVL208:
 2653 1a68 0610A0E1 		mov	r1, r6
 2654 1a6c 0820A0E1 		mov	r2, r8
 2655 1a70 FEFFFFEB 		bl	getMeasuredAngle
 2656              	.LVL209:
 2657              		.loc 1 412 0
 2658 1a74 030050E3 		cmp	r0, #3
 2659 1a78 F081BD18 		ldmnefd	sp!, {r4, r5, r6, r7, r8, pc}
 2660              		.loc 1 409 0
 2661 1a7c 013084E2 		add	r3, r4, #1
 2662 1a80 FF4003E2 		and	r4, r3, #255
 2663 1a84 040055E1 		cmp	r5, r4
 2664 1a88 9706001A 		bne	.L341
 2665              	.LVL210:
 2666              		.loc 1 416 0
 2667 1a8c F081BDE8 		ldmfd	sp!, {r4, r5, r6, r7, r8, pc}
 2668              	.LFE11:
 2669              		.size	getMeasuredAngle_AR, .-getMeasuredAngle_AR
 2670              		.align	2
 2671              		.global	setInitialState
 2672              		.type	setInitialState, %function
 2673              	setInitialState:
 2674              	.LFB16:
 2675              		.loc 1 531 0
 2676              		@ args = 0, pretend = 0, frame = 4
 2677              		@ frame_needed = 0, uses_anonymous_args = 0
 2678              	.LVL211:
 2679 1a90 30402DE9 		stmfd	sp!, {r4, r5, lr}
 2680              	.LCFI28:
 2681 1a94 08D04DE2 		sub	sp, sp, #8
 2682              	.LCFI29:
 2683 1a98 0050A0E1 		mov	r5, r0
 2684 1a9c FF1001E2 		and	r1, r1, #255
 2685 1aa0 FF2002E2 		and	r2, r2, #255
 2686              		.loc 1 532 0
 2687 1aa4 FA0052E3 		cmp	r2, #250
 2688 1aa8 0F00A013 		movne	r0, #15
 2689              	.LVL212:
 2690 1aac BC06001A 		bne	.L348
 2691              	.LBB3:
 2692              		.loc 1 537 0
 2693 1ab0 0140A0E1 		mov	r4, r1
 2694 1ab4 0500A0E3 		mov	r0, #5
 2695 1ab8 FA20A0E3 		mov	r2, #250
 2696              	.LVL213:
 2697 1abc 06308DE2 		add	r3, sp, #6
 2698 1ac0 FEFFFFEB 		bl	getMeasuredAngle_AR
 2699              	.LVL214:
 2700 1ac4 000050E3 		cmp	r0, #0
 2701 1ac8 0200A013 		movne	r0, #2
 2702 1acc BC06001A 		bne	.L348
 2703              	.LVL215:
 2704              		.loc 1 542 0
 2705 1ad0 B630DDE1 		ldrh	r3, [sp, #6]
 2706 1ad4 00308DE5 		str	r3, [sp, #0]
 2707 1ad8 0500A0E1 		mov	r0, r5
ARM GAS  C:\DOCUME~1\TECHCO~1\LOCALS~1\Temp/ccQdbaaa.s 			page 68


 2708 1adc 0410A0E1 		mov	r1, r4
 2709 1ae0 FA20A0E3 		mov	r2, #250
 2710 1ae4 0030A0E3 		mov	r3, #0
 2711 1ae8 FEFFFFEB 		bl	insertInitialState
 2712 1aec 000050E3 		cmp	r0, #0
 2713 1af0 0E00A013 		movne	r0, #14
 2714 1af4 0000A003 		moveq	r0, #0
 2715              	.LVL216:
 2716              	.L348:
 2717              	.LBE3:
 2718              		.loc 1 548 0
 2719 1af8 08D08DE2 		add	sp, sp, #8
 2720 1afc 3080BDE8 		ldmfd	sp!, {r4, r5, pc}
 2721              	.LFE16:
 2722              		.size	setInitialState, .-setInitialState
 2723              		.align	2
 2724              		.global	getOrientationPins
 2725              		.type	getOrientationPins, %function
 2726              	getOrientationPins:
 2727              	.LFB7:
 2728              		.loc 1 294 0
 2729              		@ args = 0, pretend = 0, frame = 0
 2730              		@ frame_needed = 0, uses_anonymous_args = 0
 2731              	.LVL217:
 2732 1b00 F0452DE9 		stmfd	sp!, {r4, r5, r6, r7, r8, sl, lr}
 2733              	.LCFI30:
 2734 1b04 04D04DE2 		sub	sp, sp, #4
 2735              	.LCFI31:
 2736 1b08 0280A0E1 		mov	r8, r2
 2737 1b0c 03A0A0E1 		mov	sl, r3
 2738 1b10 FF0000E2 		and	r0, r0, #255
 2739 1b14 FF6001E2 		and	r6, r1, #255
 2740              		.loc 1 295 0
 2741 1b18 0050A0E1 		mov	r5, r0
 2742 1b1c 0040A0E3 		mov	r4, #0
 2743 1b20 00408DE5 		str	r4, [sp, #0]
 2744 1b24 0600A0E1 		mov	r0, r6
 2745              	.LVL218:
 2746 1b28 0510A0E1 		mov	r1, r5
 2747              	.LVL219:
 2748 1b2c 0920A0E3 		mov	r2, #9
 2749              	.LVL220:
 2750 1b30 0430A0E1 		mov	r3, r4
 2751              	.LVL221:
 2752 1b34 FEFFFFEB 		bl	cmd_BuildPacket
 2753              		.loc 1 296 0
 2754 1b38 0100A0E3 		mov	r0, #1
 2755 1b3c FEFFFFEB 		bl	cmd_Execute
 2756 1b40 4E3DA0E3 		mov	r3, #4992
 2757 1b44 087083E2 		add	r7, r3, #8
 2758 1b48 D20600EA 		b	.L355
 2759              	.LVL222:
 2760              	.L356:
 2761              		.loc 1 304 0
 2762 1b4c 014084E2 		add	r4, r4, #1
 2763              	.L355:
 2764              		.loc 1 299 0
ARM GAS  C:\DOCUME~1\TECHCO~1\LOCALS~1\Temp/ccQdbaaa.s 			page 69


 2765 1b50 0100A0E3 		mov	r0, #1
 2766 1b54 FEFFFFEB 		bl	uartGetRxBuffer
 2767 1b58 0030A0E1 		mov	r3, r0
 2768 1b5c 0100A0E3 		mov	r0, #1
 2769 1b60 0610A0E1 		mov	r1, r6
 2770 1b64 0520A0E1 		mov	r2, r5
 2771 1b68 FEFFFFEB 		bl	packetRxProcess
 2772 1b6c 000050E3 		cmp	r0, #0
 2773 1b70 DE06001A 		bne	.L357
 2774 1b74 070054E1 		cmp	r4, r7
 2775 1b78 D106001A 		bne	.L356
 2776 1b7c FB0600EA 		b	.L359
 2777              	.L357:
 2778              		.loc 1 305 0
 2779 1b80 4E3DA0E3 		mov	r3, #4992
 2780 1b84 073083E2 		add	r3, r3, #7
 2781 1b88 030054E1 		cmp	r4, r3
 2782 1b8c FB06008A 		bhi	.L359
 2783              		.loc 1 307 0
 2784 1b90 68109FE5 		ldr	r1, .L371
 2785 1b94 8300D1E5 		ldrb	r0, [r1, #131]	@ zero_extendqisi2
 2786 1b98 030050E3 		cmp	r0, #3
 2787 1b9c F906001A 		bne	.L361
 2788 1ba0 0230D1E5 		ldrb	r3, [r1, #2]	@ zero_extendqisi2
 2789 1ba4 090053E3 		cmp	r3, #9
 2790 1ba8 F906001A 		bne	.L361
 2791              	.LBB4:
 2792              		.loc 1 310 0
 2793 1bac 031081E2 		add	r1, r1, #3
 2794 1bb0 FEFFFFEB 		bl	bitCount
 2795 1bb4 FF0000E2 		and	r0, r0, #255
 2796              	.LVL223:
 2797              		.loc 1 312 0
 2798 1bb8 010050E3 		cmp	r0, #1
 2799 1bbc F706008A 		bhi	.L364
 2800              		.loc 1 314 0
 2801 1bc0 000050E3 		cmp	r0, #0
 2802              	.LVL224:
 2803 1bc4 07008002 		addeq	r0, r0, #7
 2804 1bc8 FC06000A 		beq	.L368
 2805              		.loc 1 317 0
 2806 1bcc 30009FE5 		ldr	r0, .L371+4
 2807 1bd0 0810A0E1 		mov	r1, r8
 2808 1bd4 0A20A0E1 		mov	r2, sl
 2809 1bd8 FEFFFFEB 		bl	processGetOrientationPins
 2810 1bdc 000050E3 		cmp	r0, #0
 2811 1be0 FC06000A 		beq	.L368
 2812              	.LVL225:
 2813              	.L364:
 2814 1be4 0600A0E3 		mov	r0, #6
 2815              	.LVL226:
 2816 1be8 FC0600EA 		b	.L368
 2817              	.L361:
 2818 1bec 0200A0E3 		mov	r0, #2
 2819 1bf0 FC0600EA 		b	.L368
 2820              	.L359:
 2821 1bf4 0300A0E3 		mov	r0, #3
ARM GAS  C:\DOCUME~1\TECHCO~1\LOCALS~1\Temp/ccQdbaaa.s 			page 70


 2822              	.L368:
 2823              	.LBE4:
 2824              		.loc 1 326 0
 2825 1bf8 04D08DE2 		add	sp, sp, #4
 2826 1bfc F085BDE8 		ldmfd	sp!, {r4, r5, r6, r7, r8, sl, pc}
 2827              	.L372:
 2828              		.align	2
 2829              	.L371:
 2830 1c00 00000000 		.word	ext_busRxPkt
 2831 1c04 03000000 		.word	ext_busRxPkt+3
 2832              	.LFE7:
 2833              		.size	getOrientationPins, .-getOrientationPins
 2834              		.align	2
 2835              		.global	getOrientationPins_AR
 2836              		.type	getOrientationPins_AR, %function
 2837              	getOrientationPins_AR:
 2838              	.LFB5:
 2839              		.loc 1 267 0
 2840              		@ args = 4, pretend = 0, frame = 0
 2841              		@ frame_needed = 0, uses_anonymous_args = 0
 2842              	.LVL227:
 2843 1c08 F0452DE9 		stmfd	sp!, {r4, r5, r6, r7, r8, sl, lr}
 2844              	.LCFI32:
 2845 1c0c 0380A0E1 		mov	r8, r3
 2846 1c10 1CA09DE5 		ldr	sl, [sp, #28]
 2847 1c14 FF7001E2 		and	r7, r1, #255
 2848 1c18 FF6002E2 		and	r6, r2, #255
 2849              		.loc 1 270 0
 2850 1c1c FF5010E2 		ands	r5, r0, #255
 2851 1c20 0300A003 		moveq	r0, #3
 2852              	.LVL228:
 2853 1c24 F085BD08 		ldmeqfd	sp!, {r4, r5, r6, r7, r8, sl, pc}
 2854              	.LVL229:
 2855 1c28 0040A0E3 		mov	r4, #0
 2856              	.LVL230:
 2857              	.L377:
 2858              		.loc 1 272 0
 2859 1c2c 0700A0E1 		mov	r0, r7
 2860              	.LVL231:
 2861 1c30 0610A0E1 		mov	r1, r6
 2862 1c34 0820A0E1 		mov	r2, r8
 2863 1c38 0A30A0E1 		mov	r3, sl
 2864 1c3c FEFFFFEB 		bl	getOrientationPins
 2865              	.LVL232:
 2866              		.loc 1 273 0
 2867 1c40 030050E3 		cmp	r0, #3
 2868 1c44 F085BD18 		ldmnefd	sp!, {r4, r5, r6, r7, r8, sl, pc}
 2869              		.loc 1 270 0
 2870 1c48 013084E2 		add	r3, r4, #1
 2871 1c4c FF4003E2 		and	r4, r3, #255
 2872 1c50 040055E1 		cmp	r5, r4
 2873 1c54 0907001A 		bne	.L377
 2874              	.LVL233:
 2875              		.loc 1 277 0
 2876 1c58 F085BDE8 		ldmfd	sp!, {r4, r5, r6, r7, r8, sl, pc}
 2877              	.LFE5:
 2878              		.size	getOrientationPins_AR, .-getOrientationPins_AR
ARM GAS  C:\DOCUME~1\TECHCO~1\LOCALS~1\Temp/ccQdbaaa.s 			page 71


 2879              		.align	2
 2880              		.global	broadcastSetAddressWithOrientationPin
 2881              		.type	broadcastSetAddressWithOrientationPin, %function
 2882              	broadcastSetAddressWithOrientationPin:
 2883              	.LFB10:
 2884              		.loc 1 379 0
 2885              		@ args = 0, pretend = 0, frame = 4
 2886              		@ frame_needed = 0, uses_anonymous_args = 0
 2887              	.LVL234:
 2888 1c5c 30402DE9 		stmfd	sp!, {r4, r5, lr}
 2889              	.LCFI33:
 2890 1c60 08D04DE2 		sub	sp, sp, #8
 2891              	.LCFI34:
 2892 1c64 FF1000E2 		and	r1, r0, #255
 2893              		.loc 1 381 0
 2894 1c68 08308DE2 		add	r3, sp, #8
 2895 1c6c 011063E5 		strb	r1, [r3, #-1]!
 2896              	.LVL235:
 2897              		.loc 1 383 0
 2898 1c70 00308DE5 		str	r3, [sp, #0]
 2899 1c74 FE00A0E3 		mov	r0, #254
 2900              	.LVL236:
 2901 1c78 0420A0E3 		mov	r2, #4
 2902 1c7c 0130A0E3 		mov	r3, #1
 2903 1c80 FEFFFFEB 		bl	cmd_BuildPacket
 2904              	.LVL237:
 2905              		.loc 1 384 0
 2906 1c84 0100A0E3 		mov	r0, #1
 2907 1c88 FEFFFFEB 		bl	cmd_Execute
 2908 1c8c 0040A0E3 		mov	r4, #0
 2909              	.LVL238:
 2910 1c90 4E3DA0E3 		mov	r3, #4992
 2911 1c94 085083E2 		add	r5, r3, #8
 2912 1c98 260700EA 		b	.L382
 2913              	.L383:
 2914              		.loc 1 390 0
 2915 1c9c 014084E2 		add	r4, r4, #1
 2916              	.L382:
 2917              		.loc 1 387 0
 2918 1ca0 0100A0E3 		mov	r0, #1
 2919 1ca4 FEFFFFEB 		bl	uartGetRxBuffer
 2920 1ca8 0010A0E1 		mov	r1, r0
 2921 1cac 0100A0E3 		mov	r0, #1
 2922 1cb0 FEFFFFEB 		bl	packetRxProcess_NoAddrClassCheck
 2923 1cb4 000050E3 		cmp	r0, #0
 2924 1cb8 3007001A 		bne	.L384
 2925 1cbc 050054E1 		cmp	r4, r5
 2926 1cc0 2507001A 		bne	.L383
 2927 1cc4 3D0700EA 		b	.L386
 2928              	.L384:
 2929              		.loc 1 391 0
 2930 1cc8 4E3DA0E3 		mov	r3, #4992
 2931 1ccc 073083E2 		add	r3, r3, #7
 2932 1cd0 030054E1 		cmp	r4, r3
 2933 1cd4 3D07008A 		bhi	.L386
 2934              		.loc 1 393 0
 2935 1cd8 28309FE5 		ldr	r3, .L393
ARM GAS  C:\DOCUME~1\TECHCO~1\LOCALS~1\Temp/ccQdbaaa.s 			page 72


 2936 1cdc 8300D3E5 		ldrb	r0, [r3, #131]	@ zero_extendqisi2
 2937 1ce0 000050E3 		cmp	r0, #0
 2938 1ce4 3B07001A 		bne	.L388
 2939 1ce8 0230D3E5 		ldrb	r3, [r3, #2]	@ zero_extendqisi2
 2940 1cec 040053E3 		cmp	r3, #4
 2941 1cf0 3E07000A 		beq	.L391
 2942              	.L388:
 2943 1cf4 0200A0E3 		mov	r0, #2
 2944 1cf8 3E0700EA 		b	.L391
 2945              	.L386:
 2946 1cfc 0300A0E3 		mov	r0, #3
 2947              	.L391:
 2948              		.loc 1 403 0
 2949 1d00 08D08DE2 		add	sp, sp, #8
 2950 1d04 3080BDE8 		ldmfd	sp!, {r4, r5, pc}
 2951              	.L394:
 2952              		.align	2
 2953              	.L393:
 2954 1d08 00000000 		.word	ext_busRxPkt
 2955              	.LFE10:
 2956              		.size	broadcastSetAddressWithOrientationPin, .-broadcastSetAddressWithOrientationPin
 2957              		.align	2
 2958              		.global	broadcastSetAddressWithOrientationPin_AR
 2959              		.type	broadcastSetAddressWithOrientationPin_AR, %function
 2960              	broadcastSetAddressWithOrientationPin_AR:
 2961              	.LFB9:
 2962              		.loc 1 366 0
 2963              		@ args = 0, pretend = 0, frame = 0
 2964              		@ frame_needed = 0, uses_anonymous_args = 0
 2965              	.LVL239:
 2966 1d0c 70402DE9 		stmfd	sp!, {r4, r5, r6, lr}
 2967              	.LCFI35:
 2968 1d10 FF6001E2 		and	r6, r1, #255
 2969              		.loc 1 369 0
 2970 1d14 FF5010E2 		ands	r5, r0, #255
 2971 1d18 0300A003 		moveq	r0, #3
 2972              	.LVL240:
 2973 1d1c 7080BD08 		ldmeqfd	sp!, {r4, r5, r6, pc}
 2974              	.LVL241:
 2975 1d20 0040A0E3 		mov	r4, #0
 2976              	.LVL242:
 2977              	.L399:
 2978              		.loc 1 371 0
 2979 1d24 0600A0E1 		mov	r0, r6
 2980              	.LVL243:
 2981 1d28 FEFFFFEB 		bl	broadcastSetAddressWithOrientationPin
 2982              	.LVL244:
 2983              		.loc 1 372 0
 2984 1d2c 030050E3 		cmp	r0, #3
 2985 1d30 7080BD18 		ldmnefd	sp!, {r4, r5, r6, pc}
 2986              		.loc 1 369 0
 2987 1d34 013084E2 		add	r3, r4, #1
 2988 1d38 FF4003E2 		and	r4, r3, #255
 2989 1d3c 040055E1 		cmp	r5, r4
 2990 1d40 4707001A 		bne	.L399
 2991              	.LVL245:
 2992              		.loc 1 376 0
ARM GAS  C:\DOCUME~1\TECHCO~1\LOCALS~1\Temp/ccQdbaaa.s 			page 73


 2993 1d44 7080BDE8 		ldmfd	sp!, {r4, r5, r6, pc}
 2994              	.LFE9:
 2995              		.size	broadcastSetAddressWithOrientationPin_AR, .-broadcastSetAddressWithOrientationPin_AR
 2996              		.align	2
 2997              		.global	broadcastGetOrientationPins
 2998              		.type	broadcastGetOrientationPins, %function
 2999              	broadcastGetOrientationPins:
 3000              	.LFB4:
 3001              		.loc 1 230 0
 3002              		@ args = 0, pretend = 0, frame = 0
 3003              		@ frame_needed = 0, uses_anonymous_args = 0
 3004              	.LVL246:
 3005 1d48 F0402DE9 		stmfd	sp!, {r4, r5, r6, r7, lr}
 3006              	.LCFI36:
 3007 1d4c 04D04DE2 		sub	sp, sp, #4
 3008              	.LCFI37:
 3009 1d50 0060A0E1 		mov	r6, r0
 3010 1d54 0170A0E1 		mov	r7, r1
 3011              		.loc 1 231 0
 3012 1d58 0040A0E3 		mov	r4, #0
 3013 1d5c 00408DE5 		str	r4, [sp, #0]
 3014 1d60 FE00A0E3 		mov	r0, #254
 3015              	.LVL247:
 3016 1d64 0410A0E1 		mov	r1, r4
 3017              	.LVL248:
 3018 1d68 0920A0E3 		mov	r2, #9
 3019 1d6c 0430A0E1 		mov	r3, r4
 3020 1d70 FEFFFFEB 		bl	cmd_BuildPacket
 3021              		.loc 1 232 0
 3022 1d74 0100A0E3 		mov	r0, #1
 3023 1d78 FEFFFFEB 		bl	cmd_Execute
 3024 1d7c 4E3DA0E3 		mov	r3, #4992
 3025 1d80 085083E2 		add	r5, r3, #8
 3026 1d84 610700EA 		b	.L404
 3027              	.LVL249:
 3028              	.L405:
 3029              		.loc 1 238 0
 3030 1d88 014084E2 		add	r4, r4, #1
 3031              	.L404:
 3032              		.loc 1 235 0
 3033 1d8c 0100A0E3 		mov	r0, #1
 3034 1d90 FEFFFFEB 		bl	uartGetRxBuffer
 3035 1d94 0010A0E1 		mov	r1, r0
 3036 1d98 0100A0E3 		mov	r0, #1
 3037 1d9c FEFFFFEB 		bl	packetRxProcess_NoAddrClassCheck
 3038 1da0 000050E3 		cmp	r0, #0
 3039 1da4 6B07001A 		bne	.L406
 3040 1da8 050054E1 		cmp	r4, r5
 3041 1dac 6007001A 		bne	.L405
 3042 1db0 8A0700EA 		b	.L408
 3043              	.L406:
 3044              		.loc 1 239 0
 3045 1db4 4E3DA0E3 		mov	r3, #4992
 3046 1db8 073083E2 		add	r3, r3, #7
 3047 1dbc 030054E1 		cmp	r4, r3
 3048 1dc0 8A07008A 		bhi	.L408
 3049              		.loc 1 241 0
ARM GAS  C:\DOCUME~1\TECHCO~1\LOCALS~1\Temp/ccQdbaaa.s 			page 74


 3050 1dc4 70109FE5 		ldr	r1, .L420
 3051 1dc8 8300D1E5 		ldrb	r0, [r1, #131]	@ zero_extendqisi2
 3052 1dcc 030050E3 		cmp	r0, #3
 3053 1dd0 8507001A 		bne	.L410
 3054 1dd4 0230D1E5 		ldrb	r3, [r1, #2]	@ zero_extendqisi2
 3055 1dd8 090053E3 		cmp	r3, #9
 3056 1ddc 8507001A 		bne	.L410
 3057              	.LBB5:
 3058              		.loc 1 244 0
 3059 1de0 031081E2 		add	r1, r1, #3
 3060 1de4 FEFFFFEB 		bl	bitCount
 3061 1de8 FF0000E2 		and	r0, r0, #255
 3062              	.LVL250:
 3063              		.loc 1 246 0
 3064 1dec 010050E3 		cmp	r0, #1
 3065 1df0 8807008A 		bhi	.L413
 3066              		.loc 1 248 0
 3067 1df4 000050E3 		cmp	r0, #0
 3068              	.LVL251:
 3069 1df8 07008002 		addeq	r0, r0, #7
 3070 1dfc 8B07000A 		beq	.L417
 3071              		.loc 1 251 0
 3072 1e00 38009FE5 		ldr	r0, .L420+4
 3073 1e04 0610A0E1 		mov	r1, r6
 3074 1e08 0720A0E1 		mov	r2, r7
 3075 1e0c FEFFFFEB 		bl	processGetOrientationPins
 3076 1e10 000050E3 		cmp	r0, #0
 3077 1e14 8807001A 		bne	.L413
 3078 1e18 8B0700EA 		b	.L417
 3079              	.L410:
 3080              	.LBE5:
 3081              		.loc 1 258 0
 3082 1e1c FEFFFFEB 		bl	printExternalCommand
 3083 1e20 0200A0E3 		mov	r0, #2
 3084 1e24 8B0700EA 		b	.L417
 3085              	.LVL252:
 3086              	.L413:
 3087              		.loc 1 259 0
 3088 1e28 0600A0E3 		mov	r0, #6
 3089              	.LVL253:
 3090 1e2c 8B0700EA 		b	.L417
 3091              	.L408:
 3092 1e30 0300A0E3 		mov	r0, #3
 3093              	.L417:
 3094              		.loc 1 264 0
 3095 1e34 04D08DE2 		add	sp, sp, #4
 3096 1e38 F080BDE8 		ldmfd	sp!, {r4, r5, r6, r7, pc}
 3097              	.L421:
 3098              		.align	2
 3099              	.L420:
 3100 1e3c 00000000 		.word	ext_busRxPkt
 3101 1e40 03000000 		.word	ext_busRxPkt+3
 3102              	.LFE4:
 3103              		.size	broadcastGetOrientationPins, .-broadcastGetOrientationPins
 3104              		.align	2
 3105              		.global	broadcastGetOrientationPins_AR
 3106              		.type	broadcastGetOrientationPins_AR, %function
ARM GAS  C:\DOCUME~1\TECHCO~1\LOCALS~1\Temp/ccQdbaaa.s 			page 75


 3107              	broadcastGetOrientationPins_AR:
 3108              	.LFB3:
 3109              		.loc 1 217 0
 3110              		@ args = 0, pretend = 0, frame = 0
 3111              		@ frame_needed = 0, uses_anonymous_args = 0
 3112              	.LVL254:
 3113 1e44 F0402DE9 		stmfd	sp!, {r4, r5, r6, r7, lr}
 3114              	.LCFI38:
 3115 1e48 0170A0E1 		mov	r7, r1
 3116 1e4c 0260A0E1 		mov	r6, r2
 3117              		.loc 1 220 0
 3118 1e50 FF5010E2 		ands	r5, r0, #255
 3119 1e54 0300A003 		moveq	r0, #3
 3120              	.LVL255:
 3121 1e58 F080BD08 		ldmeqfd	sp!, {r4, r5, r6, r7, pc}
 3122              	.LVL256:
 3123 1e5c 0040A0E3 		mov	r4, #0
 3124              	.LVL257:
 3125              	.L426:
 3126              		.loc 1 222 0
 3127 1e60 0700A0E1 		mov	r0, r7
 3128              	.LVL258:
 3129 1e64 0610A0E1 		mov	r1, r6
 3130 1e68 FEFFFFEB 		bl	broadcastGetOrientationPins
 3131              	.LVL259:
 3132              		.loc 1 223 0
 3133 1e6c 030050E3 		cmp	r0, #3
 3134 1e70 F080BD18 		ldmnefd	sp!, {r4, r5, r6, r7, pc}
 3135              		.loc 1 220 0
 3136 1e74 013084E2 		add	r3, r4, #1
 3137 1e78 FF4003E2 		and	r4, r3, #255
 3138 1e7c 040055E1 		cmp	r5, r4
 3139 1e80 9607001A 		bne	.L426
 3140              	.LVL260:
 3141              		.loc 1 227 0
 3142 1e84 F080BDE8 		ldmfd	sp!, {r4, r5, r6, r7, pc}
 3143              	.LFE3:
 3144              		.size	broadcastGetOrientationPins_AR, .-broadcastGetOrientationPins_AR
 3145              		.section	.rodata.str1.4
 3146              		.align	2
 3147              	.LC22:
 3148 027c 53696465 		.ascii	"Side \000"
 3148      2000
 3149 0282 0000     		.align	2
 3150              	.LC23:
 3151 0284 74657374 		.ascii	"test1\012\015\000"
 3151      310A0D00 
 3152              		.align	2
 3153              	.LC24:
 3154 028c 74657374 		.ascii	"test2\012\015\000"
 3154      320A0D00 
 3155              		.align	2
 3156              	.LC25:
 3157 0294 74657374 		.ascii	"test2.5\012\015\000"
 3157      322E350A 
 3157      0D00
 3158 029e 0000     		.align	2
ARM GAS  C:\DOCUME~1\TECHCO~1\LOCALS~1\Temp/ccQdbaaa.s 			page 76


 3159              	.LC26:
 3160 02a0 74657374 		.ascii	"test3\012\015\000"
 3160      330A0D00 
 3161              		.align	2
 3162              	.LC27:
 3163 02a8 74657374 		.ascii	"test4\012\015\000"
 3163      340A0D00 
 3164              		.align	2
 3165              	.LC28:
 3166 02b0 74657374 		.ascii	"test5\012\015\000"
 3166      350A0D00 
 3167              		.align	2
 3168              	.LC29:
 3169 02b8 74657374 		.ascii	"test6\012\015\000"
 3169      360A0D00 
 3170              		.align	2
 3171              	.LC30:
 3172 02c0 49443A20 		.ascii	"ID: \000"
 3172      00
 3173 02c5 000000   		.align	2
 3174              	.LC31:
 3175 02c8 436C6173 		.ascii	"Class: \000"
 3175      733A2000 
 3176              		.align	2
 3177              	.LC32:
 3178 02d0 74657374 		.ascii	"test7\012\015\000"
 3178      370A0D00 
 3179              		.align	2
 3180              	.LC33:
 3181 02d8 74657374 		.ascii	"test8\012\015\000"
 3181      380A0D00 
 3182              		.align	2
 3183              	.LC34:
 3184 02e0 74657374 		.ascii	"test9\012\015\000"
 3184      390A0D00 
 3185              		.align	2
 3186              	.LC35:
 3187 02e8 74657374 		.ascii	"test10\012\015\000"
 3187      31300A0D 
 3187      00
 3188 02f1 000000   		.align	2
 3189              	.LC36:
 3190 02f4 4572726F 		.ascii	"Error: Cannot enable tracking mode\012\000"
 3190      723A2043 
 3190      616E6E6F 
 3190      7420656E 
 3190      61626C65 
 3191              		.text
 3192              		.align	2
 3193              		.global	buildMorphology
 3194              		.type	buildMorphology, %function
 3195              	buildMorphology:
 3196              	.LFB2:
 3197              		.loc 1 15 0
 3198              		@ args = 0, pretend = 0, frame = 16
 3199              		@ frame_needed = 0, uses_anonymous_args = 0
 3200              	.LVL261:
ARM GAS  C:\DOCUME~1\TECHCO~1\LOCALS~1\Temp/ccQdbaaa.s 			page 77


 3201 1e88 F04F2DE9 		stmfd	sp!, {r4, r5, r6, r7, r8, r9, sl, fp, lr}
 3202              	.LCFI39:
 3203 1e8c 24D04DE2 		sub	sp, sp, #36
 3204              	.LCFI40:
 3205 1e90 0070A0E1 		mov	r7, r0
 3206              		.loc 1 28 0
 3207 1e94 0010A0E3 		mov	r1, #0
 3208 1e98 0010C0E5 		strb	r1, [r0, #0]
 3209              		.loc 1 29 0
 3210 1e9c 0030D0E5 		ldrb	r3, [r0, #0]	@ zero_extendqisi2
 3211 1ea0 003080E5 		str	r3, [r0, #0]
 3212              		.loc 1 30 0
 3213 1ea4 043080E5 		str	r3, [r0, #4]
 3214              		.loc 1 31 0
 3215 1ea8 083080E5 		str	r3, [r0, #8]
 3216 1eac 0C10C0E5 		strb	r1, [r0, #12]
 3217              		.loc 1 34 0
 3218 1eb0 FC20A0E3 		mov	r2, #252
 3219 1eb4 FEFFFFEB 		bl	insertNewCubeEntry
 3220              	.LVL262:
 3221 1eb8 000050E3 		cmp	r0, #0
 3222 1ebc 7A08001A 		bne	.L431
 3223 1ec0 0090A0E1 		mov	r9, r0
 3224              	.LVL263:
 3225 1ec4 01B0A0E3 		mov	fp, #1
 3226              	.LVL264:
 3227              	.LVL265:
 3228              	.L433:
 3229              	.LBB6:
 3230              		.loc 1 40 0
 3231 1ec8 0960A0E1 		mov	r6, r9
 3232 1ecc 0700A0E1 		mov	r0, r7
 3233 1ed0 0910A0E1 		mov	r1, r9
 3234 1ed4 FEFFFFEB 		bl	getCube
 3235              		.loc 1 41 0
 3236 1ed8 000050E3 		cmp	r0, #0
 3237              	.LVL266:
 3238 1edc 7C08000A 		beq	.L434
 3239              		.loc 1 43 0
 3240 1ee0 0050A0E3 		mov	r5, #0
 3241 1ee4 01A0D0E5 		ldrb	sl, [r0, #1]	@ zero_extendqisi2
 3242              	.L436:
 3243              	.LBB7:
 3244              		.loc 1 48 0
 3245 1ee8 0000A0E3 		mov	r0, #0
 3246              	.LVL267:
 3247 1eec B4139FE5 		ldr	r1, .L479
 3248 1ef0 FEFFFFEB 		bl	rprintf1RamRom
 3249              		.loc 1 49 0
 3250 1ef4 0600A0E1 		mov	r0, r6
 3251 1ef8 FEFFFFEB 		bl	rprintfu08
 3252              		.loc 1 50 0
 3253 1efc FEFFFFEB 		bl	rprintfCRLF
 3254              		.loc 1 51 0
 3255 1f00 0000A0E3 		mov	r0, #0
 3256 1f04 A0139FE5 		ldr	r1, .L479+4
 3257 1f08 FEFFFFEB 		bl	rprintf1RamRom
ARM GAS  C:\DOCUME~1\TECHCO~1\LOCALS~1\Temp/ccQdbaaa.s 			page 78


 3258              		.loc 1 52 0
 3259 1f0c 0A00A0E1 		mov	r0, sl
 3260 1f10 FEFFFFEB 		bl	rprintfu08
 3261              		.loc 1 53 0
 3262 1f14 FEFFFFEB 		bl	rprintfCRLF
 3263              		.loc 1 54 0
 3264 1f18 0000A0E3 		mov	r0, #0
 3265 1f1c 8C139FE5 		ldr	r1, .L479+8
 3266 1f20 FEFFFFEB 		bl	rprintf1RamRom
 3267 1f24 0580A0E1 		mov	r8, r5
 3268              		.loc 1 55 0
 3269 1f28 0500A0E1 		mov	r0, r5
 3270 1f2c FEFFFFEB 		bl	rprintfu08
 3271              		.loc 1 56 0
 3272 1f30 FEFFFFEB 		bl	rprintfCRLF
 3273              		.loc 1 62 0
 3274 1f34 0700A0E1 		mov	r0, r7
 3275 1f38 0610A0E1 		mov	r1, r6
 3276 1f3c FEFFFFEB 		bl	getCube
 3277 1f40 000050E3 		cmp	r0, #0
 3278 1f44 7C08000A 		beq	.L434
 3279              		.loc 1 68 0
 3280 1f48 0510A0E1 		mov	r1, r5
 3281 1f4c FEFFFFEB 		bl	getCubeLink
 3282              		.loc 1 69 0
 3283 1f50 004050E2 		subs	r4, r0, #0
 3284              	.LVL268:
 3285 1f54 6A08001A 		bne	.L438
 3286              		.loc 1 76 0
 3287 1f58 54139FE5 		ldr	r1, .L479+12
 3288 1f5c FEFFFFEB 		bl	rprintf1RamRom
 3289              		.loc 1 78 0
 3290 1f60 00408DE5 		str	r4, [sp, #0]
 3291 1f64 0130A0E3 		mov	r3, #1
 3292 1f68 04308DE5 		str	r3, [sp, #4]
 3293 1f6c 0500A0E3 		mov	r0, #5
 3294 1f70 0610A0E1 		mov	r1, r6
 3295 1f74 0A20A0E1 		mov	r2, sl
 3296 1f78 0530A0E1 		mov	r3, r5
 3297 1f7c FEFFFFEB 		bl	setOrientationPin_AR
 3298 1f80 FF4000E2 		and	r4, r0, #255
 3299              	.LVL269:
 3300              		.loc 1 79 0
 3301 1f84 100054E3 		cmp	r4, #16
 3302 1f88 E507001A 		bne	.L440
 3303              		.loc 1 81 0
 3304 1f8c FEFFFFEB 		bl	printExternalCommand
 3305              		.loc 1 82 0
 3306 1f90 0400A0E1 		mov	r0, r4
 3307 1f94 FEFFFFEB 		bl	printOrientationErrorCode
 3308 1f98 6A0800EA 		b	.L438
 3309              	.L440:
 3310              		.loc 1 84 0
 3311 1f9c 000054E3 		cmp	r4, #0
 3312 1fa0 7E08001A 		bne	.L469
 3313              		.loc 1 90 0
 3314 1fa4 0000A0E3 		mov	r0, #0
ARM GAS  C:\DOCUME~1\TECHCO~1\LOCALS~1\Temp/ccQdbaaa.s 			page 79


 3315 1fa8 08139FE5 		ldr	r1, .L479+16
 3316 1fac FEFFFFEB 		bl	rprintf1RamRom
 3317              		.loc 1 94 0
 3318 1fb0 0500A0E3 		mov	r0, #5
 3319 1fb4 22108DE2 		add	r1, sp, #34
 3320 1fb8 23208DE2 		add	r2, sp, #35
 3321 1fbc FEFFFFEB 		bl	broadcastGetOrientationPins_AR
 3322              		.loc 1 96 0
 3323 1fc0 FF4010E2 		ands	r4, r0, #255
 3324              	.LVL270:
 3325 1fc4 0608001A 		bne	.L445
 3326              		.loc 1 116 0
 3327 1fc8 0400A0E1 		mov	r0, r4
 3328 1fcc FEFFFFEB 		bl	printOrientationErrorCode
 3329              		.loc 1 117 0
 3330 1fd0 FEFFFFEB 		bl	printExternalCommand
 3331              		.loc 1 118 0
 3332 1fd4 00408DE5 		str	r4, [sp, #0]
 3333 1fd8 DC229FE5 		ldr	r2, .L479+20
 3334 1fdc 0030D2E5 		ldrb	r3, [r2, #0]	@ zero_extendqisi2
 3335 1fe0 04308DE5 		str	r3, [sp, #4]
 3336 1fe4 0130D2E5 		ldrb	r3, [r2, #1]	@ zero_extendqisi2
 3337 1fe8 08308DE5 		str	r3, [sp, #8]
 3338 1fec 2230DDE5 		ldrb	r3, [sp, #34]	@ zero_extendqisi2
 3339 1ff0 0C308DE5 		str	r3, [sp, #12]
 3340 1ff4 2330DDE5 		ldrb	r3, [sp, #35]	@ zero_extendqisi2
 3341 1ff8 10308DE5 		str	r3, [sp, #16]
 3342 1ffc 0700A0E1 		mov	r0, r7
 3343 2000 0610A0E1 		mov	r1, r6
 3344 2004 0A20A0E1 		mov	r2, sl
 3345 2008 0530A0E1 		mov	r3, r5
 3346 200c FEFFFFEB 		bl	insertNewLinkEntry
 3347 2010 000050E3 		cmp	r0, #0
 3348 2014 6A08000A 		beq	.L438
 3349 2018 0400A0E3 		mov	r0, #4
 3350 201c A60800EA 		b	.L444
 3351              	.L445:
 3352              		.loc 1 124 0
 3353 2020 030054E3 		cmp	r4, #3
 3354 2024 8308001A 		bne	.L470
 3355              		.loc 1 131 0
 3356 2028 0000A0E3 		mov	r0, #0
 3357 202c 8C129FE5 		ldr	r1, .L479+24
 3358 2030 FEFFFFEB 		bl	rprintf1RamRom
 3359              		.loc 1 133 0
 3360 2034 0500A0E3 		mov	r0, #5
 3361 2038 0B10A0E1 		mov	r1, fp
 3362 203c FEFFFFEB 		bl	broadcastSetAddressWithOrientationPin_AR
 3363 2040 FF0000E2 		and	r0, r0, #255
 3364              	.LVL271:
 3365              		.loc 1 135 0
 3366 2044 030050E3 		cmp	r0, #3
 3367 2048 2108001A 		bne	.L450
 3368              	.LVL272:
 3369              		.loc 1 138 0
 3370 204c 030040E2 		sub	r0, r0, #3
 3371 2050 6C129FE5 		ldr	r1, .L479+28
ARM GAS  C:\DOCUME~1\TECHCO~1\LOCALS~1\Temp/ccQdbaaa.s 			page 80


 3372 2054 FEFFFFEB 		bl	rprintf1RamRom
 3373              		.loc 1 140 0
 3374 2058 0030A0E3 		mov	r3, #0
 3375 205c 00308DE5 		str	r3, [sp, #0]
 3376 2060 04308DE5 		str	r3, [sp, #4]
 3377 2064 0500A0E3 		mov	r0, #5
 3378 2068 0610A0E1 		mov	r1, r6
 3379 206c 0A20A0E1 		mov	r2, sl
 3380 2070 0530A0E1 		mov	r3, r5
 3381 2074 FEFFFFEB 		bl	setOrientationPin_AR
 3382              		.loc 1 141 0
 3383 2078 FF0010E2 		ands	r0, r0, #255
 3384 207c A508001A 		bne	.L452
 3385              		.loc 1 145 0
 3386 2080 40129FE5 		ldr	r1, .L479+32
 3387 2084 FEFFFFEB 		bl	rprintf1RamRom
 3388 2088 6A0800EA 		b	.L438
 3389              	.LVL273:
 3390              	.L450:
 3391              		.loc 1 147 0
 3392 208c 000050E3 		cmp	r0, #0
 3393 2090 8808001A 		bne	.L471
 3394              		.loc 1 153 0
 3395 2094 30129FE5 		ldr	r1, .L479+36
 3396 2098 FEFFFFEB 		bl	rprintf1RamRom
 3397              	.LVL274:
 3398              		.loc 1 158 0
 3399 209c 18329FE5 		ldr	r3, .L479+20
 3400 20a0 0040D3E5 		ldrb	r4, [r3, #0]	@ zero_extendqisi2
 3401              	.LVL275:
 3402 20a4 0130D3E5 		ldrb	r3, [r3, #1]	@ zero_extendqisi2
 3403 20a8 14308DE5 		str	r3, [sp, #20]
 3404 20ac 0700A0E1 		mov	r0, r7
 3405 20b0 0410A0E1 		mov	r1, r4
 3406 20b4 0320A0E1 		mov	r2, r3
 3407 20b8 FEFFFFEB 		bl	insertNewCubeEntry
 3408 20bc 003050E2 		subs	r3, r0, #0
 3409 20c0 18308DE5 		str	r3, [sp, #24]
 3410 20c4 7A08001A 		bne	.L431
 3411              		.loc 1 160 0
 3412 20c8 00129FE5 		ldr	r1, .L479+40
 3413 20cc FEFFFFEB 		bl	rprintf1RamRom
 3414              		.loc 1 162 0
 3415 20d0 23308DE2 		add	r3, sp, #35
 3416 20d4 00308DE5 		str	r3, [sp, #0]
 3417 20d8 0500A0E3 		mov	r0, #5
 3418 20dc 0410A0E1 		mov	r1, r4
 3419 20e0 14209DE5 		ldr	r2, [sp, #20]
 3420 20e4 22308DE2 		add	r3, sp, #34
 3421 20e8 FEFFFFEB 		bl	getOrientationPins_AR
 3422 20ec FF0010E2 		ands	r0, r0, #255
 3423 20f0 1C008DE5 		str	r0, [sp, #28]
 3424 20f4 8C08001A 		bne	.L472
 3425              		.loc 1 174 0
 3426 20f8 0000A0E3 		mov	r0, #0
 3427 20fc D0119FE5 		ldr	r1, .L479+44
 3428 2100 FEFFFFEB 		bl	rprintf1RamRom
ARM GAS  C:\DOCUME~1\TECHCO~1\LOCALS~1\Temp/ccQdbaaa.s 			page 81


 3429              		.loc 1 176 0
 3430 2104 0030A0E3 		mov	r3, #0
 3431 2108 18008DE8 		stmia	sp, {r3, r4}	@ phole stm
 3432 210c 14309DE5 		ldr	r3, [sp, #20]
 3433 2110 08308DE5 		str	r3, [sp, #8]
 3434 2114 2230DDE5 		ldrb	r3, [sp, #34]	@ zero_extendqisi2
 3435 2118 0C308DE5 		str	r3, [sp, #12]
 3436 211c 2330DDE5 		ldrb	r3, [sp, #35]	@ zero_extendqisi2
 3437 2120 10308DE5 		str	r3, [sp, #16]
 3438 2124 0700A0E1 		mov	r0, r7
 3439 2128 0610A0E1 		mov	r1, r6
 3440 212c 0A20A0E1 		mov	r2, sl
 3441 2130 0530A0E1 		mov	r3, r5
 3442 2134 FEFFFFEB 		bl	insertNewLinkEntry
 3443 2138 FF0010E2 		ands	r0, r0, #255
 3444              	.LVL276:
 3445 213c 9D08001A 		bne	.L473
 3446              		.loc 1 184 0
 3447 2140 0000A0E3 		mov	r0, #0
 3448              	.LVL277:
 3449 2144 8C119FE5 		ldr	r1, .L479+48
 3450 2148 FEFFFFEB 		bl	rprintf1RamRom
 3451              		.loc 1 186 0
 3452 214c 0700A0E1 		mov	r0, r7
 3453 2150 0410A0E1 		mov	r1, r4
 3454 2154 14209DE5 		ldr	r2, [sp, #20]
 3455 2158 FEFFFFEB 		bl	setInitialState
 3456 215c FF0000E2 		and	r0, r0, #255
 3457              	.LVL278:
 3458              		.loc 1 187 0
 3459 2160 0F0050E3 		cmp	r0, #15
 3460 2164 00005013 		cmpne	r0, #0
 3461 2168 A108001A 		bne	.L474
 3462              		.loc 1 198 0
 3463 216c 0000A0E3 		mov	r0, #0
 3464              	.LVL279:
 3465 2170 64119FE5 		ldr	r1, .L479+52
 3466 2174 FEFFFFEB 		bl	rprintf1RamRom
 3467              		.loc 1 199 0
 3468 2178 0030A0E3 		mov	r3, #0
 3469 217c 00308DE5 		str	r3, [sp, #0]
 3470 2180 04308DE5 		str	r3, [sp, #4]
 3471 2184 0500A0E3 		mov	r0, #5
 3472 2188 0610A0E1 		mov	r1, r6
 3473 218c 0A20A0E1 		mov	r2, sl
 3474 2190 0530A0E1 		mov	r3, r5
 3475 2194 FEFFFFEB 		bl	setOrientationPin_AR
 3476 2198 000050E3 		cmp	r0, #0
 3477 219c A508001A 		bne	.L452
 3478              		.loc 1 195 0
 3479 21a0 01308BE2 		add	r3, fp, #1
 3480 21a4 FFB003E2 		and	fp, r3, #255
 3481              		.loc 1 201 0
 3482 21a8 30119FE5 		ldr	r1, .L479+56
 3483 21ac FEFFFFEB 		bl	rprintf1RamRom
 3484              	.LVL280:
 3485              	.L438:
ARM GAS  C:\DOCUME~1\TECHCO~1\LOCALS~1\Temp/ccQdbaaa.s 			page 82


 3486 21b0 015085E2 		add	r5, r5, #1
 3487              	.LBE7:
 3488              		.loc 1 45 0
 3489 21b4 060055E3 		cmp	r5, #6
 3490 21b8 B807001A 		bne	.L436
 3491              		.loc 1 203 0
 3492 21bc 013089E2 		add	r3, r9, #1
 3493 21c0 FF9003E2 		and	r9, r3, #255
 3494              	.LBE6:
 3495              		.loc 1 37 0
 3496 21c4 09005BE1 		cmp	fp, r9
 3497 21c8 B007008A 		bhi	.L433
 3498              		.loc 1 207 0
 3499 21cc 0700A0E1 		mov	r0, r7
 3500 21d0 FEFFFFEB 		bl	enableAngleTracking
 3501 21d4 000050E3 		cmp	r0, #0
 3502 21d8 A608000A 		beq	.L444
 3503              		.loc 1 209 0
 3504 21dc 0000A0E3 		mov	r0, #0
 3505 21e0 FC109FE5 		ldr	r1, .L479+60
 3506 21e4 FEFFFFEB 		bl	rprintf1RamRom
 3507 21e8 0E00A0E3 		mov	r0, #14
 3508 21ec A60800EA 		b	.L444
 3509              	.LVL281:
 3510              	.L431:
 3511              		.loc 1 210 0
 3512 21f0 0B00A0E3 		mov	r0, #11
 3513 21f4 A60800EA 		b	.L444
 3514              	.LVL282:
 3515              	.L434:
 3516 21f8 0700A0E3 		mov	r0, #7
 3517              	.LVL283:
 3518 21fc A60800EA 		b	.L444
 3519              	.LVL284:
 3520              	.L469:
 3521              	.LBB8:
 3522              	.LBB9:
 3523              		.loc 1 85 0
 3524 2200 0400A0E1 		mov	r0, r4
 3525 2204 FEFFFFEB 		bl	printOrientationErrorCode
 3526              		.loc 1 86 0
 3527 2208 FEFFFFEB 		bl	printExternalCommand
 3528 220c 0100A0E3 		mov	r0, #1
 3529 2210 A60800EA 		b	.L444
 3530              	.LVL285:
 3531              	.L470:
 3532              		.loc 1 126 0
 3533 2214 0400A0E1 		mov	r0, r4
 3534 2218 FEFFFFEB 		bl	printOrientationErrorCode
 3535              		.loc 1 127 0
 3536 221c FEFFFFEB 		bl	printExternalCommand
 3537 2220 0200A0E3 		mov	r0, #2
 3538 2224 A60800EA 		b	.L444
 3539              	.LVL286:
 3540              	.L471:
 3541              		.loc 1 149 0
 3542 2228 FEFFFFEB 		bl	printOrientationErrorCode
ARM GAS  C:\DOCUME~1\TECHCO~1\LOCALS~1\Temp/ccQdbaaa.s 			page 83


 3543              	.LVL287:
 3544              		.loc 1 150 0
 3545 222c FEFFFFEB 		bl	printExternalCommand
 3546 2230 0200A0E3 		mov	r0, #2
 3547 2234 A60800EA 		b	.L444
 3548              	.LVL288:
 3549              	.L472:
 3550              		.loc 1 164 0
 3551 2238 18009DE5 		ldr	r0, [sp, #24]
 3552 223c A4109FE5 		ldr	r1, .L479+64
 3553 2240 FEFFFFEB 		bl	rprintf1RamRom
 3554              		.loc 1 165 0
 3555 2244 0400A0E1 		mov	r0, r4
 3556 2248 FEFFFFEB 		bl	rprintfu08
 3557              		.loc 1 166 0
 3558 224c FEFFFFEB 		bl	rprintfCRLF
 3559              		.loc 1 167 0
 3560 2250 18009DE5 		ldr	r0, [sp, #24]
 3561 2254 90109FE5 		ldr	r1, .L479+68
 3562 2258 FEFFFFEB 		bl	rprintf1RamRom
 3563              		.loc 1 168 0
 3564 225c 14009DE5 		ldr	r0, [sp, #20]
 3565 2260 FEFFFFEB 		bl	rprintfu08
 3566              		.loc 1 169 0
 3567 2264 FEFFFFEB 		bl	rprintfCRLF
 3568              		.loc 1 170 0
 3569 2268 1C009DE5 		ldr	r0, [sp, #28]
 3570 226c FEFFFFEB 		bl	printOrientationErrorCode
 3571              		.loc 1 171 0
 3572 2270 FEFFFFEB 		bl	printExternalCommand
 3573 2274 0200A0E3 		mov	r0, #2
 3574 2278 A60800EA 		b	.L444
 3575              	.LVL289:
 3576              	.L473:
 3577              		.loc 1 180 0
 3578 227c FEFFFFEB 		bl	printOrientationErrorCode
 3579              	.LVL290:
 3580              		.loc 1 181 0
 3581 2280 FEFFFFEB 		bl	printExternalCommand
 3582 2284 0400A0E3 		mov	r0, #4
 3583 2288 A60800EA 		b	.L444
 3584              	.LVL291:
 3585              	.L474:
 3586              		.loc 1 190 0
 3587 228c FEFFFFEB 		bl	printOrientationErrorCode
 3588              	.LVL292:
 3589              		.loc 1 191 0
 3590 2290 FEFFFFEB 		bl	printExternalCommand
 3591 2294 0E00A0E3 		mov	r0, #14
 3592 2298 A60800EA 		b	.L444
 3593              	.LVL293:
 3594              	.L452:
 3595              	.LBE9:
 3596              	.LBE8:
 3597              		.loc 1 210 0
 3598 229c 0100A0E3 		mov	r0, #1
 3599              	.LVL294:
ARM GAS  C:\DOCUME~1\TECHCO~1\LOCALS~1\Temp/ccQdbaaa.s 			page 84


 3600              	.L444:
 3601              		.loc 1 214 0
 3602 22a0 24D08DE2 		add	sp, sp, #36
 3603 22a4 F08FBDE8 		ldmfd	sp!, {r4, r5, r6, r7, r8, r9, sl, fp, pc}
 3604              	.L480:
 3605              		.align	2
 3606              	.L479:
 3607 22a8 60020000 		.word	.LC18
 3608 22ac 64020000 		.word	.LC19
 3609 22b0 7C020000 		.word	.LC22
 3610 22b4 84020000 		.word	.LC23
 3611 22b8 8C020000 		.word	.LC24
 3612 22bc 00000000 		.word	ext_busRxPkt
 3613 22c0 94020000 		.word	.LC25
 3614 22c4 A0020000 		.word	.LC26
 3615 22c8 A8020000 		.word	.LC27
 3616 22cc B0020000 		.word	.LC28
 3617 22d0 B8020000 		.word	.LC29
 3618 22d4 D0020000 		.word	.LC32
 3619 22d8 D8020000 		.word	.LC33
 3620 22dc E0020000 		.word	.LC34
 3621 22e0 E8020000 		.word	.LC35
 3622 22e4 F4020000 		.word	.LC36
 3623 22e8 C0020000 		.word	.LC30
 3624 22ec C8020000 		.word	.LC31
 3625              	.LFE2:
 3626              		.size	buildMorphology, .-buildMorphology
 3627              		.comm	cmesh,4,4
 3628              		.comm	efs,708,4
 3629              		.comm	filer,80,4
 3630              		.comm	filew,80,4
 3631              		.comm	list,52,4
 3632              		.comm	cubemorph,16,4
 3633              		.comm	cmdBufferData,128,1
 3634              		.comm	cmdBuffer,12,4
 3635              		.comm	int_busRxPkt,132,4
 3636              		.comm	ext_busRxPkt,132,4
 3637              		.section	.debug_frame,"",%progbits
 3638              	.Lframe0:
 3639 0000 0C000000 		.4byte	.LECIE0-.LSCIE0
 3640              	.LSCIE0:
 3641 0004 FFFFFFFF 		.4byte	0xffffffff
 3642 0008 01       		.byte	0x1
 3643 0009 00       		.ascii	"\000"
 3644 000a 01       		.uleb128 0x1
 3645 000b 7C       		.sleb128 -4
 3646 000c 0E       		.byte	0xe
 3647 000d 0C       		.byte	0xc
 3648 000e 0D       		.uleb128 0xd
 3649 000f 00       		.uleb128 0x0
 3650              		.align	2
 3651              	.LECIE0:
 3652              	.LSFDE0:
 3653 0010 14000000 		.4byte	.LEFDE0-.LASFDE0
 3654              	.LASFDE0:
 3655 0014 00000000 		.4byte	.Lframe0
 3656 0018 00000000 		.4byte	.LFB6
ARM GAS  C:\DOCUME~1\TECHCO~1\LOCALS~1\Temp/ccQdbaaa.s 			page 85


 3657 001c 58000000 		.4byte	.LFE6-.LFB6
 3658 0020 44       		.byte	0x4
 3659              		.4byte	.LCFI0-.LFB6
 3660 0021 0E       		.byte	0xe
 3661 0022 08       		.uleb128 0x8
 3662 0023 8E       		.byte	0x8e
 3663 0024 01       		.uleb128 0x1
 3664 0025 84       		.byte	0x84
 3665 0026 02       		.uleb128 0x2
 3666 0027 00       		.align	2
 3667              	.LEFDE0:
 3668              	.LSFDE2:
 3669 0028 0C000000 		.4byte	.LEFDE2-.LASFDE2
 3670              	.LASFDE2:
 3671 002c 00000000 		.4byte	.Lframe0
 3672 0030 58000000 		.4byte	.LFB8
 3673 0034 0C010000 		.4byte	.LFE8-.LFB8
 3674              		.align	2
 3675              	.LEFDE2:
 3676              	.LSFDE4:
 3677 0038 14000000 		.4byte	.LEFDE4-.LASFDE4
 3678              	.LASFDE4:
 3679 003c 00000000 		.4byte	.Lframe0
 3680 0040 64010000 		.4byte	.LFB18
 3681 0044 7C000000 		.4byte	.LFE18-.LFB18
 3682 0048 44       		.byte	0x4
 3683              		.4byte	.LCFI1-.LFB18
 3684 0049 0E       		.byte	0xe
 3685 004a 08       		.uleb128 0x8
 3686 004b 8E       		.byte	0x8e
 3687 004c 01       		.uleb128 0x1
 3688 004d 84       		.byte	0x84
 3689 004e 02       		.uleb128 0x2
 3690 004f 00       		.align	2
 3691              	.LEFDE4:
 3692              	.LSFDE6:
 3693 0050 14000000 		.4byte	.LEFDE6-.LASFDE6
 3694              	.LASFDE6:
 3695 0054 00000000 		.4byte	.Lframe0
 3696 0058 E0010000 		.4byte	.LFB19
 3697 005c 64000000 		.4byte	.LFE19-.LFB19
 3698 0060 44       		.byte	0x4
 3699              		.4byte	.LCFI2-.LFB19
 3700 0061 0E       		.byte	0xe
 3701 0062 04       		.uleb128 0x4
 3702 0063 8E       		.byte	0x8e
 3703 0064 01       		.uleb128 0x1
 3704 0065 000000   		.align	2
 3705              	.LEFDE6:
 3706              	.LSFDE8:
 3707 0068 14000000 		.4byte	.LEFDE8-.LASFDE8
 3708              	.LASFDE8:
 3709 006c 00000000 		.4byte	.Lframe0
 3710 0070 44020000 		.4byte	.LFB20
 3711 0074 68000000 		.4byte	.LFE20-.LFB20
 3712 0078 44       		.byte	0x4
 3713              		.4byte	.LCFI3-.LFB20
ARM GAS  C:\DOCUME~1\TECHCO~1\LOCALS~1\Temp/ccQdbaaa.s 			page 86


 3714 0079 0E       		.byte	0xe
 3715 007a 08       		.uleb128 0x8
 3716 007b 8E       		.byte	0x8e
 3717 007c 01       		.uleb128 0x1
 3718 007d 84       		.byte	0x84
 3719 007e 02       		.uleb128 0x2
 3720 007f 00       		.align	2
 3721              	.LEFDE8:
 3722              	.LSFDE10:
 3723 0080 14000000 		.4byte	.LEFDE10-.LASFDE10
 3724              	.LASFDE10:
 3725 0084 00000000 		.4byte	.Lframe0
 3726 0088 AC020000 		.4byte	.LFB21
 3727 008c 60000000 		.4byte	.LFE21-.LFB21
 3728 0090 44       		.byte	0x4
 3729              		.4byte	.LCFI4-.LFB21
 3730 0091 0E       		.byte	0xe
 3731 0092 04       		.uleb128 0x4
 3732 0093 8E       		.byte	0x8e
 3733 0094 01       		.uleb128 0x1
 3734 0095 000000   		.align	2
 3735              	.LEFDE10:
 3736              	.LSFDE12:
 3737 0098 1C000000 		.4byte	.LEFDE12-.LASFDE12
 3738              	.LASFDE12:
 3739 009c 00000000 		.4byte	.Lframe0
 3740 00a0 0C030000 		.4byte	.LFB24
 3741 00a4 28010000 		.4byte	.LFE24-.LFB24
 3742 00a8 44       		.byte	0x4
 3743              		.4byte	.LCFI5-.LFB24
 3744 00a9 0E       		.byte	0xe
 3745 00aa 18       		.uleb128 0x18
 3746 00ab 8E       		.byte	0x8e
 3747 00ac 01       		.uleb128 0x1
 3748 00ad 88       		.byte	0x88
 3749 00ae 02       		.uleb128 0x2
 3750 00af 87       		.byte	0x87
 3751 00b0 03       		.uleb128 0x3
 3752 00b1 86       		.byte	0x86
 3753 00b2 04       		.uleb128 0x4
 3754 00b3 85       		.byte	0x85
 3755 00b4 05       		.uleb128 0x5
 3756 00b5 84       		.byte	0x84
 3757 00b6 06       		.uleb128 0x6
 3758 00b7 00       		.align	2
 3759              	.LEFDE12:
 3760              	.LSFDE14:
 3761 00b8 0C000000 		.4byte	.LEFDE14-.LASFDE14
 3762              	.LASFDE14:
 3763 00bc 00000000 		.4byte	.Lframe0
 3764 00c0 34040000 		.4byte	.LFB29
 3765 00c4 38000000 		.4byte	.LFE29-.LFB29
 3766              		.align	2
 3767              	.LEFDE14:
 3768              	.LSFDE16:
 3769 00c8 20000000 		.4byte	.LEFDE16-.LASFDE16
 3770              	.LASFDE16:
ARM GAS  C:\DOCUME~1\TECHCO~1\LOCALS~1\Temp/ccQdbaaa.s 			page 87


 3771 00cc 00000000 		.4byte	.Lframe0
 3772 00d0 6C040000 		.4byte	.LFB30
 3773 00d4 E4000000 		.4byte	.LFE30-.LFB30
 3774 00d8 44       		.byte	0x4
 3775              		.4byte	.LCFI6-.LFB30
 3776 00d9 0E       		.byte	0xe
 3777 00da 1C       		.uleb128 0x1c
 3778 00db 8E       		.byte	0x8e
 3779 00dc 01       		.uleb128 0x1
 3780 00dd 8A       		.byte	0x8a
 3781 00de 02       		.uleb128 0x2
 3782 00df 88       		.byte	0x88
 3783 00e0 03       		.uleb128 0x3
 3784 00e1 87       		.byte	0x87
 3785 00e2 04       		.uleb128 0x4
 3786 00e3 86       		.byte	0x86
 3787 00e4 05       		.uleb128 0x5
 3788 00e5 85       		.byte	0x85
 3789 00e6 06       		.uleb128 0x6
 3790 00e7 84       		.byte	0x84
 3791 00e8 07       		.uleb128 0x7
 3792 00e9 000000   		.align	2
 3793              	.LEFDE16:
 3794              	.LSFDE18:
 3795 00ec 18000000 		.4byte	.LEFDE18-.LASFDE18
 3796              	.LASFDE18:
 3797 00f0 00000000 		.4byte	.Lframe0
 3798 00f4 50050000 		.4byte	.LFB31
 3799 00f8 90000000 		.4byte	.LFE31-.LFB31
 3800 00fc 44       		.byte	0x4
 3801              		.4byte	.LCFI7-.LFB31
 3802 00fd 0E       		.byte	0xe
 3803 00fe 10       		.uleb128 0x10
 3804 00ff 8E       		.byte	0x8e
 3805 0100 01       		.uleb128 0x1
 3806 0101 86       		.byte	0x86
 3807 0102 02       		.uleb128 0x2
 3808 0103 85       		.byte	0x85
 3809 0104 03       		.uleb128 0x3
 3810 0105 84       		.byte	0x84
 3811 0106 04       		.uleb128 0x4
 3812 0107 00       		.align	2
 3813              	.LEFDE18:
 3814              	.LSFDE20:
 3815 0108 14000000 		.4byte	.LEFDE20-.LASFDE20
 3816              	.LASFDE20:
 3817 010c 00000000 		.4byte	.Lframe0
 3818 0110 E0050000 		.4byte	.LFB32
 3819 0114 BC010000 		.4byte	.LFE32-.LFB32
 3820 0118 44       		.byte	0x4
 3821              		.4byte	.LCFI8-.LFB32
 3822 0119 0E       		.byte	0xe
 3823 011a 04       		.uleb128 0x4
 3824 011b 8E       		.byte	0x8e
 3825 011c 01       		.uleb128 0x1
 3826 011d 000000   		.align	2
 3827              	.LEFDE20:
ARM GAS  C:\DOCUME~1\TECHCO~1\LOCALS~1\Temp/ccQdbaaa.s 			page 88


 3828              	.LSFDE22:
 3829 0120 18000000 		.4byte	.LEFDE22-.LASFDE22
 3830              	.LASFDE22:
 3831 0124 00000000 		.4byte	.Lframe0
 3832 0128 9C070000 		.4byte	.LFB28
 3833 012c 98000000 		.4byte	.LFE28-.LFB28
 3834 0130 44       		.byte	0x4
 3835              		.4byte	.LCFI9-.LFB28
 3836 0131 0E       		.byte	0xe
 3837 0132 0C       		.uleb128 0xc
 3838 0133 8E       		.byte	0x8e
 3839 0134 01       		.uleb128 0x1
 3840 0135 85       		.byte	0x85
 3841 0136 02       		.uleb128 0x2
 3842 0137 84       		.byte	0x84
 3843 0138 03       		.uleb128 0x3
 3844 0139 000000   		.align	2
 3845              	.LEFDE22:
 3846              	.LSFDE24:
 3847 013c 24000000 		.4byte	.LEFDE24-.LASFDE24
 3848              	.LASFDE24:
 3849 0140 00000000 		.4byte	.Lframe0
 3850 0144 34080000 		.4byte	.LFB27
 3851 0148 3C050000 		.4byte	.LFE27-.LFB27
 3852 014c 44       		.byte	0x4
 3853              		.4byte	.LCFI10-.LFB27
 3854 014d 0E       		.byte	0xe
 3855 014e 24       		.uleb128 0x24
 3856 014f 44       		.byte	0x4
 3857              		.4byte	.LCFI11-.LCFI10
 3858 0150 0E       		.byte	0xe
 3859 0151 28       		.uleb128 0x28
 3860 0152 8E       		.byte	0x8e
 3861 0153 01       		.uleb128 0x1
 3862 0154 8B       		.byte	0x8b
 3863 0155 02       		.uleb128 0x2
 3864 0156 8A       		.byte	0x8a
 3865 0157 03       		.uleb128 0x3
 3866 0158 89       		.byte	0x89
 3867 0159 04       		.uleb128 0x4
 3868 015a 88       		.byte	0x88
 3869 015b 05       		.uleb128 0x5
 3870 015c 87       		.byte	0x87
 3871 015d 06       		.uleb128 0x6
 3872 015e 86       		.byte	0x86
 3873 015f 07       		.uleb128 0x7
 3874 0160 85       		.byte	0x85
 3875 0161 08       		.uleb128 0x8
 3876 0162 84       		.byte	0x84
 3877 0163 09       		.uleb128 0x9
 3878              		.align	2
 3879              	.LEFDE24:
 3880              	.LSFDE26:
 3881 0164 24000000 		.4byte	.LEFDE26-.LASFDE26
 3882              	.LASFDE26:
 3883 0168 00000000 		.4byte	.Lframe0
 3884 016c 700D0000 		.4byte	.LFB26
ARM GAS  C:\DOCUME~1\TECHCO~1\LOCALS~1\Temp/ccQdbaaa.s 			page 89


 3885 0170 A8040000 		.4byte	.LFE26-.LFB26
 3886 0174 44       		.byte	0x4
 3887              		.4byte	.LCFI12-.LFB26
 3888 0175 0E       		.byte	0xe
 3889 0176 24       		.uleb128 0x24
 3890 0177 44       		.byte	0x4
 3891              		.4byte	.LCFI13-.LCFI12
 3892 0178 0E       		.byte	0xe
 3893 0179 28       		.uleb128 0x28
 3894 017a 8E       		.byte	0x8e
 3895 017b 01       		.uleb128 0x1
 3896 017c 8B       		.byte	0x8b
 3897 017d 02       		.uleb128 0x2
 3898 017e 8A       		.byte	0x8a
 3899 017f 03       		.uleb128 0x3
 3900 0180 89       		.byte	0x89
 3901 0181 04       		.uleb128 0x4
 3902 0182 88       		.byte	0x88
 3903 0183 05       		.uleb128 0x5
 3904 0184 87       		.byte	0x87
 3905 0185 06       		.uleb128 0x6
 3906 0186 86       		.byte	0x86
 3907 0187 07       		.uleb128 0x7
 3908 0188 85       		.byte	0x85
 3909 0189 08       		.uleb128 0x8
 3910 018a 84       		.byte	0x84
 3911 018b 09       		.uleb128 0x9
 3912              		.align	2
 3913              	.LEFDE26:
 3914              	.LSFDE28:
 3915 018c 18000000 		.4byte	.LEFDE28-.LASFDE28
 3916              	.LASFDE28:
 3917 0190 00000000 		.4byte	.Lframe0
 3918 0194 18120000 		.4byte	.LFB25
 3919 0198 F4000000 		.4byte	.LFE25-.LFB25
 3920 019c 44       		.byte	0x4
 3921              		.4byte	.LCFI14-.LFB25
 3922 019d 0E       		.byte	0xe
 3923 019e 10       		.uleb128 0x10
 3924 019f 8E       		.byte	0x8e
 3925 01a0 01       		.uleb128 0x1
 3926 01a1 86       		.byte	0x86
 3927 01a2 02       		.uleb128 0x2
 3928 01a3 85       		.byte	0x85
 3929 01a4 03       		.uleb128 0x3
 3930 01a5 84       		.byte	0x84
 3931 01a6 04       		.uleb128 0x4
 3932 01a7 00       		.align	2
 3933              	.LEFDE28:
 3934              	.LSFDE30:
 3935 01a8 24000000 		.4byte	.LEFDE30-.LASFDE30
 3936              	.LASFDE30:
 3937 01ac 00000000 		.4byte	.Lframe0
 3938 01b0 0C130000 		.4byte	.LFB23
 3939 01b4 70020000 		.4byte	.LFE23-.LFB23
 3940 01b8 44       		.byte	0x4
 3941              		.4byte	.LCFI15-.LFB23
ARM GAS  C:\DOCUME~1\TECHCO~1\LOCALS~1\Temp/ccQdbaaa.s 			page 90


 3942 01b9 0E       		.byte	0xe
 3943 01ba 24       		.uleb128 0x24
 3944 01bb 44       		.byte	0x4
 3945              		.4byte	.LCFI16-.LCFI15
 3946 01bc 0E       		.byte	0xe
 3947 01bd 2C       		.uleb128 0x2c
 3948 01be 8E       		.byte	0x8e
 3949 01bf 01       		.uleb128 0x1
 3950 01c0 8B       		.byte	0x8b
 3951 01c1 02       		.uleb128 0x2
 3952 01c2 8A       		.byte	0x8a
 3953 01c3 03       		.uleb128 0x3
 3954 01c4 89       		.byte	0x89
 3955 01c5 04       		.uleb128 0x4
 3956 01c6 88       		.byte	0x88
 3957 01c7 05       		.uleb128 0x5
 3958 01c8 87       		.byte	0x87
 3959 01c9 06       		.uleb128 0x6
 3960 01ca 86       		.byte	0x86
 3961 01cb 07       		.uleb128 0x7
 3962 01cc 85       		.byte	0x85
 3963 01cd 08       		.uleb128 0x8
 3964 01ce 84       		.byte	0x84
 3965 01cf 09       		.uleb128 0x9
 3966              		.align	2
 3967              	.LEFDE30:
 3968              	.LSFDE32:
 3969 01d0 18000000 		.4byte	.LEFDE32-.LASFDE32
 3970              	.LASFDE32:
 3971 01d4 00000000 		.4byte	.Lframe0
 3972 01d8 7C150000 		.4byte	.LFB22
 3973 01dc A0000000 		.4byte	.LFE22-.LFB22
 3974 01e0 44       		.byte	0x4
 3975              		.4byte	.LCFI17-.LFB22
 3976 01e1 0E       		.byte	0xe
 3977 01e2 10       		.uleb128 0x10
 3978 01e3 8E       		.byte	0x8e
 3979 01e4 01       		.uleb128 0x1
 3980 01e5 86       		.byte	0x86
 3981 01e6 02       		.uleb128 0x2
 3982 01e7 85       		.byte	0x85
 3983 01e8 03       		.uleb128 0x3
 3984 01e9 84       		.byte	0x84
 3985 01ea 04       		.uleb128 0x4
 3986 01eb 00       		.align	2
 3987              	.LEFDE32:
 3988              	.LSFDE34:
 3989 01ec 20000000 		.4byte	.LEFDE34-.LASFDE34
 3990              	.LASFDE34:
 3991 01f0 00000000 		.4byte	.Lframe0
 3992 01f4 1C160000 		.4byte	.LFB17
 3993 01f8 F8000000 		.4byte	.LFE17-.LFB17
 3994 01fc 44       		.byte	0x4
 3995              		.4byte	.LCFI18-.LFB17
 3996 01fd 0E       		.byte	0xe
 3997 01fe 18       		.uleb128 0x18
 3998 01ff 44       		.byte	0x4
ARM GAS  C:\DOCUME~1\TECHCO~1\LOCALS~1\Temp/ccQdbaaa.s 			page 91


 3999              		.4byte	.LCFI19-.LCFI18
 4000 0200 0E       		.byte	0xe
 4001 0201 1C       		.uleb128 0x1c
 4002 0202 8E       		.byte	0x8e
 4003 0203 01       		.uleb128 0x1
 4004 0204 88       		.byte	0x88
 4005 0205 02       		.uleb128 0x2
 4006 0206 87       		.byte	0x87
 4007 0207 03       		.uleb128 0x3
 4008 0208 86       		.byte	0x86
 4009 0209 04       		.uleb128 0x4
 4010 020a 85       		.byte	0x85
 4011 020b 05       		.uleb128 0x5
 4012 020c 84       		.byte	0x84
 4013 020d 06       		.uleb128 0x6
 4014 020e 0000     		.align	2
 4015              	.LEFDE34:
 4016              	.LSFDE36:
 4017 0210 18000000 		.4byte	.LEFDE36-.LASFDE36
 4018              	.LASFDE36:
 4019 0214 00000000 		.4byte	.Lframe0
 4020 0218 14170000 		.4byte	.LFB15
 4021 021c B4000000 		.4byte	.LFE15-.LFB15
 4022 0220 44       		.byte	0x4
 4023              		.4byte	.LCFI20-.LFB15
 4024 0221 0E       		.byte	0xe
 4025 0222 0C       		.uleb128 0xc
 4026 0223 8E       		.byte	0x8e
 4027 0224 01       		.uleb128 0x1
 4028 0225 85       		.byte	0x85
 4029 0226 02       		.uleb128 0x2
 4030 0227 84       		.byte	0x84
 4031 0228 03       		.uleb128 0x3
 4032 0229 000000   		.align	2
 4033              	.LEFDE36:
 4034              	.LSFDE38:
 4035 022c 1C000000 		.4byte	.LEFDE38-.LASFDE38
 4036              	.LASFDE38:
 4037 0230 00000000 		.4byte	.Lframe0
 4038 0234 C8170000 		.4byte	.LFB14
 4039 0238 34010000 		.4byte	.LFE14-.LFB14
 4040 023c 44       		.byte	0x4
 4041              		.4byte	.LCFI21-.LFB14
 4042 023d 0E       		.byte	0xe
 4043 023e 14       		.uleb128 0x14
 4044 023f 44       		.byte	0x4
 4045              		.4byte	.LCFI22-.LCFI21
 4046 0240 0E       		.byte	0xe
 4047 0241 1C       		.uleb128 0x1c
 4048 0242 8E       		.byte	0x8e
 4049 0243 01       		.uleb128 0x1
 4050 0244 87       		.byte	0x87
 4051 0245 02       		.uleb128 0x2
 4052 0246 86       		.byte	0x86
 4053 0247 03       		.uleb128 0x3
 4054 0248 85       		.byte	0x85
 4055 0249 04       		.uleb128 0x4
ARM GAS  C:\DOCUME~1\TECHCO~1\LOCALS~1\Temp/ccQdbaaa.s 			page 92


 4056 024a 84       		.byte	0x84
 4057 024b 05       		.uleb128 0x5
 4058              		.align	2
 4059              	.LEFDE38:
 4060              	.LSFDE40:
 4061 024c 24000000 		.4byte	.LEFDE40-.LASFDE40
 4062              	.LASFDE40:
 4063 0250 00000000 		.4byte	.Lframe0
 4064 0254 FC180000 		.4byte	.LFB13
 4065 0258 64000000 		.4byte	.LFE13-.LFB13
 4066 025c 44       		.byte	0x4
 4067              		.4byte	.LCFI23-.LFB13
 4068 025d 0E       		.byte	0xe
 4069 025e 20       		.uleb128 0x20
 4070 025f 44       		.byte	0x4
 4071              		.4byte	.LCFI24-.LCFI23
 4072 0260 0E       		.byte	0xe
 4073 0261 24       		.uleb128 0x24
 4074 0262 8E       		.byte	0x8e
 4075 0263 01       		.uleb128 0x1
 4076 0264 8A       		.byte	0x8a
 4077 0265 02       		.uleb128 0x2
 4078 0266 89       		.byte	0x89
 4079 0267 03       		.uleb128 0x3
 4080 0268 88       		.byte	0x88
 4081 0269 04       		.uleb128 0x4
 4082 026a 87       		.byte	0x87
 4083 026b 05       		.uleb128 0x5
 4084 026c 86       		.byte	0x86
 4085 026d 06       		.uleb128 0x6
 4086 026e 85       		.byte	0x85
 4087 026f 07       		.uleb128 0x7
 4088 0270 84       		.byte	0x84
 4089 0271 08       		.uleb128 0x8
 4090 0272 0000     		.align	2
 4091              	.LEFDE40:
 4092              	.LSFDE42:
 4093 0274 20000000 		.4byte	.LEFDE42-.LASFDE42
 4094              	.LASFDE42:
 4095 0278 00000000 		.4byte	.Lframe0
 4096 027c 60190000 		.4byte	.LFB12
 4097 0280 E4000000 		.4byte	.LFE12-.LFB12
 4098 0284 44       		.byte	0x4
 4099              		.4byte	.LCFI25-.LFB12
 4100 0285 0E       		.byte	0xe
 4101 0286 18       		.uleb128 0x18
 4102 0287 44       		.byte	0x4
 4103              		.4byte	.LCFI26-.LCFI25
 4104 0288 0E       		.byte	0xe
 4105 0289 1C       		.uleb128 0x1c
 4106 028a 8E       		.byte	0x8e
 4107 028b 01       		.uleb128 0x1
 4108 028c 88       		.byte	0x88
 4109 028d 02       		.uleb128 0x2
 4110 028e 87       		.byte	0x87
 4111 028f 03       		.uleb128 0x3
 4112 0290 86       		.byte	0x86
ARM GAS  C:\DOCUME~1\TECHCO~1\LOCALS~1\Temp/ccQdbaaa.s 			page 93


 4113 0291 04       		.uleb128 0x4
 4114 0292 85       		.byte	0x85
 4115 0293 05       		.uleb128 0x5
 4116 0294 84       		.byte	0x84
 4117 0295 06       		.uleb128 0x6
 4118 0296 0000     		.align	2
 4119              	.LEFDE42:
 4120              	.LSFDE44:
 4121 0298 1C000000 		.4byte	.LEFDE44-.LASFDE44
 4122              	.LASFDE44:
 4123 029c 00000000 		.4byte	.Lframe0
 4124 02a0 441A0000 		.4byte	.LFB11
 4125 02a4 4C000000 		.4byte	.LFE11-.LFB11
 4126 02a8 44       		.byte	0x4
 4127              		.4byte	.LCFI27-.LFB11
 4128 02a9 0E       		.byte	0xe
 4129 02aa 18       		.uleb128 0x18
 4130 02ab 8E       		.byte	0x8e
 4131 02ac 01       		.uleb128 0x1
 4132 02ad 88       		.byte	0x88
 4133 02ae 02       		.uleb128 0x2
 4134 02af 87       		.byte	0x87
 4135 02b0 03       		.uleb128 0x3
 4136 02b1 86       		.byte	0x86
 4137 02b2 04       		.uleb128 0x4
 4138 02b3 85       		.byte	0x85
 4139 02b4 05       		.uleb128 0x5
 4140 02b5 84       		.byte	0x84
 4141 02b6 06       		.uleb128 0x6
 4142 02b7 00       		.align	2
 4143              	.LEFDE44:
 4144              	.LSFDE46:
 4145 02b8 18000000 		.4byte	.LEFDE46-.LASFDE46
 4146              	.LASFDE46:
 4147 02bc 00000000 		.4byte	.Lframe0
 4148 02c0 901A0000 		.4byte	.LFB16
 4149 02c4 70000000 		.4byte	.LFE16-.LFB16
 4150 02c8 44       		.byte	0x4
 4151              		.4byte	.LCFI28-.LFB16
 4152 02c9 0E       		.byte	0xe
 4153 02ca 0C       		.uleb128 0xc
 4154 02cb 44       		.byte	0x4
 4155              		.4byte	.LCFI29-.LCFI28
 4156 02cc 0E       		.byte	0xe
 4157 02cd 14       		.uleb128 0x14
 4158 02ce 8E       		.byte	0x8e
 4159 02cf 01       		.uleb128 0x1
 4160 02d0 85       		.byte	0x85
 4161 02d1 02       		.uleb128 0x2
 4162 02d2 84       		.byte	0x84
 4163 02d3 03       		.uleb128 0x3
 4164              		.align	2
 4165              	.LEFDE46:
 4166              	.LSFDE48:
 4167 02d4 20000000 		.4byte	.LEFDE48-.LASFDE48
 4168              	.LASFDE48:
 4169 02d8 00000000 		.4byte	.Lframe0
ARM GAS  C:\DOCUME~1\TECHCO~1\LOCALS~1\Temp/ccQdbaaa.s 			page 94


 4170 02dc 001B0000 		.4byte	.LFB7
 4171 02e0 08010000 		.4byte	.LFE7-.LFB7
 4172 02e4 44       		.byte	0x4
 4173              		.4byte	.LCFI30-.LFB7
 4174 02e5 0E       		.byte	0xe
 4175 02e6 1C       		.uleb128 0x1c
 4176 02e7 44       		.byte	0x4
 4177              		.4byte	.LCFI31-.LCFI30
 4178 02e8 0E       		.byte	0xe
 4179 02e9 20       		.uleb128 0x20
 4180 02ea 8E       		.byte	0x8e
 4181 02eb 01       		.uleb128 0x1
 4182 02ec 8A       		.byte	0x8a
 4183 02ed 02       		.uleb128 0x2
 4184 02ee 88       		.byte	0x88
 4185 02ef 03       		.uleb128 0x3
 4186 02f0 87       		.byte	0x87
 4187 02f1 04       		.uleb128 0x4
 4188 02f2 86       		.byte	0x86
 4189 02f3 05       		.uleb128 0x5
 4190 02f4 85       		.byte	0x85
 4191 02f5 06       		.uleb128 0x6
 4192 02f6 84       		.byte	0x84
 4193 02f7 07       		.uleb128 0x7
 4194              		.align	2
 4195              	.LEFDE48:
 4196              	.LSFDE50:
 4197 02f8 20000000 		.4byte	.LEFDE50-.LASFDE50
 4198              	.LASFDE50:
 4199 02fc 00000000 		.4byte	.Lframe0
 4200 0300 081C0000 		.4byte	.LFB5
 4201 0304 54000000 		.4byte	.LFE5-.LFB5
 4202 0308 44       		.byte	0x4
 4203              		.4byte	.LCFI32-.LFB5
 4204 0309 0E       		.byte	0xe
 4205 030a 1C       		.uleb128 0x1c
 4206 030b 8E       		.byte	0x8e
 4207 030c 01       		.uleb128 0x1
 4208 030d 8A       		.byte	0x8a
 4209 030e 02       		.uleb128 0x2
 4210 030f 88       		.byte	0x88
 4211 0310 03       		.uleb128 0x3
 4212 0311 87       		.byte	0x87
 4213 0312 04       		.uleb128 0x4
 4214 0313 86       		.byte	0x86
 4215 0314 05       		.uleb128 0x5
 4216 0315 85       		.byte	0x85
 4217 0316 06       		.uleb128 0x6
 4218 0317 84       		.byte	0x84
 4219 0318 07       		.uleb128 0x7
 4220 0319 000000   		.align	2
 4221              	.LEFDE50:
 4222              	.LSFDE52:
 4223 031c 18000000 		.4byte	.LEFDE52-.LASFDE52
 4224              	.LASFDE52:
 4225 0320 00000000 		.4byte	.Lframe0
 4226 0324 5C1C0000 		.4byte	.LFB10
ARM GAS  C:\DOCUME~1\TECHCO~1\LOCALS~1\Temp/ccQdbaaa.s 			page 95


 4227 0328 B0000000 		.4byte	.LFE10-.LFB10
 4228 032c 44       		.byte	0x4
 4229              		.4byte	.LCFI33-.LFB10
 4230 032d 0E       		.byte	0xe
 4231 032e 0C       		.uleb128 0xc
 4232 032f 44       		.byte	0x4
 4233              		.4byte	.LCFI34-.LCFI33
 4234 0330 0E       		.byte	0xe
 4235 0331 14       		.uleb128 0x14
 4236 0332 8E       		.byte	0x8e
 4237 0333 01       		.uleb128 0x1
 4238 0334 85       		.byte	0x85
 4239 0335 02       		.uleb128 0x2
 4240 0336 84       		.byte	0x84
 4241 0337 03       		.uleb128 0x3
 4242              		.align	2
 4243              	.LEFDE52:
 4244              	.LSFDE54:
 4245 0338 18000000 		.4byte	.LEFDE54-.LASFDE54
 4246              	.LASFDE54:
 4247 033c 00000000 		.4byte	.Lframe0
 4248 0340 0C1D0000 		.4byte	.LFB9
 4249 0344 3C000000 		.4byte	.LFE9-.LFB9
 4250 0348 44       		.byte	0x4
 4251              		.4byte	.LCFI35-.LFB9
 4252 0349 0E       		.byte	0xe
 4253 034a 10       		.uleb128 0x10
 4254 034b 8E       		.byte	0x8e
 4255 034c 01       		.uleb128 0x1
 4256 034d 86       		.byte	0x86
 4257 034e 02       		.uleb128 0x2
 4258 034f 85       		.byte	0x85
 4259 0350 03       		.uleb128 0x3
 4260 0351 84       		.byte	0x84
 4261 0352 04       		.uleb128 0x4
 4262 0353 00       		.align	2
 4263              	.LEFDE54:
 4264              	.LSFDE56:
 4265 0354 1C000000 		.4byte	.LEFDE56-.LASFDE56
 4266              	.LASFDE56:
 4267 0358 00000000 		.4byte	.Lframe0
 4268 035c 481D0000 		.4byte	.LFB4
 4269 0360 FC000000 		.4byte	.LFE4-.LFB4
 4270 0364 44       		.byte	0x4
 4271              		.4byte	.LCFI36-.LFB4
 4272 0365 0E       		.byte	0xe
 4273 0366 14       		.uleb128 0x14
 4274 0367 44       		.byte	0x4
 4275              		.4byte	.LCFI37-.LCFI36
 4276 0368 0E       		.byte	0xe
 4277 0369 18       		.uleb128 0x18
 4278 036a 8E       		.byte	0x8e
 4279 036b 01       		.uleb128 0x1
 4280 036c 87       		.byte	0x87
 4281 036d 02       		.uleb128 0x2
 4282 036e 86       		.byte	0x86
 4283 036f 03       		.uleb128 0x3
ARM GAS  C:\DOCUME~1\TECHCO~1\LOCALS~1\Temp/ccQdbaaa.s 			page 96


 4284 0370 85       		.byte	0x85
 4285 0371 04       		.uleb128 0x4
 4286 0372 84       		.byte	0x84
 4287 0373 05       		.uleb128 0x5
 4288              		.align	2
 4289              	.LEFDE56:
 4290              	.LSFDE58:
 4291 0374 1C000000 		.4byte	.LEFDE58-.LASFDE58
 4292              	.LASFDE58:
 4293 0378 00000000 		.4byte	.Lframe0
 4294 037c 441E0000 		.4byte	.LFB3
 4295 0380 44000000 		.4byte	.LFE3-.LFB3
 4296 0384 44       		.byte	0x4
 4297              		.4byte	.LCFI38-.LFB3
 4298 0385 0E       		.byte	0xe
 4299 0386 14       		.uleb128 0x14
 4300 0387 8E       		.byte	0x8e
 4301 0388 01       		.uleb128 0x1
 4302 0389 87       		.byte	0x87
 4303 038a 02       		.uleb128 0x2
 4304 038b 86       		.byte	0x86
 4305 038c 03       		.uleb128 0x3
 4306 038d 85       		.byte	0x85
 4307 038e 04       		.uleb128 0x4
 4308 038f 84       		.byte	0x84
 4309 0390 05       		.uleb128 0x5
 4310 0391 000000   		.align	2
 4311              	.LEFDE58:
 4312              	.LSFDE60:
 4313 0394 24000000 		.4byte	.LEFDE60-.LASFDE60
 4314              	.LASFDE60:
 4315 0398 00000000 		.4byte	.Lframe0
 4316 039c 881E0000 		.4byte	.LFB2
 4317 03a0 68040000 		.4byte	.LFE2-.LFB2
 4318 03a4 44       		.byte	0x4
 4319              		.4byte	.LCFI39-.LFB2
 4320 03a5 0E       		.byte	0xe
 4321 03a6 24       		.uleb128 0x24
 4322 03a7 44       		.byte	0x4
 4323              		.4byte	.LCFI40-.LCFI39
 4324 03a8 0E       		.byte	0xe
 4325 03a9 48       		.uleb128 0x48
 4326 03aa 8E       		.byte	0x8e
 4327 03ab 01       		.uleb128 0x1
 4328 03ac 8B       		.byte	0x8b
 4329 03ad 02       		.uleb128 0x2
 4330 03ae 8A       		.byte	0x8a
 4331 03af 03       		.uleb128 0x3
 4332 03b0 89       		.byte	0x89
 4333 03b1 04       		.uleb128 0x4
 4334 03b2 88       		.byte	0x88
 4335 03b3 05       		.uleb128 0x5
 4336 03b4 87       		.byte	0x87
 4337 03b5 06       		.uleb128 0x6
 4338 03b6 86       		.byte	0x86
 4339 03b7 07       		.uleb128 0x7
 4340 03b8 85       		.byte	0x85
ARM GAS  C:\DOCUME~1\TECHCO~1\LOCALS~1\Temp/ccQdbaaa.s 			page 97


 4341 03b9 08       		.uleb128 0x8
 4342 03ba 84       		.byte	0x84
 4343 03bb 09       		.uleb128 0x9
 4344              		.align	2
 4345              	.LEFDE60:
 4346              		.file 2 "C:\\WinARM\\armlib/armlibtypes.h"
 4347              		.file 3 "morphology.h"
 4348              		.file 4 "runtime.h"
 4349              		.file 5 "queue.h"
 4350              		.file 6 "./inc/efs.h"
 4351              		.file 7 "./inc/interfaces/lpc2000_spi.h"
 4352              		.file 8 "./inc/types.h"
 4353              		.file 9 "./inc/ioman.h"
 4354              		.file 10 "./inc/disc.h"
 4355              		.file 11 "./inc/partition.h"
 4356              		.file 12 "./inc/fs.h"
 4357              		.file 13 "./inc/file.h"
 4358              		.file 14 "./inc/ls.h"
 4359              		.file 15 "molecubePacket.h"
 4360              		.file 16 "C:\\WinARM\\armlib/buffer.h"
 4361              		.text
 4362              	.Letext0: