ARM GAS  C:\DOCUME~1\TECHCO~1\LOCALS~1\Temp/ccQdbaaa.s 			page 1


   1              		.file	"morphology.c"
   2              		.section	.debug_abbrev,"",%progbits
   3              	.Ldebug_abbrev0:
   4              		.section	.debug_info,"",%progbits
   5              	.Ldebug_info0:
   6              		.section	.debug_line,"",%progbits
   7              	.Ldebug_line0:
   8 0000 AA030000 		.text
   8      02000401 
   8      00000201 
   8      FB0E0A00 
   8      01010101 
   9              	.Ltext0:
  10              		.align	2
  11              		.global	bitCount
  12              		.type	bitCount, %function
  13              	bitCount:
  14              	.LFB6:
  15              		.file 1 "morphology.c"
   1:morphology.c  **** #include <stdlib.h>
   2:morphology.c  **** #include <stdarg.h>
   3:morphology.c  **** #include "runtime.h"
   4:morphology.c  **** #include "morphology.h"
   5:morphology.c  **** #include "telemetryChannels.h"
   6:morphology.c  **** #include "molecubePacket.h"
   7:morphology.c  **** #include "uartintr.h"
   8:morphology.c  **** #include "rprintf.h"
   9:morphology.c  **** #include "commands.h"
  10:morphology.c  **** 
  11:morphology.c  **** /// TODO: open response handler which does not compare expected addr and class type, only checks ch
  12:morphology.c  **** 
  13:morphology.c  **** /// TODO: update uartintr copy on wiki, the local version has been modified with uartgetbuffer meth
  14:morphology.c  **** int buildMorphology(MMORPH *morphology)
  15:morphology.c  **** {
  16:morphology.c  **** 	u08 targetID;
  17:morphology.c  **** 	u08 targetClass;
  18:morphology.c  **** 	u08 ac; // address counter
  19:morphology.c  **** 	u08 sc; // side counter
  20:morphology.c  **** 	u08 returnval;
  21:morphology.c  **** 	// send command to avr controller master, verify response of device 0x00:0xFC
  22:morphology.c  **** 
  23:morphology.c  **** 	// initialize target & ac
  24:morphology.c  **** 	targetID = 0x00; // hardcoded controller
  25:morphology.c  **** 	targetClass = 0xFC; // controller master class
  26:morphology.c  **** 	ac = targetID + 1;
  27:morphology.c  **** 
  28:morphology.c  **** 	morphology->cubecount = 0;
  29:morphology.c  **** 	morphology->cubes = NULL;
  30:morphology.c  **** 	morphology->statecount = 0;
  31:morphology.c  **** 	morphology->states = NULL;
  32:morphology.c  **** 
  33:morphology.c  **** 	// initialize controller cube entry
  34:morphology.c  **** 	if(insertNewCubeEntry(morphology, targetID, targetClass))
  35:morphology.c  **** 		return ORIENTATION_ERROR_CANNOT_CREATE_CUBE;
  36:morphology.c  **** 
  37:morphology.c  **** 	while(targetID < ac)
  38:morphology.c  **** 	{
ARM GAS  C:\DOCUME~1\TECHCO~1\LOCALS~1\Temp/ccQdbaaa.s 			page 2


  39:morphology.c  **** 		// update targetClass from developed morphology entry
  40:morphology.c  **** 		MCUBE *next = getCube(morphology, targetID);
  41:morphology.c  **** 		if(next == NULL)
  42:morphology.c  **** 			return ORIENTATION_NO_DEVICE_FOUND;
  43:morphology.c  **** 		targetClass = next->cubeclass;
  44:morphology.c  **** 
  45:morphology.c  **** 		for(sc = 0; sc < 6; sc++)
  46:morphology.c  **** 		{
  47:morphology.c  **** 			
  48:morphology.c  **** 			rprintf("ID ");
  49:morphology.c  **** 			rprintfu08(targetID);
  50:morphology.c  **** 			rprintfCRLF();
  51:morphology.c  **** 			rprintf("Class ");
  52:morphology.c  **** 			rprintfu08(targetClass);
  53:morphology.c  **** 			rprintfCRLF();
  54:morphology.c  **** 			rprintf("Side ");
  55:morphology.c  **** 			rprintfu08(sc);
  56:morphology.c  **** 			rprintfCRLF();
  57:morphology.c  **** 			
  58:morphology.c  **** 			// is cube already defined?
  59:morphology.c  **** 			// this must always be true, otherwise we have a major problem
  60:morphology.c  **** 			// need this value to narrow search for dupe link
  61:morphology.c  **** 			MCUBE *cube = NULL;
  62:morphology.c  **** 			if((cube = getCube(morphology, targetID)) == NULL)
  63:morphology.c  **** 				return ORIENTATION_NO_DEVICE_FOUND;
  64:morphology.c  **** 
  65:morphology.c  **** 			// is link already defined?
  66:morphology.c  **** 			// this is needed to prevent duplicated discovery of link
  67:morphology.c  **** 			CUBELINKS *link;
  68:morphology.c  **** 			link = getCubeLink(cube, sc);
  69:morphology.c  **** 			if(link != NULL)
  70:morphology.c  **** 			{
  71:morphology.c  **** 				// link already exists skip this side
  72:morphology.c  **** 				continue;
  73:morphology.c  **** 			}
  74:morphology.c  **** 			// link does not exist we can continue
  75:morphology.c  **** 			
  76:morphology.c  **** 			rprintf("test1\n\r");
  77:morphology.c  **** 			// set orientation pin on target sc
  78:morphology.c  **** 			returnval = setOrientationPin_AR(ORIENTATION_CMD_RETRY_COUNT, targetID, targetClass, sc, SIDEPIN
  79:morphology.c  **** 			if(returnval == ORIENTATION_SIDE_NOT_PRESENT)
  80:morphology.c  **** 			{ // side is not valid or present
  81:morphology.c  **** 				printExternalCommand();
  82:morphology.c  **** 				printOrientationErrorCode(returnval);
  83:morphology.c  **** 				continue; // skip this side
  84:morphology.c  **** 			} else if(returnval) {
  85:morphology.c  **** 				printOrientationErrorCode(returnval);
  86:morphology.c  **** 				printExternalCommand();
  87:morphology.c  **** 				return ORIENTATION_ERROR_CANNOT_SET_PIN;
  88:morphology.c  **** 			}
  89:morphology.c  **** 			
  90:morphology.c  **** 			rprintf("test2\n\r");
  91:morphology.c  **** 
  92:morphology.c  **** 			// broadcast query orientation pin details
  93:morphology.c  **** 			u08 side, pin;
  94:morphology.c  **** 			returnval = broadcastGetOrientationPins_AR(ORIENTATION_CMD_RETRY_COUNT, &side, &pin);
  95:morphology.c  **** 			
ARM GAS  C:\DOCUME~1\TECHCO~1\LOCALS~1\Temp/ccQdbaaa.s 			page 3


  96:morphology.c  **** 			if(returnval == ORIENTATION_NOERROR) // no timeout, update Link Entry
  97:morphology.c  **** 			{
  98:morphology.c  **** 				/*
  99:morphology.c  **** 				// This data refers to self
 100:morphology.c  **** 				targetID
 101:morphology.c  **** 				targetClass
 102:morphology.c  **** 				sc
 103:morphology.c  **** 				SIDEPIN0
 104:morphology.c  **** 
 105:morphology.c  **** 				// This data refers to neighbor cube
 106:morphology.c  **** 				ext_busRxPkt.id
 107:morphology.c  **** 				ext_busRxPkt.devclass
 108:morphology.c  **** 				side
 109:morphology.c  **** 				pin
 110:morphology.c  **** 				
 111:morphology.c  **** 				both self and target links need to be created,
 112:morphology.c  **** 				because target responds, we know it has been assigned an address and
 113:morphology.c  **** 				therefore a morphology entry exists for this device
 114:morphology.c  **** 
 115:morphology.c  **** 				*/
 116:morphology.c  **** 				printOrientationErrorCode(returnval);
 117:morphology.c  **** 				printExternalCommand();
 118:morphology.c  **** 				if(insertNewLinkEntry(morphology, 
 119:morphology.c  **** 						targetID, targetClass, sc, SIDEPIN0,
 120:morphology.c  **** 						ext_busRxPkt.id, ext_busRxPkt.devclass, side, pin))
 121:morphology.c  **** 					return ORIENTATION_ERROR_PARAMETERS;
 122:morphology.c  **** 				continue; // increment sc and continue
 123:morphology.c  **** 
 124:morphology.c  **** 			} else if (returnval != ORIENTATION_ERROR_TIMEOUT)
 125:morphology.c  **** 			{
 126:morphology.c  **** 				printOrientationErrorCode(returnval);
 127:morphology.c  **** 				printExternalCommand();
 128:morphology.c  **** 				return ORIENTATION_ERROR_ON_TARGET_CUBE;
 129:morphology.c  **** 			}
 130:morphology.c  **** 			// timeout has occurred, no known cube at this location
 131:morphology.c  **** 			rprintf("test2.5\n\r");
 132:morphology.c  **** 			// broadcast set address with orientation pin to determine if new cube is present
 133:morphology.c  **** 			returnval = broadcastSetAddressWithOrientationPin_AR(ORIENTATION_CMD_RETRY_COUNT, ac);
 134:morphology.c  **** 
 135:morphology.c  **** 			if(returnval == ORIENTATION_ERROR_TIMEOUT) // no cube is present here
 136:morphology.c  **** 			{
 137:morphology.c  **** 				// unset orientation pin and continue
 138:morphology.c  **** 				rprintf("test3\n\r");
 139:morphology.c  **** 				
 140:morphology.c  **** 				returnval = setOrientationPin_AR(ORIENTATION_CMD_RETRY_COUNT, targetID, targetClass, sc, SIDEPI
 141:morphology.c  **** 				if(returnval)
 142:morphology.c  **** 				{
 143:morphology.c  **** 					return ORIENTATION_ERROR_CANNOT_SET_PIN;
 144:morphology.c  **** 				}
 145:morphology.c  **** 				rprintf("test4\n\r");
 146:morphology.c  **** 				continue;
 147:morphology.c  **** 			} else if (returnval != ORIENTATION_NOERROR)
 148:morphology.c  **** 			{
 149:morphology.c  **** 				printOrientationErrorCode(returnval);
 150:morphology.c  **** 				printExternalCommand();
 151:morphology.c  **** 				return ORIENTATION_ERROR_ON_TARGET_CUBE;
 152:morphology.c  **** 			} 
ARM GAS  C:\DOCUME~1\TECHCO~1\LOCALS~1\Temp/ccQdbaaa.s 			page 4


 153:morphology.c  **** 			rprintf("test5\n\r");
 154:morphology.c  **** 			u08 newCubeID = ext_busRxPkt.id;
 155:morphology.c  **** 			u08 newCubeClass = ext_busRxPkt.devclass;
 156:morphology.c  **** 
 157:morphology.c  **** 			// new cube address properly set, new cube morphology entry needs to be created
 158:morphology.c  **** 			if(insertNewCubeEntry(morphology, newCubeID, newCubeClass))
 159:morphology.c  **** 				return ORIENTATION_ERROR_CANNOT_CREATE_CUBE;
 160:morphology.c  **** 			rprintf("test6\n\r");
 161:morphology.c  **** 			// query orientation pin details on new cube
 162:morphology.c  **** 			if((returnval = getOrientationPins_AR(ORIENTATION_CMD_RETRY_COUNT, newCubeID, newCubeClass, &sid
 163:morphology.c  **** 			{
 164:morphology.c  **** 				rprintf("ID: ");
 165:morphology.c  **** 				rprintfu08(newCubeID);
 166:morphology.c  **** 				rprintfCRLF();
 167:morphology.c  **** 				rprintf("Class: ");
 168:morphology.c  **** 				rprintfu08(newCubeClass);
 169:morphology.c  **** 				rprintfCRLF();
 170:morphology.c  **** 				printOrientationErrorCode(returnval);
 171:morphology.c  **** 				printExternalCommand();
 172:morphology.c  **** 				return ORIENTATION_ERROR_ON_TARGET_CUBE;
 173:morphology.c  **** 			}
 174:morphology.c  **** 			rprintf("test7\n\r");
 175:morphology.c  **** 			// update link entry
 176:morphology.c  **** 			if((returnval = insertNewLinkEntry(morphology, 
 177:morphology.c  **** 						targetID, targetClass, sc, SIDEPIN0,
 178:morphology.c  **** 						newCubeID, newCubeClass, side, pin)))
 179:morphology.c  **** 			{
 180:morphology.c  **** 				printOrientationErrorCode(returnval);
 181:morphology.c  **** 				printExternalCommand();
 182:morphology.c  **** 				return ORIENTATION_ERROR_PARAMETERS;
 183:morphology.c  **** 			}
 184:morphology.c  **** 			rprintf("test8\n\r");
 185:morphology.c  **** 			// use device class of new cube to determine how to set initial state
 186:morphology.c  **** 			returnval = setInitialState(morphology, newCubeID, newCubeClass);
 187:morphology.c  **** 			if(returnval != ORIENTATION_UNKNOWN_CLASS &&
 188:morphology.c  **** 				returnval != ORIENTATION_NOERROR)
 189:morphology.c  **** 			{
 190:morphology.c  **** 				printOrientationErrorCode(returnval);
 191:morphology.c  **** 				printExternalCommand();
 192:morphology.c  **** 				return ORIENTATION_ERROR_CANNOT_SET_STATE;
 193:morphology.c  **** 			}
 194:morphology.c  **** 			// increment ac
 195:morphology.c  **** 			ac++;
 196:morphology.c  **** 
 197:morphology.c  **** 			// unset orientation pin on target SC side
 198:morphology.c  **** 			rprintf("test9\n\r");
 199:morphology.c  **** 			if(setOrientationPin_AR(ORIENTATION_CMD_RETRY_COUNT, targetID, targetClass, sc, SIDEPIN0, ORIENT
 200:morphology.c  **** 				return ORIENTATION_ERROR_CANNOT_SET_PIN;
 201:morphology.c  **** 			rprintf("test10\n\r");
 202:morphology.c  **** 		}
 203:morphology.c  **** 		targetID++; // increment target
 204:morphology.c  **** 	}
 205:morphology.c  **** 
 206:morphology.c  **** 	// iterate through all cubes in mesh and activate internal control loop
 207:morphology.c  **** 	if(enableAngleTracking(morphology))
 208:morphology.c  **** 	{
 209:morphology.c  **** 		rprintf("Error: Cannot enable tracking mode\n");
ARM GAS  C:\DOCUME~1\TECHCO~1\LOCALS~1\Temp/ccQdbaaa.s 			page 5


 210:morphology.c  **** 		return ORIENTATION_ERROR_CANNOT_SET_STATE;
 211:morphology.c  **** 	}
 212:morphology.c  **** 
 213:morphology.c  **** 	return ORIENTATION_NOERROR; // morphology successfully established
 214:morphology.c  **** }
 215:morphology.c  **** 
 216:morphology.c  **** int broadcastGetOrientationPins_AR(u08 rcount, u08 *side, u08 *pin)
 217:morphology.c  **** {
 218:morphology.c  **** 	u08 i;
 219:morphology.c  **** 	int retval;
 220:morphology.c  **** 	for(i=0; i<rcount; i++)
 221:morphology.c  **** 	{
 222:morphology.c  **** 		retval = broadcastGetOrientationPins(side, pin);
 223:morphology.c  **** 		if(retval != ORIENTATION_ERROR_TIMEOUT)
 224:morphology.c  **** 			return retval;
 225:morphology.c  **** 	}
 226:morphology.c  **** 	return ORIENTATION_ERROR_TIMEOUT;
 227:morphology.c  **** }
 228:morphology.c  **** 
 229:morphology.c  **** int broadcastGetOrientationPins(u08 *side, u08 *pin)
 230:morphology.c  **** {
 231:morphology.c  **** 	cmd_BuildPacket(BROADCAST_CLASS, 0x00, 0x09, 0, NULL);
 232:morphology.c  **** 	cmd_Execute(EXTERNAL_SERIAL);
 233:morphology.c  **** 
 234:morphology.c  **** 	u32 a = 0;
 235:morphology.c  **** 	while ((packetRxProcess_NoAddrClassCheck(EXTERNAL_SERIAL, 
 236:morphology.c  **** 		uartGetRxBuffer(EXTERNAL_SERIAL)) == FALSE) && 
 237:morphology.c  **** 		(a < CMD_RESPONSE_TIMEOUT))
 238:morphology.c  **** 	{	a++; }
 239:morphology.c  **** 	if (a < CMD_RESPONSE_TIMEOUT) // timeout has not occurred
 240:morphology.c  **** 	{
 241:morphology.c  **** 		if((ext_busRxPkt.paramCnt == 3) && 
 242:morphology.c  **** 			(ext_busRxPkt.cmd == 0x09))
 243:morphology.c  **** 		{
 244:morphology.c  **** 			u08 sum = bitCount(ext_busRxPkt.paramCnt, ext_busRxPkt.params);
 245:morphology.c  **** 
 246:morphology.c  **** 			if(sum > 1)
 247:morphology.c  **** 				return ORIENTATION_ERROR_INVALID_PIN_COMBO;
 248:morphology.c  **** 			else if(sum == 0)
 249:morphology.c  **** 				return ORIENTATION_NO_DEVICE_FOUND; // device should not respond in the first place here
 250:morphology.c  **** 
 251:morphology.c  **** 			if(processGetOrientationPins(ext_busRxPkt.params, side, pin))
 252:morphology.c  **** 				return ORIENTATION_ERROR_INVALID_PIN_COMBO;
 253:morphology.c  **** 
 254:morphology.c  **** 			return ORIENTATION_NOERROR; // device found
 255:morphology.c  **** 		}
 256:morphology.c  **** 		else
 257:morphology.c  **** 		{
 258:morphology.c  **** 			printExternalCommand();
 259:morphology.c  **** 			return ORIENTATION_ERROR_ON_TARGET_CUBE; // error has occurred on target cube
 260:morphology.c  **** 		}
 261:morphology.c  **** 	} else { // timeout has occurred
 262:morphology.c  **** 		return ORIENTATION_ERROR_TIMEOUT;
 263:morphology.c  **** 	}
 264:morphology.c  **** }
 265:morphology.c  **** 
 266:morphology.c  **** int getOrientationPins_AR(u08 rcount, u08 targetID, u08 targetClass, u08 *side, u08 *pin)
ARM GAS  C:\DOCUME~1\TECHCO~1\LOCALS~1\Temp/ccQdbaaa.s 			page 6


 267:morphology.c  **** {
 268:morphology.c  **** 	u08 i;
 269:morphology.c  **** 	int retval;
 270:morphology.c  **** 	for(i=0; i<rcount; i++)
 271:morphology.c  **** 	{
 272:morphology.c  **** 		retval = getOrientationPins(targetID, targetClass, side, pin);
 273:morphology.c  **** 		if(retval != ORIENTATION_ERROR_TIMEOUT)
 274:morphology.c  **** 			return retval;
 275:morphology.c  **** 	}
 276:morphology.c  **** 	return ORIENTATION_ERROR_TIMEOUT;
 277:morphology.c  **** }
 278:morphology.c  **** 
 279:morphology.c  **** int bitCount(u08 param_count, u08 *params)
 280:morphology.c  **** {
  16              		.loc 1 280 0
  17              		@ args = 0, pretend = 0, frame = 0
  18              		@ frame_needed = 0, uses_anonymous_args = 0
  19              	.LVL0:
  20 0000 10402DE9 		stmfd	sp!, {r4, lr}
  21              	.LCFI0:
  22 0004 0140A0E1 		mov	r4, r1
 281:morphology.c  **** 	int sum = 0;
 282:morphology.c  **** 	u08 i,j;
 283:morphology.c  **** 	for(i=0; i<param_count; i++)
  23              		.loc 1 283 0
  24 0008 FF1010E2 		ands	r1, r0, #255
  25              	.LVL1:
  26 000c 0100A001 		moveq	r0, r1
  27              	.LVL2:
  28 0010 1080BD08 		ldmeqfd	sp!, {r4, pc}
  29 0014 0F0000EA 		b	.L2
  30              	.LVL3:
  31              	.L5:
 284:morphology.c  **** 	{
 285:morphology.c  **** 		for(j=0; j<8; j++)
 286:morphology.c  **** 		{
 287:morphology.c  **** 			sum += ((params[i] >> j) & 0x01);
  32              		.loc 1 287 0
  33 0018 5C32A0E1 		mov	r3, ip, asr r2
  34 001c 013003E2 		and	r3, r3, #1
  35 0020 030080E0 		add	r0, r0, r3
  36 0024 012082E2 		add	r2, r2, #1
  37              		.loc 1 285 0
  38 0028 080052E3 		cmp	r2, #8
  39 002c 0400001A 		bne	.L5
  40              		.loc 1 283 0
  41 0030 01308EE2 		add	r3, lr, #1
  42 0034 FFE003E2 		and	lr, r3, #255
  43 0038 0E0051E1 		cmp	r1, lr
  44 003c 1080BD08 		ldmeqfd	sp!, {r4, pc}
  45 0040 110000EA 		b	.L7
  46              	.LVL4:
  47              	.L2:
  48 0044 0000A0E3 		mov	r0, #0
  49 0048 00E0A0E1 		mov	lr, r0
  50              	.LVL5:
  51              	.L7:
ARM GAS  C:\DOCUME~1\TECHCO~1\LOCALS~1\Temp/ccQdbaaa.s 			page 7


  52              		.loc 1 287 0
  53 004c 04C0DEE7 		ldrb	ip, [lr, r4]	@ zero_extendqisi2
  54 0050 0020A0E3 		mov	r2, #0
  55 0054 040000EA 		b	.L5
  56              	.LFE6:
  57              		.size	bitCount, .-bitCount
  58              		.align	2
  59              		.global	processGetOrientationPins
  60              		.type	processGetOrientationPins, %function
  61              	processGetOrientationPins:
  62              	.LFB8:
 288:morphology.c  **** 		}
 289:morphology.c  **** 	}
 290:morphology.c  **** 	return sum;
 291:morphology.c  **** }
 292:morphology.c  **** 
 293:morphology.c  **** int getOrientationPins(u08 targetID, u08 targetClass, u08 *side, u08 *pin)
 294:morphology.c  **** {
 295:morphology.c  **** 	cmd_BuildPacket(targetClass, targetID, 0x09, 0, NULL);
 296:morphology.c  **** 	cmd_Execute(EXTERNAL_SERIAL);
 297:morphology.c  **** 
 298:morphology.c  **** 	u32 a = 0;
 299:morphology.c  **** 	while ((packetRxProcess(EXTERNAL_SERIAL, 
 300:morphology.c  **** 		targetClass, 
 301:morphology.c  **** 		targetID, 
 302:morphology.c  **** 		uartGetRxBuffer(EXTERNAL_SERIAL)) == FALSE) && 
 303:morphology.c  **** 		(a < CMD_RESPONSE_TIMEOUT))
 304:morphology.c  **** 	{	a++; }
 305:morphology.c  **** 	if (a < CMD_RESPONSE_TIMEOUT) // timeout has not occurred
 306:morphology.c  **** 	{
 307:morphology.c  **** 		if((ext_busRxPkt.paramCnt == 3) && 
 308:morphology.c  **** 			(ext_busRxPkt.cmd == 0x09))
 309:morphology.c  **** 		{
 310:morphology.c  **** 			u08 sum = bitCount(ext_busRxPkt.paramCnt, ext_busRxPkt.params);
 311:morphology.c  **** 
 312:morphology.c  **** 			if(sum > 1)
 313:morphology.c  **** 				return ORIENTATION_ERROR_INVALID_PIN_COMBO;
 314:morphology.c  **** 			else if(sum == 0)
 315:morphology.c  **** 				return ORIENTATION_NO_DEVICE_FOUND;
 316:morphology.c  **** 
 317:morphology.c  **** 			if(processGetOrientationPins(ext_busRxPkt.params, side, pin))
 318:morphology.c  **** 				return ORIENTATION_ERROR_INVALID_PIN_COMBO;
 319:morphology.c  **** 
 320:morphology.c  **** 			return ORIENTATION_NOERROR; // device found
 321:morphology.c  **** 		}
 322:morphology.c  **** 		else
 323:morphology.c  **** 			return ORIENTATION_ERROR_ON_TARGET_CUBE; // error has occurred on target cube
 324:morphology.c  **** 	} else // timeout has occurred
 325:morphology.c  **** 		return ORIENTATION_ERROR_TIMEOUT;
 326:morphology.c  **** }
 327:morphology.c  **** 
 328:morphology.c  **** int processGetOrientationPins(u08 *params, u08 *side, u08 *pin)
 329:morphology.c  **** {
  63              		.loc 1 329 0
  64              		@ args = 0, pretend = 0, frame = 0
  65              		@ frame_needed = 0, uses_anonymous_args = 0
  66              		@ link register save eliminated.
ARM GAS  C:\DOCUME~1\TECHCO~1\LOCALS~1\Temp/ccQdbaaa.s 			page 8


  67              	.LVL6:
  68              		@ lr needed for prologue
 330:morphology.c  **** 	u08 tmp_pins = 0x00;
 331:morphology.c  **** 
 332:morphology.c  **** 	if(params[0] & 0x0F) {
  69              		.loc 1 332 0
  70 0058 0030D0E5 		ldrb	r3, [r0, #0]	@ zero_extendqisi2
  71 005c 0F0013E3 		tst	r3, #15
  72 0060 1C00000A 		beq	.L13
 333:morphology.c  **** 		*side = 1; // Master Right
  73              		.loc 1 333 0
  74 0064 0130A0E3 		mov	r3, #1
  75 0068 0030C1E5 		strb	r3, [r1, #0]
 334:morphology.c  **** 		tmp_pins = (params[0] & 0x0F);
  76              		.loc 1 334 0
  77 006c 0030D0E5 		ldrb	r3, [r0, #0]	@ zero_extendqisi2
  78 0070 0F0003E2 		and	r0, r3, #15
  79              	.LVL7:
  80 0074 430000EA 		b	.L15
  81              	.LVL8:
  82              	.L13:
 335:morphology.c  **** 	} else if(params[0] & 0xF0) {
  83              		.loc 1 335 0
  84 0078 F00013E3 		tst	r3, #240
  85 007c 2300000A 		beq	.L16
 336:morphology.c  **** 		*side = 0; // Master Main
  86              		.loc 1 336 0
  87 0080 0030A0E3 		mov	r3, #0
  88 0084 0030C1E5 		strb	r3, [r1, #0]
 337:morphology.c  **** 		tmp_pins = (params[0] & 0xF0) >> 4;
  89              		.loc 1 337 0
  90 0088 0030D0E5 		ldrb	r3, [r0, #0]	@ zero_extendqisi2
  91 008c 2302A0E1 		mov	r0, r3, lsr #4
  92              	.LVL9:
  93 0090 430000EA 		b	.L15
  94              	.LVL10:
  95              	.L16:
 338:morphology.c  **** 	} else if(params[1] & 0x0F) {
  96              		.loc 1 338 0
  97 0094 01C080E2 		add	ip, r0, #1
  98 0098 0130D0E5 		ldrb	r3, [r0, #1]	@ zero_extendqisi2
  99 009c 0F0013E3 		tst	r3, #15
 100 00a0 2C00000A 		beq	.L18
 339:morphology.c  **** 		*side = 3; // Slave Main
 101              		.loc 1 339 0
 102 00a4 0330A0E3 		mov	r3, #3
 103 00a8 0030C1E5 		strb	r3, [r1, #0]
 340:morphology.c  **** 		tmp_pins = (params[1] & 0x0F);
 104              		.loc 1 340 0
 105 00ac 0130D0E5 		ldrb	r3, [r0, #1]	@ zero_extendqisi2
 106 00b0 0F0003E2 		and	r0, r3, #15
 107              	.LVL11:
 108 00b4 430000EA 		b	.L15
 109              	.LVL12:
 110              	.L18:
 341:morphology.c  **** 	} else if(params[1] & 0xF0) {
 111              		.loc 1 341 0
ARM GAS  C:\DOCUME~1\TECHCO~1\LOCALS~1\Temp/ccQdbaaa.s 			page 9


 112 00b8 F00013E3 		tst	r3, #240
 113 00bc 3300000A 		beq	.L20
 342:morphology.c  **** 		*side = 2; // Master Left
 114              		.loc 1 342 0
 115 00c0 0230A0E3 		mov	r3, #2
 116 00c4 0030C1E5 		strb	r3, [r1, #0]
 343:morphology.c  **** 		tmp_pins = (params[1] & 0xF0) >> 4;
 117              		.loc 1 343 0
 118 00c8 0030DCE5 		ldrb	r3, [ip, #0]	@ zero_extendqisi2
 119 00cc 2302A0E1 		mov	r0, r3, lsr #4
 120              	.LVL13:
 121 00d0 430000EA 		b	.L15
 122              	.LVL14:
 123              	.L20:
 344:morphology.c  **** 	} else if(params[2] & 0x0F) {
 124              		.loc 1 344 0
 125 00d4 02C080E2 		add	ip, r0, #2
 126 00d8 0230D0E5 		ldrb	r3, [r0, #2]	@ zero_extendqisi2
 127 00dc 0F0013E3 		tst	r3, #15
 128 00e0 3C00000A 		beq	.L22
 345:morphology.c  **** 		*side = 5; // Slave Left
 129              		.loc 1 345 0
 130 00e4 0530A0E3 		mov	r3, #5
 131 00e8 0030C1E5 		strb	r3, [r1, #0]
 346:morphology.c  **** 		tmp_pins = (params[2] & 0x0F);
 132              		.loc 1 346 0
 133 00ec 0230D0E5 		ldrb	r3, [r0, #2]	@ zero_extendqisi2
 134 00f0 0F0003E2 		and	r0, r3, #15
 135              	.LVL15:
 136 00f4 430000EA 		b	.L15
 137              	.LVL16:
 138              	.L22:
 347:morphology.c  **** 	} else if(params[2] & 0xF0) {
 139              		.loc 1 347 0
 140 00f8 F00013E3 		tst	r3, #240
 141 00fc 0600A003 		moveq	r0, #6
 142              	.LVL17:
 143 0100 1EFF2F01 		bxeq	lr
 348:morphology.c  **** 		*side = 4; // Slave Right
 144              		.loc 1 348 0
 145 0104 0430A0E3 		mov	r3, #4
 146 0108 0030C1E5 		strb	r3, [r1, #0]
 349:morphology.c  **** 		tmp_pins = (params[2] & 0xF0) >> 4;
 147              		.loc 1 349 0
 148 010c 0030DCE5 		ldrb	r3, [ip, #0]	@ zero_extendqisi2
 149 0110 2302A0E1 		mov	r0, r3, lsr #4
 150              	.LVL18:
 151              	.L15:
 152              	.LVL19:
 350:morphology.c  **** 	} else
 351:morphology.c  **** 		return ORIENTATION_ERROR_INVALID_PIN_COMBO;
 352:morphology.c  **** 	
 353:morphology.c  **** 	if(tmp_pins & 0x01)
 153              		.loc 1 353 0
 154 0114 010010E3 		tst	r0, #1
 354:morphology.c  **** 		*pin = 0;
 155              		.loc 1 354 0
ARM GAS  C:\DOCUME~1\TECHCO~1\LOCALS~1\Temp/ccQdbaaa.s 			page 10


 156 0118 0030A013 		movne	r3, #0
 157 011c 0030C215 		strneb	r3, [r2, #0]
 158 0120 0300A011 		movne	r0, r3
 159              		.loc 1 353 0
 160 0124 1EFF2F11 		bxne	lr
 355:morphology.c  **** 	else if(tmp_pins & 0x02)
 161              		.loc 1 355 0
 162 0128 020010E3 		tst	r0, #2
 356:morphology.c  **** 		*pin = 1;
 163              		.loc 1 356 0
 164 012c 0130A013 		movne	r3, #1
 165 0130 0030C215 		strneb	r3, [r2, #0]
 166 0134 0000A013 		movne	r0, #0
 167              		.loc 1 355 0
 168 0138 1EFF2F11 		bxne	lr
 357:morphology.c  **** 	else if(tmp_pins & 0x04)
 169              		.loc 1 357 0
 170 013c 040010E3 		tst	r0, #4
 358:morphology.c  **** 		*pin = 2;
 171              		.loc 1 358 0
 172 0140 0230A013 		movne	r3, #2
 173 0144 0030C215 		strneb	r3, [r2, #0]
 174 0148 0000A013 		movne	r0, #0
 175              		.loc 1 357 0
 176 014c 1EFF2F11 		bxne	lr
 359:morphology.c  **** 	else if(tmp_pins & 0x08)
 177              		.loc 1 359 0
 178 0150 080010E2 		ands	r0, r0, #8
 360:morphology.c  **** 		*pin = 3;
 179              		.loc 1 360 0
 180 0154 0330A013 		movne	r3, #3
 181 0158 0030C215 		strneb	r3, [r2, #0]
 182 015c 0000A013 		movne	r0, #0
 361:morphology.c  **** 
 362:morphology.c  **** 	return ORIENTATION_NOERROR; // device found
 363:morphology.c  **** }
 183              		.loc 1 363 0
 184 0160 1EFF2FE1 		bx	lr
 185              	.LFE8:
 186              		.size	processGetOrientationPins, .-processGetOrientationPins
 187              		.align	2
 188              		.global	getInitialState
 189              		.type	getInitialState, %function
 190              	getInitialState:
 191              	.LFB18:
 364:morphology.c  **** 
 365:morphology.c  **** int broadcastSetAddressWithOrientationPin_AR(u08 rcount, u08 address)
 366:morphology.c  **** {
 367:morphology.c  **** 	u08 i;
 368:morphology.c  **** 	int retval;
 369:morphology.c  **** 	for(i=0; i<rcount; i++)
 370:morphology.c  **** 	{
 371:morphology.c  **** 		retval = broadcastSetAddressWithOrientationPin(address);
 372:morphology.c  **** 		if(retval != ORIENTATION_ERROR_TIMEOUT)
 373:morphology.c  **** 			return retval;
 374:morphology.c  **** 	}
 375:morphology.c  **** 	return ORIENTATION_ERROR_TIMEOUT;
ARM GAS  C:\DOCUME~1\TECHCO~1\LOCALS~1\Temp/ccQdbaaa.s 			page 11


 376:morphology.c  **** }
 377:morphology.c  **** 
 378:morphology.c  **** int broadcastSetAddressWithOrientationPin(u08 address)
 379:morphology.c  **** {
 380:morphology.c  **** 	u08 params[1];
 381:morphology.c  **** 	params[0] = address;
 382:morphology.c  **** 
 383:morphology.c  **** 	cmd_BuildPacket(BROADCAST_CLASS, address, 0x04, 1, params);
 384:morphology.c  **** 	cmd_Execute(EXTERNAL_SERIAL);
 385:morphology.c  **** 	
 386:morphology.c  **** 	u32 a = 0;
 387:morphology.c  **** 	while ((packetRxProcess_NoAddrClassCheck(EXTERNAL_SERIAL, 
 388:morphology.c  **** 		uartGetRxBuffer(EXTERNAL_SERIAL)) == FALSE) && 
 389:morphology.c  **** 		(a < CMD_RESPONSE_TIMEOUT))
 390:morphology.c  **** 	{	a++; }
 391:morphology.c  **** 	if (a < CMD_RESPONSE_TIMEOUT) // timeout has not occurred
 392:morphology.c  **** 	{
 393:morphology.c  **** 		if((ext_busRxPkt.paramCnt == 0) && 
 394:morphology.c  **** 			(ext_busRxPkt.cmd == 0x04))
 395:morphology.c  **** 			return ORIENTATION_NOERROR; // no problem
 396:morphology.c  **** 		else
 397:morphology.c  **** 		{
 398:morphology.c  **** 			return ORIENTATION_ERROR_ON_TARGET_CUBE; // error has occurred on target cube
 399:morphology.c  **** 		}
 400:morphology.c  **** 	} else { // timeout has occurred
 401:morphology.c  **** 		return ORIENTATION_ERROR_TIMEOUT;
 402:morphology.c  **** 	}
 403:morphology.c  **** }
 404:morphology.c  **** 
 405:morphology.c  **** int getMeasuredAngle_AR(u08 rcount, u08 targetID, u08 targetClass, u16 *angle)
 406:morphology.c  **** {
 407:morphology.c  **** 	u08 i;
 408:morphology.c  **** 	int retval;
 409:morphology.c  **** 	for(i=0; i<rcount; i++)
 410:morphology.c  **** 	{
 411:morphology.c  **** 		retval = getMeasuredAngle(targetID, targetClass, angle);
 412:morphology.c  **** 		if(retval != ORIENTATION_ERROR_TIMEOUT)
 413:morphology.c  **** 			return retval;
 414:morphology.c  **** 	}
 415:morphology.c  **** 	return ORIENTATION_ERROR_TIMEOUT;
 416:morphology.c  **** }
 417:morphology.c  **** 
 418:morphology.c  **** int getMeasuredAngle(u08 targetID, u08 targetClass, u16 *angle)
 419:morphology.c  **** {
 420:morphology.c  **** 	cmd_BuildPacket(targetClass, targetID, 0x07, 0, NULL);
 421:morphology.c  **** 	cmd_Execute(EXTERNAL_SERIAL);
 422:morphology.c  **** 
 423:morphology.c  **** 	// determine response and return error codes if necessary
 424:morphology.c  **** 	u32 a = 0;
 425:morphology.c  **** 	while ((packetRxProcess(EXTERNAL_SERIAL, 
 426:morphology.c  **** 		targetClass, 
 427:morphology.c  **** 		targetID, 
 428:morphology.c  **** 		uartGetRxBuffer(EXTERNAL_SERIAL)) == FALSE) && 
 429:morphology.c  **** 		(a < CMD_RESPONSE_TIMEOUT))
 430:morphology.c  **** 	{	a++; }
 431:morphology.c  **** 	if (a < CMD_RESPONSE_TIMEOUT) // timeout has not occurred
 432:morphology.c  **** 	{
ARM GAS  C:\DOCUME~1\TECHCO~1\LOCALS~1\Temp/ccQdbaaa.s 			page 12


 433:morphology.c  **** 		if((ext_busRxPkt.paramCnt != 2) || 
 434:morphology.c  **** 			(ext_busRxPkt.cmd != 0x07))
 435:morphology.c  **** 			return ORIENTATION_ERROR_ON_TARGET_CUBE;
 436:morphology.c  **** 		*angle = (ext_busRxPkt.params[1] & 0x0F) << 8;
 437:morphology.c  **** 		*angle |= ext_busRxPkt.params[0];
 438:morphology.c  **** 		return ORIENTATION_NOERROR; // no problem
 439:morphology.c  **** 	} else { // timeout has occurred
 440:morphology.c  **** 		return ORIENTATION_ERROR_TIMEOUT;
 441:morphology.c  **** 	}
 442:morphology.c  **** }
 443:morphology.c  **** 
 444:morphology.c  **** int setOrientationPin_AR(u08 rcount, u08 targetID, u08 targetClass, u08 board, u08 pin, u08 state)
 445:morphology.c  **** {
 446:morphology.c  **** 	u08 i;
 447:morphology.c  **** 	int retval;
 448:morphology.c  **** 	for(i=0; i<rcount; i++)
 449:morphology.c  **** 	{
 450:morphology.c  **** 		retval = setOrientationPin(targetID, targetClass, board, pin, state);
 451:morphology.c  **** 		if(retval != ORIENTATION_ERROR_TIMEOUT)
 452:morphology.c  **** 			return retval;
 453:morphology.c  **** 	}
 454:morphology.c  **** 	return ORIENTATION_ERROR_TIMEOUT;
 455:morphology.c  **** }
 456:morphology.c  **** 
 457:morphology.c  **** int setOrientationPin(
 458:morphology.c  **** 					  u08 targetID, 
 459:morphology.c  **** 					  u08 targetClass, 
 460:morphology.c  **** 					  u08 board, 
 461:morphology.c  **** 					  u08 pin, 
 462:morphology.c  **** 					  u08 state
 463:morphology.c  **** 					  )
 464:morphology.c  **** {
 465:morphology.c  **** 	u08 params[1];
 466:morphology.c  **** 
 467:morphology.c  **** 	// handle errors
 468:morphology.c  **** 	if(board > 0x0F)
 469:morphology.c  **** 		return ORIENTATION_ERROR_PARAMETERS;
 470:morphology.c  **** 	if(pin > 0x03)
 471:morphology.c  **** 		return ORIENTATION_ERROR_PARAMETERS;
 472:morphology.c  **** 	if(state > 0x01)
 473:morphology.c  **** 		return ORIENTATION_ERROR_PARAMETERS;
 474:morphology.c  **** 
 475:morphology.c  **** 	params[0] = 0x00;
 476:morphology.c  **** 	params[0] |= (board & 0x0F) << 4;
 477:morphology.c  **** 	params[0] |= (pin & 0x03) << 2;
 478:morphology.c  **** 	params[0] |= (state & 0x01);
 479:morphology.c  **** 
 480:morphology.c  **** 	cmd_BuildPacket(targetClass, targetID, 0x08, 1, params);
 481:morphology.c  **** 	cmd_Execute(EXTERNAL_SERIAL);
 482:morphology.c  **** 
 483:morphology.c  **** 	// determine response and return error codes if necessary
 484:morphology.c  **** 	u32 a = 0;
 485:morphology.c  **** 	while ((packetRxProcess(EXTERNAL_SERIAL, 
 486:morphology.c  **** 		targetClass, 
 487:morphology.c  **** 		targetID, 
 488:morphology.c  **** 		uartGetRxBuffer(EXTERNAL_SERIAL)) == FALSE) && 
 489:morphology.c  **** 		(a < CMD_RESPONSE_TIMEOUT))
ARM GAS  C:\DOCUME~1\TECHCO~1\LOCALS~1\Temp/ccQdbaaa.s 			page 13


 490:morphology.c  **** 	{	a++; }
 491:morphology.c  **** 	if (a < CMD_RESPONSE_TIMEOUT) // timeout has not occurred
 492:morphology.c  **** 	{
 493:morphology.c  **** 		if((ext_busRxPkt.paramCnt == 0) && 
 494:morphology.c  **** 			(ext_busRxPkt.cmd == 0x08))
 495:morphology.c  **** 			return ORIENTATION_NOERROR; // no problem
 496:morphology.c  **** 		else if ((ext_busRxPkt.paramCnt == 1) && 
 497:morphology.c  **** 			(ext_busRxPkt.params[0] == 0x03)) {
 498:morphology.c  **** 			return ORIENTATION_SIDE_NOT_PRESENT; // side is not present, no problem
 499:morphology.c  **** 		} else {
 500:morphology.c  **** 			return ORIENTATION_ERROR_ON_TARGET_CUBE; // error has occurred on target cube
 501:morphology.c  **** 		}
 502:morphology.c  **** 	} else { // timeout has occurred
 503:morphology.c  **** 		return ORIENTATION_ERROR_TIMEOUT;
 504:morphology.c  **** 	}
 505:morphology.c  **** }
 506:morphology.c  **** 
 507:morphology.c  **** void printExternalCommand(void)
 508:morphology.c  **** {
 509:morphology.c  **** 	rprintf("ID ");
 510:morphology.c  **** 	rprintfu08(ext_busRxPkt.id);
 511:morphology.c  **** 	rprintfCRLF();
 512:morphology.c  **** 	rprintf("Class ");
 513:morphology.c  **** 	rprintfu08(ext_busRxPkt.devclass);
 514:morphology.c  **** 	rprintfCRLF();
 515:morphology.c  **** 	rprintf("Cmd ");
 516:morphology.c  **** 	rprintfu08(ext_busRxPkt.cmd);
 517:morphology.c  **** 	rprintfCRLF();
 518:morphology.c  **** 	rprintf("Params ");
 519:morphology.c  **** 	rprintfu08(ext_busRxPkt.paramCnt);
 520:morphology.c  **** 	rprintfCRLF();
 521:morphology.c  **** 	int i;
 522:morphology.c  **** 	for(i=0; i<ext_busRxPkt.paramCnt; i++)
 523:morphology.c  **** 	{
 524:morphology.c  **** 		rprintfu08(ext_busRxPkt.params[i]);
 525:morphology.c  **** 	}
 526:morphology.c  **** 	rprintfCRLF();
 527:morphology.c  **** }
 528:morphology.c  **** 
 529:morphology.c  **** // this method allows us to specify what an inital state means for various master classes
 530:morphology.c  **** int setInitialState(MMORPH *morph, u08 id, u08 devclass)
 531:morphology.c  **** {
 532:morphology.c  **** 	if(devclass == 0xFA) // Actuator master half (south)
 533:morphology.c  **** 	{
 534:morphology.c  **** 		u16 angle;
 535:morphology.c  **** 
 536:morphology.c  **** 		// query state on newly addressed device
 537:morphology.c  **** 		if(getMeasuredAngle_AR(ORIENTATION_CMD_RETRY_COUNT, id, devclass, &angle))
 538:morphology.c  **** 		{
 539:morphology.c  **** 			return ORIENTATION_ERROR_ON_TARGET_CUBE;
 540:morphology.c  **** 		}
 541:morphology.c  **** 		// only one initial state value, actuator position
 542:morphology.c  **** 		if(insertInitialState(morph, id, devclass, 0x00, (u32)angle)) 
 543:morphology.c  **** 			return ORIENTATION_ERROR_CANNOT_SET_STATE;
 544:morphology.c  **** 
 545:morphology.c  **** 		return ORIENTATION_NOERROR;
 546:morphology.c  **** 	}
ARM GAS  C:\DOCUME~1\TECHCO~1\LOCALS~1\Temp/ccQdbaaa.s 			page 14


 547:morphology.c  **** 	return ORIENTATION_UNKNOWN_CLASS;
 548:morphology.c  **** }
 549:morphology.c  **** 
 550:morphology.c  **** int insertInitialState(MMORPH *morph, u08 id, u08 devclass, u08 channel, u32 value)
 551:morphology.c  **** {
 552:morphology.c  **** 	if(getInitialState(morph, id, devclass, channel, NULL) != ORIENTATION_NO_STATE_FOUND)
 553:morphology.c  **** 		return ORIENTATION_ERROR_DUPLICATE_STATE;
 554:morphology.c  **** 
 555:morphology.c  **** 	morph->statecount++;
 556:morphology.c  **** 	if((morph->states = realloc(morph->states, morph->statecount*sizeof(STATEDESC))) == NULL)
 557:morphology.c  **** 		return ORIENTATION_ERROR_MEM_ALLOC;
 558:morphology.c  **** 
 559:morphology.c  **** 	STATEDESC *newState = &morph->states[morph->statecount-1];
 560:morphology.c  **** 
 561:morphology.c  **** 	newState->id = id;
 562:morphology.c  **** 	newState->cubeClass = devclass;
 563:morphology.c  **** 	newState->timestamp = 0; // initial state
 564:morphology.c  **** 	newState->channel = channel;
 565:morphology.c  **** 	newState->value = value;
 566:morphology.c  **** 
 567:morphology.c  **** 	return ORIENTATION_NOERROR; // no problem
 568:morphology.c  **** }
 569:morphology.c  **** 
 570:morphology.c  **** int getInitialState(MMORPH *morph, u08 id, u08 devclass, u08 channel, STATEDESC *state)
 571:morphology.c  **** {
 192              		.loc 1 571 0
 193              		@ args = 4, pretend = 0, frame = 0
 194              		@ frame_needed = 0, uses_anonymous_args = 0
 195              	.LVL20:
 196 0164 10402DE9 		stmfd	sp!, {r4, lr}
 197              	.LCFI1:
 198 0168 FF1001E2 		and	r1, r1, #255
 199 016c FFE002E2 		and	lr, r2, #255
 200 0170 FF4003E2 		and	r4, r3, #255
 572:morphology.c  **** 	int i;
 573:morphology.c  **** 	for(i=0; i<morph->statecount; i++)
 201              		.loc 1 573 0
 202 0174 042090E5 		ldr	r2, [r0, #4]
 203              	.LVL21:
 204 0178 0830D0E5 		ldrb	r3, [r0, #8]	@ zero_extendqisi2
 205              	.LVL22:
 206 017c 033CA0E1 		mov	r3, r3, asl #24
 207 0180 22C493E1 		orrs	ip, r3, r2, lsr #8
 208 0184 7400000A 		beq	.L37
 209 0188 082090E5 		ldr	r2, [r0, #8]
 210 018c 0C30D0E5 		ldrb	r3, [r0, #12]	@ zero_extendqisi2
 211 0190 033CA0E1 		mov	r3, r3, asl #24
 212 0194 220483E1 		orr	r0, r3, r2, lsr #8
 213              	.LVL23:
 214 0198 0020A0E3 		mov	r2, #0
 215              	.LVL24:
 216              	.L39:
 574:morphology.c  **** 	{
 575:morphology.c  **** 		if((morph->states[i].id == id) && 
 217              		.loc 1 575 0
 218 019c 0030D0E5 		ldrb	r3, [r0, #0]	@ zero_extendqisi2
 219 01a0 010053E1 		cmp	r3, r1
ARM GAS  C:\DOCUME~1\TECHCO~1\LOCALS~1\Temp/ccQdbaaa.s 			page 15


 220 01a4 7000001A 		bne	.L40
 221 01a8 0130D0E5 		ldrb	r3, [r0, #1]	@ zero_extendqisi2
 222 01ac 0E0053E1 		cmp	r3, lr
 223 01b0 7000001A 		bne	.L40
 224 01b4 0630D0E5 		ldrb	r3, [r0, #6]	@ zero_extendqisi2
 225 01b8 040053E1 		cmp	r3, r4
 226 01bc 7000001A 		bne	.L40
 227 01c0 0000A0E3 		mov	r0, #0
 228 01c4 1080BDE8 		ldmfd	sp!, {r4, pc}
 229              	.L40:
 230              		.loc 1 573 0
 231 01c8 012082E2 		add	r2, r2, #1
 232 01cc 0C0080E2 		add	r0, r0, #12
 233 01d0 0C0052E1 		cmp	r2, ip
 234 01d4 6500001A 		bne	.L39
 235              	.LVL25:
 236              	.L37:
 237 01d8 0C00A0E3 		mov	r0, #12
 238              	.LVL26:
 576:morphology.c  **** 			(morph->states[i].cubeClass == devclass) &&
 577:morphology.c  **** 			(morph->states[i].channel == channel))
 578:morphology.c  **** 		{
 579:morphology.c  **** 			state = &morph->states[i];
 580:morphology.c  **** 			return ORIENTATION_NOERROR;
 581:morphology.c  **** 		}
 582:morphology.c  **** 	}
 583:morphology.c  **** 	return ORIENTATION_NO_STATE_FOUND;
 584:morphology.c  **** }
 239              		.loc 1 584 0
 240 01dc 1080BDE8 		ldmfd	sp!, {r4, pc}
 241              	.LFE18:
 242              		.size	getInitialState, .-getInitialState
 243              		.align	2
 244              		.global	getCube
 245              		.type	getCube, %function
 246              	getCube:
 247              	.LFB19:
 585:morphology.c  **** 
 586:morphology.c  **** // This performs a sequential search for a cube with a matching id and class
 587:morphology.c  **** MCUBE *getCube(MMORPH *morph, u08 id)
 588:morphology.c  **** {
 248              		.loc 1 588 0
 249              		@ args = 0, pretend = 0, frame = 0
 250              		@ frame_needed = 0, uses_anonymous_args = 0
 251              	.LVL27:
 252 01e0 04E02DE5 		str	lr, [sp, #-4]!
 253              	.LCFI2:
 254 01e4 FF1001E2 		and	r1, r1, #255
 589:morphology.c  **** 	int i;
 590:morphology.c  **** 	for(i=0;i<morph->cubecount;i++)
 255              		.loc 1 590 0
 256 01e8 00E0D0E5 		ldrb	lr, [r0, #0]	@ zero_extendqisi2
 257 01ec 00005EE3 		cmp	lr, #0
 258 01f0 8D0000DA 		ble	.L48
 591:morphology.c  **** 	{
 592:morphology.c  **** 		if(morph->cubes[i].id == id)
 259              		.loc 1 592 0
ARM GAS  C:\DOCUME~1\TECHCO~1\LOCALS~1\Temp/ccQdbaaa.s 			page 16


 260 01f4 003090E5 		ldr	r3, [r0, #0]
 261 01f8 0420D0E5 		ldrb	r2, [r0, #4]	@ zero_extendqisi2
 262 01fc 022CA0E1 		mov	r2, r2, asl #24
 263 0200 230482E1 		orr	r0, r2, r3, lsr #8
 264              	.LVL28:
 265 0204 0030D0E5 		ldrb	r3, [r0, #0]	@ zero_extendqisi2
 266 0208 010053E1 		cmp	r3, r1
 267 020c 08C08012 		addne	ip, r0, #8
 268 0210 0020A013 		movne	r2, #0
 269              	.LVL29:
 270 0214 04F09D04 		ldreq	pc, [sp], #4
 271 0218 8A0000EA 		b	.L52
 272              	.L53:
 273 021c 0C00A0E1 		mov	r0, ip
 274 0220 0030DCE5 		ldrb	r3, [ip, #0]	@ zero_extendqisi2
 275 0224 08C08CE2 		add	ip, ip, #8
 276 0228 010053E1 		cmp	r3, r1
 277 022c 04F09D04 		ldreq	pc, [sp], #4
 278              	.L52:
 279              		.loc 1 590 0
 280 0230 012082E2 		add	r2, r2, #1
 281 0234 0E0052E1 		cmp	r2, lr
 282 0238 8500001A 		bne	.L53
 283              	.LVL30:
 284              	.L48:
 285 023c 0000A0E3 		mov	r0, #0
 286              	.LVL31:
 593:morphology.c  **** 		{
 594:morphology.c  **** 			return &morph->cubes[i];
 595:morphology.c  **** 		}
 596:morphology.c  **** 	}
 597:morphology.c  **** 	return NULL; // no device found
 598:morphology.c  **** }
 287              		.loc 1 598 0
 288 0240 04F09DE4 		ldr	pc, [sp], #4
 289              	.LFE19:
 290              		.size	getCube, .-getCube
 291              		.align	2
 292              		.global	getCubeState
 293              		.type	getCubeState, %function
 294              	getCubeState:
 295              	.LFB20:
 599:morphology.c  **** 
 600:morphology.c  **** STATEDESC *getCubeState(MMORPH *morph, MCUBE *cube, u08 channel)
 601:morphology.c  **** {
 296              		.loc 1 601 0
 297              		@ args = 0, pretend = 0, frame = 0
 298              		@ frame_needed = 0, uses_anonymous_args = 0
 299              	.LVL32:
 300 0244 10402DE9 		stmfd	sp!, {r4, lr}
 301              	.LCFI3:
 302 0248 FF4002E2 		and	r4, r2, #255
 602:morphology.c  **** 	int i;
 603:morphology.c  **** 	for(i=0; i<morph->statecount; i++)
 303              		.loc 1 603 0
 304 024c 042090E5 		ldr	r2, [r0, #4]
 305              	.LVL33:
ARM GAS  C:\DOCUME~1\TECHCO~1\LOCALS~1\Temp/ccQdbaaa.s 			page 17


 306 0250 0830D0E5 		ldrb	r3, [r0, #8]	@ zero_extendqisi2
 307 0254 033CA0E1 		mov	r3, r3, asl #24
 308 0258 22E493E1 		orrs	lr, r3, r2, lsr #8
 309 025c A700000A 		beq	.L56
 604:morphology.c  **** 	{
 605:morphology.c  **** 		if((morph->states[i].id == cube->id) &&
 310              		.loc 1 605 0
 311 0260 B010D1E1 		ldrh	r1, [r1, #0]
 312              	.LVL34:
 313 0264 082090E5 		ldr	r2, [r0, #8]
 314 0268 0C30D0E5 		ldrb	r3, [r0, #12]	@ zero_extendqisi2
 315 026c 033CA0E1 		mov	r3, r3, asl #24
 316 0270 222483E1 		orr	r2, r3, r2, lsr #8
 317 0274 00C0A0E3 		mov	ip, #0
 318              	.LVL35:
 319              	.L58:
 320 0278 0200A0E1 		mov	r0, r2
 321              	.LVL36:
 322 027c B030D2E1 		ldrh	r3, [r2, #0]
 323 0280 010053E1 		cmp	r3, r1
 324 0284 A300001A 		bne	.L59
 325 0288 0630D2E5 		ldrb	r3, [r2, #6]	@ zero_extendqisi2
 326 028c 040053E1 		cmp	r3, r4
 327 0290 1080BD08 		ldmeqfd	sp!, {r4, pc}
 328              	.L59:
 329              		.loc 1 603 0
 330 0294 01C08CE2 		add	ip, ip, #1
 331 0298 0C2082E2 		add	r2, r2, #12
 332 029c 0E005CE1 		cmp	ip, lr
 333 02a0 9C00001A 		bne	.L58
 334              	.LVL37:
 335              	.L56:
 336 02a4 0000A0E3 		mov	r0, #0
 337              	.LVL38:
 606:morphology.c  **** 			(morph->states[i].cubeClass == cube->cubeclass) &&
 607:morphology.c  **** 			(morph->states[i].channel == channel))
 608:morphology.c  **** 		{
 609:morphology.c  **** 			return &morph->states[i];
 610:morphology.c  **** 		}
 611:morphology.c  **** 	}
 612:morphology.c  **** 	return NULL;
 613:morphology.c  **** }
 338              		.loc 1 613 0
 339 02a8 1080BDE8 		ldmfd	sp!, {r4, pc}
 340              	.LFE20:
 341              		.size	getCubeState, .-getCubeState
 342              		.align	2
 343              		.global	getCubeLink
 344              		.type	getCubeLink, %function
 345              	getCubeLink:
 346              	.LFB21:
 614:morphology.c  **** 
 615:morphology.c  **** CUBELINKS *getCubeLink(MCUBE *cube, u08 selfSide)
 616:morphology.c  **** {
 347              		.loc 1 616 0
 348              		@ args = 0, pretend = 0, frame = 0
 349              		@ frame_needed = 0, uses_anonymous_args = 0
ARM GAS  C:\DOCUME~1\TECHCO~1\LOCALS~1\Temp/ccQdbaaa.s 			page 18


 350              	.LVL39:
 351 02ac 04E02DE5 		str	lr, [sp, #-4]!
 352              	.LCFI4:
 353 02b0 FF1001E2 		and	r1, r1, #255
 617:morphology.c  **** 	int i;
 618:morphology.c  **** 	for(i=0; i<cube->numlinks; i++)
 354              		.loc 1 618 0
 355 02b4 02E0D0E5 		ldrb	lr, [r0, #2]	@ zero_extendqisi2
 356 02b8 00005EE3 		cmp	lr, #0
 357 02bc BF0000DA 		ble	.L65
 619:morphology.c  **** 	{
 620:morphology.c  **** 		if(cube->clinks[i].selfSide == selfSide)
 358              		.loc 1 620 0
 359 02c0 0330D0E5 		ldrb	r3, [r0, #3]	@ zero_extendqisi2
 360 02c4 042090E5 		ldr	r2, [r0, #4]
 361 02c8 020483E1 		orr	r0, r3, r2, asl #8
 362              	.LVL40:
 363 02cc 0230D0E5 		ldrb	r3, [r0, #2]	@ zero_extendqisi2
 364 02d0 010053E1 		cmp	r3, r1
 365 02d4 08C08012 		addne	ip, r0, #8
 366 02d8 0020A013 		movne	r2, #0
 367              	.LVL41:
 368 02dc 04F09D04 		ldreq	pc, [sp], #4
 369 02e0 BC0000EA 		b	.L69
 370              	.L70:
 371 02e4 0C00A0E1 		mov	r0, ip
 372 02e8 0230DCE5 		ldrb	r3, [ip, #2]	@ zero_extendqisi2
 373 02ec 08C08CE2 		add	ip, ip, #8
 374 02f0 010053E1 		cmp	r3, r1
 375 02f4 04F09D04 		ldreq	pc, [sp], #4
 376              	.L69:
 377              		.loc 1 618 0
 378 02f8 012082E2 		add	r2, r2, #1
 379 02fc 0E0052E1 		cmp	r2, lr
 380 0300 B700001A 		bne	.L70
 381              	.LVL42:
 382              	.L65:
 383 0304 0000A0E3 		mov	r0, #0
 384              	.LVL43:
 621:morphology.c  **** 		{
 622:morphology.c  **** 			return &cube->clinks[i];
 623:morphology.c  **** 		}
 624:morphology.c  **** 	}
 625:morphology.c  **** 	return NULL;
 626:morphology.c  **** }
 385              		.loc 1 626 0
 386 0308 04F09DE4 		ldr	pc, [sp], #4
 387              	.LFE21:
 388              		.size	getCubeLink, .-getCubeLink
 389              		.align	2
 390              		.global	getPinOrientation
 391              		.type	getPinOrientation, %function
 392              	getPinOrientation:
 393              	.LFB24:
 627:morphology.c  **** 
 628:morphology.c  **** int insertNewCubeEntry(MMORPH *morph, u08 id, u08 devclass)
 629:morphology.c  **** {
ARM GAS  C:\DOCUME~1\TECHCO~1\LOCALS~1\Temp/ccQdbaaa.s 			page 19


 630:morphology.c  **** 	// does this cube already exist?
 631:morphology.c  **** 	if(getCube(morph, id) != NULL)
 632:morphology.c  **** 		return ORIENTATION_ERROR_DUPLICATE_CUBE;
 633:morphology.c  **** 
 634:morphology.c  **** 	// safe to create new cube
 635:morphology.c  **** 	morph->cubecount++;
 636:morphology.c  **** 	if((morph->cubes = realloc(morph->cubes, morph->cubecount*sizeof(MCUBE))) == NULL)
 637:morphology.c  **** 		return ORIENTATION_ERROR_MEM_ALLOC;
 638:morphology.c  **** 
 639:morphology.c  **** 	MCUBE *newCube = &morph->cubes[morph->cubecount-1];
 640:morphology.c  **** 
 641:morphology.c  **** 	newCube->id = id;
 642:morphology.c  **** 	newCube->cubeclass = devclass;
 643:morphology.c  **** 	newCube->numlinks = 0;
 644:morphology.c  **** 	newCube->clinks = NULL;
 645:morphology.c  **** 
 646:morphology.c  **** 	return ORIENTATION_NOERROR;
 647:morphology.c  **** }
 648:morphology.c  **** 
 649:morphology.c  **** // This function inserts a new link between two neighbor cubes
 650:morphology.c  **** int insertNewLinkEntry(MMORPH *morph, 
 651:morphology.c  **** 					   u08 cubeA_id, u08 cubeA_class, u08 cubeA_side, u08 cubeA_pin,
 652:morphology.c  **** 					   u08 cubeB_id, u08 cubeB_class, u08 cubeB_side, u08 cubeB_pin)
 653:morphology.c  **** {
 654:morphology.c  **** 	u08 orient;
 655:morphology.c  **** 	// decode orientation
 656:morphology.c  **** 	if(getPinOrientation(cubeA_pin, cubeB_pin, &orient))
 657:morphology.c  **** 		return ORIENTATION_ERROR_PARAMETERS;
 658:morphology.c  **** 
 659:morphology.c  **** 	MCUBE *cubeA = NULL;
 660:morphology.c  **** 	MCUBE *cubeB = NULL;
 661:morphology.c  **** 	
 662:morphology.c  **** 	// get pointer to cube A
 663:morphology.c  **** 	cubeA = getCube(morph, cubeA_id);
 664:morphology.c  **** 	if(cubeA == NULL)
 665:morphology.c  **** 		return ORIENTATION_NO_DEVICE_FOUND;
 666:morphology.c  **** 
 667:morphology.c  **** 	// get pointer to cube B
 668:morphology.c  **** 	cubeB = getCube(morph, cubeB_id);
 669:morphology.c  **** 	if(cubeB == NULL)
 670:morphology.c  **** 		return ORIENTATION_NO_DEVICE_FOUND;
 671:morphology.c  **** 
 672:morphology.c  **** 	if(getCubeLink(cubeA, cubeA_side) != NULL)
 673:morphology.c  **** 		return ORIENTATION_ERROR_DUPLICATE_CUBE_LINK;
 674:morphology.c  **** 
 675:morphology.c  **** 	if(getCubeLink(cubeB, cubeB_side) != NULL)
 676:morphology.c  **** 		return ORIENTATION_ERROR_DUPLICATE_CUBE_LINK;
 677:morphology.c  **** 	
 678:morphology.c  **** 	// no duplicate links exist, safe to create new link
 679:morphology.c  **** 	cubeA->numlinks++;
 680:morphology.c  **** 	if((cubeA->clinks = realloc(cubeA->clinks, cubeA->numlinks*sizeof(CUBELINKS))) == NULL)
 681:morphology.c  **** 		return ORIENTATION_ERROR_MEM_ALLOC;
 682:morphology.c  **** 
 683:morphology.c  **** 	cubeB->numlinks++;
 684:morphology.c  **** 	if((cubeB->clinks = realloc(cubeB->clinks, cubeB->numlinks*sizeof(CUBELINKS))) == NULL)
 685:morphology.c  **** 		return ORIENTATION_ERROR_MEM_ALLOC;
 686:morphology.c  **** 
ARM GAS  C:\DOCUME~1\TECHCO~1\LOCALS~1\Temp/ccQdbaaa.s 			page 20


 687:morphology.c  **** 	u08 newCubeIndexA = cubeA->numlinks-1;
 688:morphology.c  **** 	u08 newCubeIndexB = cubeB->numlinks-1;
 689:morphology.c  **** 
 690:morphology.c  **** 	cubeA->clinks[newCubeIndexA].selfID = cubeA_id;
 691:morphology.c  **** 	cubeA->clinks[newCubeIndexA].selfClass = cubeA_class;
 692:morphology.c  **** 	cubeA->clinks[newCubeIndexA].selfSide = cubeA_side;
 693:morphology.c  **** 	cubeA->clinks[newCubeIndexA].selfOrient = orient;
 694:morphology.c  **** 	cubeA->clinks[newCubeIndexA].neighborID = cubeB_id;
 695:morphology.c  **** 	cubeA->clinks[newCubeIndexA].neighborClass = cubeB_class;
 696:morphology.c  **** 	cubeA->clinks[newCubeIndexA].neighborSide = cubeB_side;
 697:morphology.c  **** 
 698:morphology.c  **** 	cubeB->clinks[newCubeIndexB].selfID = cubeB_id;
 699:morphology.c  **** 	cubeB->clinks[newCubeIndexB].selfClass = cubeB_class;
 700:morphology.c  **** 	cubeB->clinks[newCubeIndexB].selfSide = cubeB_side;
 701:morphology.c  **** 	cubeB->clinks[newCubeIndexB].selfOrient = orient;
 702:morphology.c  **** 	cubeB->clinks[newCubeIndexB].neighborID = cubeA_id;
 703:morphology.c  **** 	cubeB->clinks[newCubeIndexB].neighborClass = cubeA_class;
 704:morphology.c  **** 	cubeB->clinks[newCubeIndexB].neighborSide = cubeA_side;
 705:morphology.c  **** 
 706:morphology.c  **** 	return ORIENTATION_NOERROR;
 707:morphology.c  **** }
 708:morphology.c  **** 
 709:morphology.c  **** int getPinOrientation(u08 cubeA_pin, u08 cubeB_pin, u08 *orient)
 710:morphology.c  **** {
 394              		.loc 1 710 0
 395              		@ args = 0, pretend = 0, frame = 0
 396              		@ frame_needed = 0, uses_anonymous_args = 0
 397              	.LVL44:
 398 030c F0412DE9 		stmfd	sp!, {r4, r5, r6, r7, r8, lr}
 399              	.LCFI5:
 400 0310 FF1001E2 		and	r1, r1, #255
 711:morphology.c  **** 	if((cubeA_pin == SIDEPIN0 && cubeB_pin == SIDEPIN3) ||
 401              		.loc 1 711 0
 402 0314 FF0010E2 		ands	r0, r0, #255
 403 0318 0030A013 		movne	r3, #0
 404 031c 0130A003 		moveq	r3, #1
 405 0320 030051E3 		cmp	r1, #3
 406 0324 00C0A013 		movne	ip, #0
 407 0328 01C0A003 		moveq	ip, #1
 408 032c 0C0013E1 		tst	r3, ip
 409 0330 E200001A 		bne	.L73
 410 0334 010050E3 		cmp	r0, #1
 411 0338 00E0A013 		movne	lr, #0
 412 033c 01E0A003 		moveq	lr, #1
 413 0340 020051E3 		cmp	r1, #2
 414 0344 0040A013 		movne	r4, #0
 415 0348 0140A003 		moveq	r4, #1
 416 034c 04001EE1 		tst	lr, r4
 417 0350 E200001A 		bne	.L73
 418 0354 020050E3 		cmp	r0, #2
 419 0358 0070A013 		movne	r7, #0
 420 035c 0170A003 		moveq	r7, #1
 421 0360 010051E3 		cmp	r1, #1
 422 0364 0060A013 		movne	r6, #0
 423 0368 0160A003 		moveq	r6, #1
 424 036c 060017E1 		tst	r7, r6
 425 0370 E200001A 		bne	.L73
ARM GAS  C:\DOCUME~1\TECHCO~1\LOCALS~1\Temp/ccQdbaaa.s 			page 21


 426 0374 030050E3 		cmp	r0, #3
 427 0378 0080A013 		movne	r8, #0
 428 037c 0180A003 		moveq	r8, #1
 429 0380 015071E2 		rsbs	r5, r1, #1
 430 0384 0050A033 		movcc	r5, #0
 431 0388 050018E1 		tst	r8, r5
 432 038c E600000A 		beq	.L77
 433              	.L73:
 712:morphology.c  **** 		(cubeA_pin == SIDEPIN1 && cubeB_pin == SIDEPIN2) ||
 713:morphology.c  **** 		(cubeA_pin == SIDEPIN2 && cubeB_pin == SIDEPIN1) ||
 714:morphology.c  **** 		(cubeA_pin == SIDEPIN3 && cubeB_pin == SIDEPIN0))
 715:morphology.c  **** 	{ // orientation 0
 716:morphology.c  **** 		*orient = 0;
 434              		.loc 1 716 0
 435 0390 0030A0E3 		mov	r3, #0
 436 0394 0030C2E5 		strb	r3, [r2, #0]
 437 0398 0300A0E1 		mov	r0, r3
 438              	.LVL45:
 439 039c F081BDE8 		ldmfd	sp!, {r4, r5, r6, r7, r8, pc}
 440              	.LVL46:
 441              	.L77:
 717:morphology.c  **** 		return ORIENTATION_NOERROR;
 718:morphology.c  **** 	} else if((cubeA_pin == SIDEPIN0 && cubeB_pin == SIDEPIN2) ||
 442              		.loc 1 718 0
 443 03a0 040013E1 		tst	r3, r4
 444 03a4 EE00001A 		bne	.L79
 445 03a8 06001EE1 		tst	lr, r6
 446 03ac EE00001A 		bne	.L79
 447 03b0 050017E1 		tst	r7, r5
 448 03b4 EE00001A 		bne	.L79
 449 03b8 08001CE1 		tst	ip, r8
 450 03bc F200000A 		beq	.L83
 451              	.L79:
 719:morphology.c  **** 		(cubeA_pin == SIDEPIN1 && cubeB_pin == SIDEPIN1) ||
 720:morphology.c  **** 		(cubeA_pin == SIDEPIN2 && cubeB_pin == SIDEPIN0) ||
 721:morphology.c  **** 		(cubeA_pin == SIDEPIN3 && cubeB_pin == SIDEPIN3))
 722:morphology.c  **** 	{ // orientation 1
 723:morphology.c  **** 		*orient = 1;
 452              		.loc 1 723 0
 453 03c0 0130A0E3 		mov	r3, #1
 454 03c4 0030C2E5 		strb	r3, [r2, #0]
 455 03c8 0000A0E3 		mov	r0, #0
 456              	.LVL47:
 457 03cc F081BDE8 		ldmfd	sp!, {r4, r5, r6, r7, r8, pc}
 458              	.LVL48:
 459              	.L83:
 724:morphology.c  **** 		return ORIENTATION_NOERROR;
 725:morphology.c  **** 	} else if((cubeA_pin == SIDEPIN0 && cubeB_pin == SIDEPIN1) ||
 460              		.loc 1 725 0
 461 03d0 060013E1 		tst	r3, r6
 462 03d4 FA00001A 		bne	.L84
 463 03d8 05001EE1 		tst	lr, r5
 464 03dc FA00001A 		bne	.L84
 465 03e0 07001CE1 		tst	ip, r7
 466 03e4 FA00001A 		bne	.L84
 467 03e8 080014E1 		tst	r4, r8
 468 03ec FE00000A 		beq	.L88
ARM GAS  C:\DOCUME~1\TECHCO~1\LOCALS~1\Temp/ccQdbaaa.s 			page 22


 469              	.L84:
 726:morphology.c  **** 		(cubeA_pin == SIDEPIN1 && cubeB_pin == SIDEPIN0) ||
 727:morphology.c  **** 		(cubeA_pin == SIDEPIN2 && cubeB_pin == SIDEPIN3) ||
 728:morphology.c  **** 		(cubeA_pin == SIDEPIN3 && cubeB_pin == SIDEPIN2))
 729:morphology.c  **** 	{ // orientation 2
 730:morphology.c  **** 		*orient = 2;
 470              		.loc 1 730 0
 471 03f0 0230A0E3 		mov	r3, #2
 472 03f4 0030C2E5 		strb	r3, [r2, #0]
 473 03f8 0000A0E3 		mov	r0, #0
 474              	.LVL49:
 475 03fc F081BDE8 		ldmfd	sp!, {r4, r5, r6, r7, r8, pc}
 476              	.LVL50:
 477              	.L88:
 731:morphology.c  **** 		return ORIENTATION_NOERROR;
 732:morphology.c  **** 	} else if((cubeA_pin == SIDEPIN0 && cubeB_pin == SIDEPIN0) ||
 478              		.loc 1 732 0
 479 0400 010090E1 		orrs	r0, r0, r1
 480              	.LVL51:
 481 0404 0701000A 		beq	.L89
 482 0408 0E001CE1 		tst	ip, lr
 483 040c 0701001A 		bne	.L89
 484 0410 070014E1 		tst	r4, r7
 485 0414 0701001A 		bne	.L89
 486 0418 080016E1 		tst	r6, r8
 487 041c 0400A003 		moveq	r0, #4
 488 0420 F081BD08 		ldmeqfd	sp!, {r4, r5, r6, r7, r8, pc}
 489              	.L89:
 733:morphology.c  **** 		(cubeA_pin == SIDEPIN1 && cubeB_pin == SIDEPIN3) ||
 734:morphology.c  **** 		(cubeA_pin == SIDEPIN2 && cubeB_pin == SIDEPIN2) ||
 735:morphology.c  **** 		(cubeA_pin == SIDEPIN3 && cubeB_pin == SIDEPIN1))
 736:morphology.c  **** 	{ // orientation 3
 737:morphology.c  **** 		*orient = 3;
 490              		.loc 1 737 0
 491 0424 0330A0E3 		mov	r3, #3
 492 0428 0030C2E5 		strb	r3, [r2, #0]
 493 042c 0000A0E3 		mov	r0, #0
 738:morphology.c  **** 		return ORIENTATION_NOERROR;
 739:morphology.c  **** 	} else
 740:morphology.c  **** 		return ORIENTATION_ERROR_PARAMETERS;
 741:morphology.c  **** }
 494              		.loc 1 741 0
 495 0430 F081BDE8 		ldmfd	sp!, {r4, r5, r6, r7, r8, pc}
 496              	.LFE24:
 497              		.size	getPinOrientation, .-getPinOrientation
 498              		.align	2
 499              		.global	checksum_calc
 500              		.type	checksum_calc, %function
 501              	checksum_calc:
 502              	.LFB29:
 742:morphology.c  **** 
 743:morphology.c  **** int enableAngleTracking(MMORPH *morph)
 744:morphology.c  **** {
 745:morphology.c  **** 	int i;
 746:morphology.c  **** 	int error_code;
 747:morphology.c  **** 	
 748:morphology.c  **** 	for(i=0; i<morph->cubecount; i++)
ARM GAS  C:\DOCUME~1\TECHCO~1\LOCALS~1\Temp/ccQdbaaa.s 			page 23


 749:morphology.c  **** 	{
 750:morphology.c  **** 		if(morph->cubes[i].cubeclass == 0xFA)
 751:morphology.c  **** 		{
 752:morphology.c  **** 			STATEDESC *state = getCubeState(morph, &morph->cubes[i], ACTUATOR_POSITION);
 753:morphology.c  **** 			if(state == NULL)
 754:morphology.c  **** 				return ORIENTATION_NO_STATE_FOUND;
 755:morphology.c  **** 			
 756:morphology.c  **** 			// set initial target position to position which was sensed during morphology generation
 757:morphology.c  **** 			if((error_code = setServoSpeedAndAngle(morph->cubes[i].id, morph->cubes[i].cubeclass, state->val
 758:morphology.c  **** 			{
 759:morphology.c  **** 				printCommandErrorCode(error_code);
 760:morphology.c  **** 				return ORIENTATION_ERROR_ON_TARGET_CUBE;
 761:morphology.c  **** 			}
 762:morphology.c  **** 
 763:morphology.c  **** 			// enable control loop internal to actuator cubes, this results in high packet loss and is there
 764:morphology.c  **** 			if((error_code = setServoAngleTracking(morph->cubes[i].id, morph->cubes[i].cubeclass, ANGLE_TRAC
 765:morphology.c  **** 			{	
 766:morphology.c  **** 				printCommandErrorCode(error_code);
 767:morphology.c  **** 				return ORIENTATION_ERROR_ON_TARGET_CUBE;
 768:morphology.c  **** 			}
 769:morphology.c  **** 		}
 770:morphology.c  **** 	}
 771:morphology.c  **** 	return ORIENTATION_NOERROR;
 772:morphology.c  **** }
 773:morphology.c  **** 
 774:morphology.c  **** int writeMorphologyToFile(char *filename)
 775:morphology.c  **** {
 776:morphology.c  **** 	int i,j;
 777:morphology.c  **** 	int ret;
 778:morphology.c  **** 	u08 cube_chksum = cube_checksum_generator();
 779:morphology.c  **** 	u08 state_chksum = state_checksum_generator();
 780:morphology.c  **** 
 781:morphology.c  **** 	if ( (ret = file_fopen( &filer, &efs.myFs , filename , 'w' )) )
 782:morphology.c  **** 		return ret;
 783:morphology.c  **** 
 784:morphology.c  **** 	if(file_write(&filer, sizeof(u08), &cubemorph.cubecount) != sizeof(u08))
 785:morphology.c  **** 		return 2;
 786:morphology.c  **** 	for(i=0; i<cubemorph.cubecount; i++)
 787:morphology.c  **** 	{
 788:morphology.c  **** 		if(file_write(&filer, sizeof(u08), &cubemorph.cubes[i].id) != sizeof(u08))
 789:morphology.c  **** 			return 2;
 790:morphology.c  **** 		if(file_write(&filer, sizeof(u08), &cubemorph.cubes[i].cubeclass) != sizeof(u08))
 791:morphology.c  **** 			return 2;
 792:morphology.c  **** 		if(file_write(&filer, sizeof(u08), &cubemorph.cubes[i].numlinks) != sizeof(u08))
 793:morphology.c  **** 			return 2;
 794:morphology.c  **** 		
 795:morphology.c  **** 		for(j=0; j<cubemorph.cubes[i].numlinks; j++)
 796:morphology.c  **** 		{
 797:morphology.c  **** 			if(file_write(&filer, sizeof(u08), &cubemorph.cubes[i].clinks[j].selfID) != sizeof(u08))
 798:morphology.c  **** 				return 3;
 799:morphology.c  **** 			if(file_write(&filer, sizeof(u08), &cubemorph.cubes[i].clinks[j].selfClass) != sizeof(u08))
 800:morphology.c  **** 				return 3;
 801:morphology.c  **** 			if(file_write(&filer, sizeof(u08), &cubemorph.cubes[i].clinks[j].selfSide) != sizeof(u08))
 802:morphology.c  **** 				return 3;
 803:morphology.c  **** 			if(file_write(&filer, sizeof(u08), &cubemorph.cubes[i].clinks[j].selfOrient) != sizeof(u08))
 804:morphology.c  **** 				return 3;
 805:morphology.c  **** 			if(file_write(&filer, sizeof(u08), &cubemorph.cubes[i].clinks[j].neighborID) != sizeof(u08))
ARM GAS  C:\DOCUME~1\TECHCO~1\LOCALS~1\Temp/ccQdbaaa.s 			page 24


 806:morphology.c  **** 				return 3;
 807:morphology.c  **** 			if(file_write(&filer, sizeof(u08), &cubemorph.cubes[i].clinks[j].neighborClass) != sizeof(u08))
 808:morphology.c  **** 				return 3;
 809:morphology.c  **** 			if(file_write(&filer, sizeof(u08), &cubemorph.cubes[i].clinks[j].neighborSide) != sizeof(u08))
 810:morphology.c  **** 				return 3;
 811:morphology.c  **** 		}
 812:morphology.c  **** 	}
 813:morphology.c  **** 	
 814:morphology.c  **** 	if(file_write(&filer, sizeof(u08), &cube_chksum) != sizeof(u08))
 815:morphology.c  **** 		return 4;
 816:morphology.c  **** 
 817:morphology.c  **** 	if(file_write(&filer, sizeof(u32), (u08*)&cubemorph.statecount) != sizeof(u32))
 818:morphology.c  **** 		return 5;
 819:morphology.c  **** 
 820:morphology.c  **** 	for(i=0; i<cubemorph.statecount; i++)
 821:morphology.c  **** 	{
 822:morphology.c  **** 		if(file_write(&filer, sizeof(u08), &cubemorph.states[i].id) != sizeof(u08))
 823:morphology.c  **** 			return 6;
 824:morphology.c  **** 		if(file_write(&filer, sizeof(u08), &cubemorph.states[i].cubeClass) != sizeof(u08))
 825:morphology.c  **** 			return 6;
 826:morphology.c  **** 		if(file_write(&filer, sizeof(u32), (u08*)&cubemorph.states[i].timestamp) != sizeof(u32))
 827:morphology.c  **** 			return 6;
 828:morphology.c  **** 		if(file_write(&filer, sizeof(u08), &cubemorph.states[i].channel) != sizeof(u08))
 829:morphology.c  **** 			return 6;
 830:morphology.c  **** 		if(file_write(&filer, sizeof(u32), (u08*)&cubemorph.states[i].value) != sizeof(u32))
 831:morphology.c  **** 			return 6;
 832:morphology.c  **** 	}
 833:morphology.c  **** 
 834:morphology.c  **** 	if(file_write(&filer, sizeof(u08), &state_chksum) != sizeof(u08))
 835:morphology.c  **** 		return 4;
 836:morphology.c  **** 
 837:morphology.c  **** 	file_fclose(&filer);
 838:morphology.c  **** 	return 0;
 839:morphology.c  **** }
 840:morphology.c  **** 
 841:morphology.c  **** int buildMorphologyFromFile(char *filename)
 842:morphology.c  **** {
 843:morphology.c  **** 	int i,j;
 844:morphology.c  **** 	u08 cube_chksum, state_chksum;
 845:morphology.c  **** 	deleteMorphology();
 846:morphology.c  **** 
 847:morphology.c  **** 	if ( file_fopen( &filer, &efs.myFs , filename , 'r' ) )
 848:morphology.c  **** 		return 1;
 849:morphology.c  **** 	
 850:morphology.c  **** 	if(file_read(&filer, sizeof(u08), &cubemorph.cubecount) != sizeof(u08))
 851:morphology.c  **** 		return 2;
 852:morphology.c  **** 	cubemorph.cubes = (MCUBE*)malloc(cubemorph.cubecount * sizeof(MCUBE));
 853:morphology.c  **** 	
 854:morphology.c  **** 	for(i=0; i<cubemorph.cubecount; i++)
 855:morphology.c  **** 	{
 856:morphology.c  **** 		if(file_read(&filer, sizeof(u08), &cubemorph.cubes[i].id) != sizeof(u08))
 857:morphology.c  **** 			return 2;
 858:morphology.c  **** 		if(file_read(&filer, sizeof(u08), &cubemorph.cubes[i].cubeclass) != sizeof(u08))
 859:morphology.c  **** 			return 2;
 860:morphology.c  **** 		if(file_read(&filer, sizeof(u08), &cubemorph.cubes[i].numlinks) != sizeof(u08))
 861:morphology.c  **** 			return 2;
 862:morphology.c  **** 		cubemorph.cubes[i].clinks = (CUBELINKS*)malloc(cubemorph.cubes[i].numlinks * sizeof(CUBELINKS));
ARM GAS  C:\DOCUME~1\TECHCO~1\LOCALS~1\Temp/ccQdbaaa.s 			page 25


 863:morphology.c  **** 
 864:morphology.c  **** 		for(j=0; j<cubemorph.cubes[i].numlinks; j++)
 865:morphology.c  **** 		{
 866:morphology.c  **** 			if(file_read(&filer, sizeof(u08), &cubemorph.cubes[i].clinks[j].selfID) != sizeof(u08))
 867:morphology.c  **** 				return 3;
 868:morphology.c  **** 			if(file_read(&filer, sizeof(u08), &cubemorph.cubes[i].clinks[j].selfClass) != sizeof(u08))
 869:morphology.c  **** 				return 3;
 870:morphology.c  **** 			if(file_read(&filer, sizeof(u08), &cubemorph.cubes[i].clinks[j].selfSide) != sizeof(u08))
 871:morphology.c  **** 				return 3;
 872:morphology.c  **** 			if(file_read(&filer, sizeof(u08), &cubemorph.cubes[i].clinks[j].selfOrient) != sizeof(u08))
 873:morphology.c  **** 				return 3;
 874:morphology.c  **** 			if(file_read(&filer, sizeof(u08), &cubemorph.cubes[i].clinks[j].neighborID) != sizeof(u08))
 875:morphology.c  **** 				return 3;
 876:morphology.c  **** 			if(file_read(&filer, sizeof(u08), &cubemorph.cubes[i].clinks[j].neighborClass) != sizeof(u08))
 877:morphology.c  **** 				return 3;
 878:morphology.c  **** 			if(file_read(&filer, sizeof(u08), &cubemorph.cubes[i].clinks[j].neighborSide) != sizeof(u08))
 879:morphology.c  **** 				return 3;
 880:morphology.c  **** 		}
 881:morphology.c  **** 	}
 882:morphology.c  **** 	
 883:morphology.c  **** 	if(file_read(&filer, sizeof(u08), &cube_chksum) != sizeof(u08))
 884:morphology.c  **** 		return 4;
 885:morphology.c  **** 
 886:morphology.c  **** 	if(file_read(&filer, sizeof(u32), (u08*)&cubemorph.statecount) != sizeof(u32))
 887:morphology.c  **** 		return 5;
 888:morphology.c  **** 	cubemorph.states = (STATEDESC*)malloc(cubemorph.statecount * sizeof(STATEDESC));
 889:morphology.c  **** 
 890:morphology.c  **** 	for(i=0; i<cubemorph.statecount; i++)
 891:morphology.c  **** 	{
 892:morphology.c  **** 		if(file_read(&filer, sizeof(u08), &cubemorph.states[i].id) != sizeof(u08))
 893:morphology.c  **** 			return 6;
 894:morphology.c  **** 		if(file_read(&filer, sizeof(u08), &cubemorph.states[i].cubeClass) != sizeof(u08))
 895:morphology.c  **** 			return 6;
 896:morphology.c  **** 		if(file_read(&filer, sizeof(u32), (u08*)&cubemorph.states[i].timestamp) != sizeof(u32))
 897:morphology.c  **** 			return 6;
 898:morphology.c  **** 		if(file_read(&filer, sizeof(u08), &cubemorph.states[i].channel) != sizeof(u08))
 899:morphology.c  **** 			return 6;
 900:morphology.c  **** 		if(file_read(&filer, sizeof(u32), (u08*)&cubemorph.states[i].value) != sizeof(u32))
 901:morphology.c  **** 			return 6;
 902:morphology.c  **** 	}
 903:morphology.c  **** 
 904:morphology.c  **** 	if(file_read(&filer, sizeof(u08), &state_chksum) != sizeof(u08))
 905:morphology.c  **** 		return 7;
 906:morphology.c  **** 
 907:morphology.c  **** 	if(cube_chksum != cube_checksum_generator() || 
 908:morphology.c  **** 		state_chksum != state_checksum_generator())
 909:morphology.c  **** 	{
 910:morphology.c  **** 		deleteMorphology();
 911:morphology.c  **** 		return 8;
 912:morphology.c  **** 	}
 913:morphology.c  **** 
 914:morphology.c  **** 	file_fclose(&filer);
 915:morphology.c  **** 
 916:morphology.c  **** 	return 0;
 917:morphology.c  **** }
 918:morphology.c  **** 
 919:morphology.c  **** void deleteMorphology(void)
ARM GAS  C:\DOCUME~1\TECHCO~1\LOCALS~1\Temp/ccQdbaaa.s 			page 26


 920:morphology.c  **** {
 921:morphology.c  **** 	int i;
 922:morphology.c  **** 	for(i=0; i<cubemorph.cubecount; i++)
 923:morphology.c  **** 		free(cubemorph.cubes[i].clinks);
 924:morphology.c  **** 	free(cubemorph.cubes);
 925:morphology.c  **** 	cubemorph.cubecount = 0;
 926:morphology.c  **** 	free(cubemorph.states);
 927:morphology.c  **** 	cubemorph.statecount = 0;
 928:morphology.c  **** }
 929:morphology.c  **** 
 930:morphology.c  **** u08 checksum_calc(void *buf, u08 size)
 931:morphology.c  **** {
 503              		.loc 1 931 0
 504              		@ args = 0, pretend = 0, frame = 0
 505              		@ frame_needed = 0, uses_anonymous_args = 0
 506              		@ link register save eliminated.
 507              	.LVL52:
 508              		@ lr needed for prologue
 509 0434 FF1001E2 		and	r1, r1, #255
 510              	.LVL53:
 932:morphology.c  **** 	int i;
 933:morphology.c  **** 	u08 sum=0;
 934:morphology.c  **** 	unsigned char *c_buf;
 935:morphology.c  **** 
 936:morphology.c  **** 	c_buf=(unsigned char *)buf;
 937:morphology.c  **** 
 938:morphology.c  **** 	for(i=0 ; i<size ; i++,c_buf++){
 511              		.loc 1 938 0
 512 0438 000051E3 		cmp	r1, #0
 513 043c 00C0A0D3 		movle	ip, #0
 514              	.LVL54:
 515 0440 170100DA 		ble	.L98
 516              		.loc 1 936 0
 517 0444 00C0A0E3 		mov	ip, #0
 518 0448 0C20A0E1 		mov	r2, ip
 519              	.LVL55:
 520              	.L99:
 521              	.LVL56:
 939:morphology.c  **** 		sum += *c_buf;
 522              		.loc 1 939 0
 523 044c 0030D2E7 		ldrb	r3, [r2, r0]	@ zero_extendqisi2
 524 0450 03308CE0 		add	r3, ip, r3
 525 0454 FFC003E2 		and	ip, r3, #255
 526              		.loc 1 938 0
 527 0458 012082E2 		add	r2, r2, #1
 528 045c 010052E1 		cmp	r2, r1
 529 0460 1101001A 		bne	.L99
 530              	.LVL57:
 531              	.L98:
 940:morphology.c  **** 	}
 941:morphology.c  **** 
 942:morphology.c  **** 	return sum;
 943:morphology.c  **** }
 532              		.loc 1 943 0
 533 0464 0C00A0E1 		mov	r0, ip
 534              	.LVL58:
 535 0468 1EFF2FE1 		bx	lr
ARM GAS  C:\DOCUME~1\TECHCO~1\LOCALS~1\Temp/ccQdbaaa.s 			page 27


 536              	.LFE29:
 537              		.size	checksum_calc, .-checksum_calc
 538              		.align	2
 539              		.global	cube_checksum_generator
 540              		.type	cube_checksum_generator, %function
 541              	cube_checksum_generator:
 542              	.LFB30:
 944:morphology.c  **** 
 945:morphology.c  **** 
 946:morphology.c  **** u08 cube_checksum_generator(void)
 947:morphology.c  **** {
 543              		.loc 1 947 0
 544              		@ args = 0, pretend = 0, frame = 0
 545              		@ frame_needed = 0, uses_anonymous_args = 0
 546 046c F0452DE9 		stmfd	sp!, {r4, r5, r6, r7, r8, sl, lr}
 547              	.LCFI6:
 948:morphology.c  **** 	u08 i, j;
 949:morphology.c  **** 	u08 sum = 0;
 950:morphology.c  **** 	sum += checksum_calc(&cubemorph.cubecount, sizeof(u08));
 548              		.loc 1 950 0
 549 0470 D4409FE5 		ldr	r4, .L112
 550 0474 0400A0E1 		mov	r0, r4
 551 0478 0110A0E3 		mov	r1, #1
 552 047c FEFFFFEB 		bl	checksum_calc
 553 0480 0050A0E1 		mov	r5, r0
 554              	.LVL59:
 951:morphology.c  **** 	
 952:morphology.c  **** 	for(i=0; i<cubemorph.cubecount; i++)
 555              		.loc 1 952 0
 556 0484 0030D4E5 		ldrb	r3, [r4, #0]	@ zero_extendqisi2
 557 0488 000053E3 		cmp	r3, #0
 558 048c 4F01000A 		beq	.L103
 559 0490 00A0A0E3 		mov	sl, #0
 560              	.LVL60:
 561 0494 0480A0E1 		mov	r8, r4
 562              	.LVL61:
 563              	.L105:
 953:morphology.c  **** 	{
 954:morphology.c  **** 		sum += checksum_calc(&cubemorph.cubes[i], 3 * sizeof(u08));
 564              		.loc 1 954 0
 565 0498 8A61A0E1 		mov	r6, sl, asl #3
 566 049c 003098E5 		ldr	r3, [r8, #0]
 567 04a0 0400D8E5 		ldrb	r0, [r8, #4]	@ zero_extendqisi2
 568 04a4 000CA0E1 		mov	r0, r0, asl #24
 569 04a8 230480E1 		orr	r0, r0, r3, lsr #8
 570 04ac 060080E0 		add	r0, r0, r6
 571 04b0 0310A0E3 		mov	r1, #3
 572 04b4 FEFFFFEB 		bl	checksum_calc
 573 04b8 050080E0 		add	r0, r0, r5
 574 04bc FF5000E2 		and	r5, r0, #255
 955:morphology.c  **** 		for(j=0; j<cubemorph.cubes[i].numlinks; j++)
 575              		.loc 1 955 0
 576 04c0 002098E5 		ldr	r2, [r8, #0]
 577 04c4 0430D8E5 		ldrb	r3, [r8, #4]	@ zero_extendqisi2
 578 04c8 033CA0E1 		mov	r3, r3, asl #24
 579 04cc 223483E1 		orr	r3, r3, r2, lsr #8
 580 04d0 032086E0 		add	r2, r6, r3
ARM GAS  C:\DOCUME~1\TECHCO~1\LOCALS~1\Temp/ccQdbaaa.s 			page 28


 581 04d4 0230D2E5 		ldrb	r3, [r2, #2]	@ zero_extendqisi2
 582 04d8 000053E3 		cmp	r3, #0
 583 04dc 4A01000A 		beq	.L106
 584 04e0 0040A0E3 		mov	r4, #0
 585 04e4 60709FE5 		ldr	r7, .L112
 586              	.L108:
 956:morphology.c  **** 		{
 957:morphology.c  **** 			sum += checksum_calc(&cubemorph.cubes[i].clinks[j], 7 * sizeof(u08));
 587              		.loc 1 957 0
 588 04e8 0300D2E5 		ldrb	r0, [r2, #3]	@ zero_extendqisi2
 589 04ec 043092E5 		ldr	r3, [r2, #4]
 590 04f0 030480E1 		orr	r0, r0, r3, asl #8
 591 04f4 840180E0 		add	r0, r0, r4, asl #3
 592 04f8 0710A0E3 		mov	r1, #7
 593 04fc FEFFFFEB 		bl	checksum_calc
 594 0500 050080E0 		add	r0, r0, r5
 595 0504 FF5000E2 		and	r5, r0, #255
 596              		.loc 1 955 0
 597 0508 013084E2 		add	r3, r4, #1
 598 050c FF4003E2 		and	r4, r3, #255
 599 0510 002097E5 		ldr	r2, [r7, #0]
 600 0514 0430D7E5 		ldrb	r3, [r7, #4]	@ zero_extendqisi2
 601 0518 033CA0E1 		mov	r3, r3, asl #24
 602 051c 223483E1 		orr	r3, r3, r2, lsr #8
 603 0520 032086E0 		add	r2, r6, r3
 604 0524 0230D2E5 		ldrb	r3, [r2, #2]	@ zero_extendqisi2
 605 0528 040053E1 		cmp	r3, r4
 606 052c 3801008A 		bhi	.L108
 607              	.L106:
 608              		.loc 1 952 0
 609 0530 01308AE2 		add	r3, sl, #1
 610 0534 FFA003E2 		and	sl, r3, #255
 611 0538 0030D8E5 		ldrb	r3, [r8, #0]	@ zero_extendqisi2
 612 053c 0A0053E1 		cmp	r3, sl
 613 0540 2401008A 		bhi	.L105
 614              	.L103:
 958:morphology.c  **** 		}
 959:morphology.c  **** 	}
 960:morphology.c  **** 
 961:morphology.c  **** 	return sum;
 962:morphology.c  **** }
 615              		.loc 1 962 0
 616 0544 0500A0E1 		mov	r0, r5
 617 0548 F085BDE8 		ldmfd	sp!, {r4, r5, r6, r7, r8, sl, pc}
 618              	.L113:
 619              		.align	2
 620              	.L112:
 621 054c 00000000 		.word	cubemorph
 622              	.LFE30:
 623              		.size	cube_checksum_generator, .-cube_checksum_generator
 624              		.align	2
 625              		.global	state_checksum_generator
 626              		.type	state_checksum_generator, %function
 627              	state_checksum_generator:
 628              	.LFB31:
 963:morphology.c  **** 
 964:morphology.c  **** u08 state_checksum_generator(void)
ARM GAS  C:\DOCUME~1\TECHCO~1\LOCALS~1\Temp/ccQdbaaa.s 			page 29


 965:morphology.c  **** {
 629              		.loc 1 965 0
 630              		@ args = 0, pretend = 0, frame = 0
 631              		@ frame_needed = 0, uses_anonymous_args = 0
 632 0550 70402DE9 		stmfd	sp!, {r4, r5, r6, lr}
 633              	.LCFI7:
 966:morphology.c  **** 	u08 i;
 967:morphology.c  **** 	u08 sum = 0;
 968:morphology.c  **** 	sum += checksum_calc(&cubemorph.statecount, 4 * sizeof(u08));
 634              		.loc 1 968 0
 635 0554 7C409FE5 		ldr	r4, .L120
 636 0558 0400A0E1 		mov	r0, r4
 637 055c 0410A0E3 		mov	r1, #4
 638 0560 FEFFFFEB 		bl	checksum_calc
 639 0564 0060A0E1 		mov	r6, r0
 640              	.LVL62:
 969:morphology.c  **** 	
 970:morphology.c  **** 	for(i=0; i<cubemorph.statecount; i++)
 641              		.loc 1 970 0
 642 0568 054044E2 		sub	r4, r4, #5
 643 056c 042094E5 		ldr	r2, [r4, #4]
 644 0570 0830D4E5 		ldrb	r3, [r4, #8]	@ zero_extendqisi2
 645 0574 033CA0E1 		mov	r3, r3, asl #24
 646 0578 223493E1 		orrs	r3, r3, r2, lsr #8
 647 057c 7201000A 		beq	.L115
 648 0580 0040A0E3 		mov	r4, #0
 649              	.LVL63:
 650 0584 50509FE5 		ldr	r5, .L120+4
 651              	.L117:
 971:morphology.c  **** 	{
 972:morphology.c  **** 		sum += checksum_calc(&cubemorph.states[i], 11 * sizeof(u08));
 652              		.loc 1 972 0
 653 0588 083095E5 		ldr	r3, [r5, #8]
 654 058c 0C00D5E5 		ldrb	r0, [r5, #12]	@ zero_extendqisi2
 655 0590 000CA0E1 		mov	r0, r0, asl #24
 656 0594 230480E1 		orr	r0, r0, r3, lsr #8
 657 0598 843084E0 		add	r3, r4, r4, asl #1
 658 059c 030180E0 		add	r0, r0, r3, asl #2
 659 05a0 0B10A0E3 		mov	r1, #11
 660 05a4 FEFFFFEB 		bl	checksum_calc
 661 05a8 060080E0 		add	r0, r0, r6
 662 05ac FF6000E2 		and	r6, r0, #255
 663              		.loc 1 970 0
 664 05b0 013084E2 		add	r3, r4, #1
 665 05b4 FF4003E2 		and	r4, r3, #255
 666 05b8 042095E5 		ldr	r2, [r5, #4]
 667 05bc 0830D5E5 		ldrb	r3, [r5, #8]	@ zero_extendqisi2
 668 05c0 033CA0E1 		mov	r3, r3, asl #24
 669 05c4 223483E1 		orr	r3, r3, r2, lsr #8
 670 05c8 030054E1 		cmp	r4, r3
 671 05cc 6001003A 		bcc	.L117
 672              	.L115:
 973:morphology.c  **** 	}
 974:morphology.c  **** 
 975:morphology.c  **** 	return sum;
 976:morphology.c  **** }
 673              		.loc 1 976 0
ARM GAS  C:\DOCUME~1\TECHCO~1\LOCALS~1\Temp/ccQdbaaa.s 			page 30


 674 05d0 0600A0E1 		mov	r0, r6
 675 05d4 7080BDE8 		ldmfd	sp!, {r4, r5, r6, pc}
 676              	.L121:
 677              		.align	2
 678              	.L120:
 679 05d8 05000000 		.word	cubemorph+5
 680 05dc 00000000 		.word	cubemorph
 681              	.LFE31:
 682              		.size	state_checksum_generator, .-state_checksum_generator
 683              		.section	.rodata.str1.4,"aMS",%progbits,1
 684              		.align	2
 685              	.LC0:
 686 0000 4F524945 		.ascii	"ORIENTATION_NOERROR\012\015\000"
 686      4E544154 
 686      494F4E5F 
 686      4E4F4552 
 686      524F520A 
 687 0016 0000     		.align	2
 688              	.LC1:
 689 0018 4F524945 		.ascii	"ORIENTATION_ERROR_CANNOT_SET_PIN\012\015\000"
 689      4E544154 
 689      494F4E5F 
 689      4552524F 
 689      525F4341 
 690 003b 00       		.align	2
 691              	.LC2:
 692 003c 4F524945 		.ascii	"ORIENTATION_ERROR_ON_TARGET_CUBE\012\015\000"
 692      4E544154 
 692      494F4E5F 
 692      4552524F 
 692      525F4F4E 
 693 005f 00       		.align	2
 694              	.LC3:
 695 0060 4F524945 		.ascii	"ORIENTATION_ERROR_TIMEOUT\012\015\000"
 695      4E544154 
 695      494F4E5F 
 695      4552524F 
 695      525F5449 
 696              		.align	2
 697              	.LC4:
 698 007c 4F524945 		.ascii	"ORIENTATION_ERROR_PARAMETERS\012\015\000"
 698      4E544154 
 698      494F4E5F 
 698      4552524F 
 698      525F5041 
 699 009b 00       		.align	2
 700              	.LC5:
 701 009c 4F524945 		.ascii	"ORIENTATION_ERROR_MEM_ALLOC\012\015\000"
 701      4E544154 
 701      494F4E5F 
 701      4552524F 
 701      525F4D45 
 702 00ba 0000     		.align	2
 703              	.LC6:
 704 00bc 4F524945 		.ascii	"ORIENTATION_ERROR_INVALID_PIN_COMBO\012\015\000"
 704      4E544154 
 704      494F4E5F 
ARM GAS  C:\DOCUME~1\TECHCO~1\LOCALS~1\Temp/ccQdbaaa.s 			page 31


 704      4552524F 
 704      525F494E 
 705 00e2 0000     		.align	2
 706              	.LC7:
 707 00e4 4F524945 		.ascii	"ORIENTATION_NO_DEVICE_FOUND\012\015\000"
 707      4E544154 
 707      494F4E5F 
 707      4E4F5F44 
 707      45564943 
 708 0102 0000     		.align	2
 709              	.LC8:
 710 0104 4F524945 		.ascii	"ORIENTATION_NO_LINK_FOUND\012\015\000"
 710      4E544154 
 710      494F4E5F 
 710      4E4F5F4C 
 710      494E4B5F 
 711              		.align	2
 712              	.LC9:
 713 0120 4F524945 		.ascii	"ORIENTATION_ERROR_DUPLICATE_CUBE_LINK\012\015\000"
 713      4E544154 
 713      494F4E5F 
 713      4552524F 
 713      525F4455 
 714              		.align	2
 715              	.LC10:
 716 0148 4F524945 		.ascii	"ORIENTATION_ERROR_DUPLICATE_CUBE\012\015\000"
 716      4E544154 
 716      494F4E5F 
 716      4552524F 
 716      525F4455 
 717 016b 00       		.align	2
 718              	.LC11:
 719 016c 4F524945 		.ascii	"ORIENTATION_ERROR_CANNOT_CREATE_CUBE\012\015\000"
 719      4E544154 
 719      494F4E5F 
 719      4552524F 
 719      525F4341 
 720 0193 00       		.align	2
 721              	.LC12:
 722 0194 4F524945 		.ascii	"ORIENTATION_NO_STATE_FOUND\012\015\000"
 722      4E544154 
 722      494F4E5F 
 722      4E4F5F53 
 722      54415445 
 723 01b1 000000   		.align	2
 724              	.LC13:
 725 01b4 4F524945 		.ascii	"ORIENTATION_ERROR_DUPLICATE_STATE\012\015\000"
 725      4E544154 
 725      494F4E5F 
 725      4552524F 
 725      525F4455 
 726              		.align	2
 727              	.LC14:
 728 01d8 4F524945 		.ascii	"ORIENTATION_ERROR_CANNOT_SET_STATE\012\015\000"
 728      4E544154 
 728      494F4E5F 
 728      4552524F 
ARM GAS  C:\DOCUME~1\TECHCO~1\LOCALS~1\Temp/ccQdbaaa.s 			page 32


 728      525F4341 
 729 01fd 000000   		.align	2
 730              	.LC15:
 731 0200 4F524945 		.ascii	"ORIENTATION_UNKNOWN_CLASS\012\015\000"
 731      4E544154 
 731      494F4E5F 
 731      554E4B4E 
 731      4F574E5F 
 732              		.align	2
 733              	.LC16:
 734 021c 4F524945 		.ascii	"ORIENTATION_SIDE_NOT_PRESENT\012\015\000"
 734      4E544154 
 734      494F4E5F 
 734      53494445 
 734      5F4E4F54 
 735 023b 00       		.align	2
 736              	.LC17:
 737 023c 4F524945 		.ascii	"ORIENTATION - UNKNOWN ERROR CODE\012\015\000"
 737      4E544154 
 737      494F4E20 
 737      2D20554E 
 737      4B4E4F57 
 738              		.text
 739              		.align	2
 740              		.global	printOrientationErrorCode
 741              		.type	printOrientationErrorCode, %function
 742              	printOrientationErrorCode:
 743              	.LFB32:
 977:morphology.c  **** 
 978:morphology.c  **** void printOrientationErrorCode(int code)
 979:morphology.c  **** {
 744              		.loc 1 979 0
 745              		@ args = 0, pretend = 0, frame = 0
 746              		@ frame_needed = 0, uses_anonymous_args = 0
 747              	.LVL64:
 748 05e0 04E02DE5 		str	lr, [sp, #-4]!
 749              	.LCFI8:
 980:morphology.c  **** 	switch(code) {
 750              		.loc 1 980 0
 751 05e4 100050E3 		cmp	r0, #16
 752 05e8 00F19F97 		ldrls	pc, [pc, r0, asl #2]
 753 05ec CF0100EA 		b	.L123
 754              		.p2align 2
 755              	.L141:
 756 05f0 34060000 		.word	.L124
 757 05f4 44060000 		.word	.L125
 758 05f8 54060000 		.word	.L126
 759 05fc 64060000 		.word	.L127
 760 0600 74060000 		.word	.L128
 761 0604 84060000 		.word	.L129
 762 0608 94060000 		.word	.L130
 763 060c A4060000 		.word	.L131
 764 0610 B4060000 		.word	.L132
 765 0614 C4060000 		.word	.L133
 766 0618 D4060000 		.word	.L134
 767 061c E4060000 		.word	.L135
 768 0620 F4060000 		.word	.L136
ARM GAS  C:\DOCUME~1\TECHCO~1\LOCALS~1\Temp/ccQdbaaa.s 			page 33


 769 0624 04070000 		.word	.L137
 770 0628 14070000 		.word	.L138
 771 062c 24070000 		.word	.L139
 772 0630 34070000 		.word	.L140
 773              	.L124:
 981:morphology.c  **** 		case ORIENTATION_NOERROR:
 982:morphology.c  **** 			rprintf("ORIENTATION_NOERROR\n\r"); 
 774              		.loc 1 982 0
 775 0634 0000A0E3 		mov	r0, #0
 776              	.LVL65:
 777 0638 14119FE5 		ldr	r1, .L144
 778 063c FEFFFFEB 		bl	rprintf1RamRom
 779 0640 04F09DE4 		ldr	pc, [sp], #4
 780              	.LVL66:
 781              	.L125:
 983:morphology.c  **** 			break;
 984:morphology.c  **** 		case ORIENTATION_ERROR_CANNOT_SET_PIN:
 985:morphology.c  **** 			rprintf("ORIENTATION_ERROR_CANNOT_SET_PIN\n\r"); 
 782              		.loc 1 985 0
 783 0644 0000A0E3 		mov	r0, #0
 784              	.LVL67:
 785 0648 08119FE5 		ldr	r1, .L144+4
 786 064c FEFFFFEB 		bl	rprintf1RamRom
 787 0650 04F09DE4 		ldr	pc, [sp], #4
 788              	.LVL68:
 789              	.L126:
 986:morphology.c  **** 			break;
 987:morphology.c  **** 		case ORIENTATION_ERROR_ON_TARGET_CUBE:
 988:morphology.c  **** 			rprintf("ORIENTATION_ERROR_ON_TARGET_CUBE\n\r"); 
 790              		.loc 1 988 0
 791 0654 0000A0E3 		mov	r0, #0
 792              	.LVL69:
 793 0658 FC109FE5 		ldr	r1, .L144+8
 794 065c FEFFFFEB 		bl	rprintf1RamRom
 795 0660 04F09DE4 		ldr	pc, [sp], #4
 796              	.LVL70:
 797              	.L127:
 989:morphology.c  **** 			break;
 990:morphology.c  **** 		case ORIENTATION_ERROR_TIMEOUT:
 991:morphology.c  **** 			rprintf("ORIENTATION_ERROR_TIMEOUT\n\r"); 
 798              		.loc 1 991 0
 799 0664 0000A0E3 		mov	r0, #0
 800              	.LVL71:
 801 0668 F0109FE5 		ldr	r1, .L144+12
 802 066c FEFFFFEB 		bl	rprintf1RamRom
 803 0670 04F09DE4 		ldr	pc, [sp], #4
 804              	.LVL72:
 805              	.L128:
 992:morphology.c  **** 			break;
 993:morphology.c  **** 		case ORIENTATION_ERROR_PARAMETERS:
 994:morphology.c  **** 			rprintf("ORIENTATION_ERROR_PARAMETERS\n\r"); 
 806              		.loc 1 994 0
 807 0674 0000A0E3 		mov	r0, #0
 808              	.LVL73:
 809 0678 E4109FE5 		ldr	r1, .L144+16
 810 067c FEFFFFEB 		bl	rprintf1RamRom
 811 0680 04F09DE4 		ldr	pc, [sp], #4
ARM GAS  C:\DOCUME~1\TECHCO~1\LOCALS~1\Temp/ccQdbaaa.s 			page 34


 812              	.LVL74:
 813              	.L129:
 995:morphology.c  **** 			break;
 996:morphology.c  **** 		case ORIENTATION_ERROR_MEM_ALLOC:
 997:morphology.c  **** 			rprintf("ORIENTATION_ERROR_MEM_ALLOC\n\r"); 
 814              		.loc 1 997 0
 815 0684 0000A0E3 		mov	r0, #0
 816              	.LVL75:
 817 0688 D8109FE5 		ldr	r1, .L144+20
 818 068c FEFFFFEB 		bl	rprintf1RamRom
 819 0690 04F09DE4 		ldr	pc, [sp], #4
 820              	.LVL76:
 821              	.L130:
 998:morphology.c  **** 			break;
 999:morphology.c  **** 		case ORIENTATION_ERROR_INVALID_PIN_COMBO:
1000:morphology.c  **** 			rprintf("ORIENTATION_ERROR_INVALID_PIN_COMBO\n\r"); 
 822              		.loc 1 1000 0
 823 0694 0000A0E3 		mov	r0, #0
 824              	.LVL77:
 825 0698 CC109FE5 		ldr	r1, .L144+24
 826 069c FEFFFFEB 		bl	rprintf1RamRom
 827 06a0 04F09DE4 		ldr	pc, [sp], #4
 828              	.LVL78:
 829              	.L131:
1001:morphology.c  **** 			break;
1002:morphology.c  **** 		case ORIENTATION_NO_DEVICE_FOUND:
1003:morphology.c  **** 			rprintf("ORIENTATION_NO_DEVICE_FOUND\n\r"); 
 830              		.loc 1 1003 0
 831 06a4 0000A0E3 		mov	r0, #0
 832              	.LVL79:
 833 06a8 C0109FE5 		ldr	r1, .L144+28
 834 06ac FEFFFFEB 		bl	rprintf1RamRom
 835 06b0 04F09DE4 		ldr	pc, [sp], #4
 836              	.LVL80:
 837              	.L132:
1004:morphology.c  **** 			break;
1005:morphology.c  **** 		case ORIENTATION_NO_LINK_FOUND:
1006:morphology.c  **** 			rprintf("ORIENTATION_NO_LINK_FOUND\n\r"); 
 838              		.loc 1 1006 0
 839 06b4 0000A0E3 		mov	r0, #0
 840              	.LVL81:
 841 06b8 B4109FE5 		ldr	r1, .L144+32
 842 06bc FEFFFFEB 		bl	rprintf1RamRom
 843 06c0 04F09DE4 		ldr	pc, [sp], #4
 844              	.LVL82:
 845              	.L133:
1007:morphology.c  **** 			break;
1008:morphology.c  **** 		case ORIENTATION_ERROR_DUPLICATE_CUBE_LINK:
1009:morphology.c  **** 			rprintf("ORIENTATION_ERROR_DUPLICATE_CUBE_LINK\n\r"); 
 846              		.loc 1 1009 0
 847 06c4 0000A0E3 		mov	r0, #0
 848              	.LVL83:
 849 06c8 A8109FE5 		ldr	r1, .L144+36
 850 06cc FEFFFFEB 		bl	rprintf1RamRom
 851 06d0 04F09DE4 		ldr	pc, [sp], #4
 852              	.LVL84:
 853              	.L134:
ARM GAS  C:\DOCUME~1\TECHCO~1\LOCALS~1\Temp/ccQdbaaa.s 			page 35


1010:morphology.c  **** 			break;
1011:morphology.c  **** 		case ORIENTATION_ERROR_DUPLICATE_CUBE:
1012:morphology.c  **** 			rprintf("ORIENTATION_ERROR_DUPLICATE_CUBE\n\r"); 
 854              		.loc 1 1012 0
 855 06d4 0000A0E3 		mov	r0, #0
 856              	.LVL85:
 857 06d8 9C109FE5 		ldr	r1, .L144+40
 858 06dc FEFFFFEB 		bl	rprintf1RamRom
 859 06e0 04F09DE4 		ldr	pc, [sp], #4
 860              	.LVL86:
 861              	.L135:
1013:morphology.c  **** 			break;
1014:morphology.c  **** 		case ORIENTATION_ERROR_CANNOT_CREATE_CUBE:
1015:morphology.c  **** 			rprintf("ORIENTATION_ERROR_CANNOT_CREATE_CUBE\n\r"); 
 862              		.loc 1 1015 0
 863 06e4 0000A0E3 		mov	r0, #0
 864              	.LVL87:
 865 06e8 90109FE5 		ldr	r1, .L144+44
 866 06ec FEFFFFEB 		bl	rprintf1RamRom
 867 06f0 04F09DE4 		ldr	pc, [sp], #4
 868              	.LVL88:
 869              	.L136:
1016:morphology.c  **** 			break;
1017:morphology.c  **** 		case ORIENTATION_NO_STATE_FOUND:
1018:morphology.c  **** 			rprintf("ORIENTATION_NO_STATE_FOUND\n\r"); 
 870              		.loc 1 1018 0
 871 06f4 0000A0E3 		mov	r0, #0
 872              	.LVL89:
 873 06f8 84109FE5 		ldr	r1, .L144+48
 874 06fc FEFFFFEB 		bl	rprintf1RamRom
 875 0700 04F09DE4 		ldr	pc, [sp], #4
 876              	.LVL90:
 877              	.L137:
1019:morphology.c  **** 			break;
1020:morphology.c  **** 		case ORIENTATION_ERROR_DUPLICATE_STATE:
1021:morphology.c  **** 			rprintf("ORIENTATION_ERROR_DUPLICATE_STATE\n\r"); 
 878              		.loc 1 1021 0
 879 0704 0000A0E3 		mov	r0, #0
 880              	.LVL91:
 881 0708 78109FE5 		ldr	r1, .L144+52
 882 070c FEFFFFEB 		bl	rprintf1RamRom
 883 0710 04F09DE4 		ldr	pc, [sp], #4
 884              	.LVL92:
 885              	.L138:
1022:morphology.c  **** 			break;
1023:morphology.c  **** 		case ORIENTATION_ERROR_CANNOT_SET_STATE:
1024:morphology.c  **** 			rprintf("ORIENTATION_ERROR_CANNOT_SET_STATE\n\r"); 
 886              		.loc 1 1024 0
 887 0714 0000A0E3 		mov	r0, #0
 888              	.LVL93:
 889 0718 6C109FE5 		ldr	r1, .L144+56
 890 071c FEFFFFEB 		bl	rprintf1RamRom
 891 0720 04F09DE4 		ldr	pc, [sp], #4
 892              	.LVL94:
 893              	.L139:
1025:morphology.c  **** 			break;
1026:morphology.c  **** 		case ORIENTATION_UNKNOWN_CLASS:
ARM GAS  C:\DOCUME~1\TECHCO~1\LOCALS~1\Temp/ccQdbaaa.s 			page 36


1027:morphology.c  **** 			rprintf("ORIENTATION_UNKNOWN_CLASS\n\r"); 
 894              		.loc 1 1027 0
 895 0724 0000A0E3 		mov	r0, #0
 896              	.LVL95:
 897 0728 60109FE5 		ldr	r1, .L144+60
 898 072c FEFFFFEB 		bl	rprintf1RamRom
 899 0730 04F09DE4 		ldr	pc, [sp], #4
 900              	.LVL96:
 901              	.L140:
1028:morphology.c  **** 			break;
1029:morphology.c  **** 		case ORIENTATION_SIDE_NOT_PRESENT:
1030:morphology.c  **** 			rprintf("ORIENTATION_SIDE_NOT_PRESENT\n\r"); 
 902              		.loc 1 1030 0
 903 0734 0000A0E3 		mov	r0, #0
 904              	.LVL97:
 905 0738 54109FE5 		ldr	r1, .L144+64
 906 073c FEFFFFEB 		bl	rprintf1RamRom
 907 0740 04F09DE4 		ldr	pc, [sp], #4
 908              	.LVL98:
 909              	.L123:
1031:morphology.c  **** 			break;
1032:morphology.c  **** 		default:
1033:morphology.c  **** 			rprintf("ORIENTATION - UNKNOWN ERROR CODE\n\r");
 910              		.loc 1 1033 0
 911 0744 0000A0E3 		mov	r0, #0
 912              	.LVL99:
 913 0748 48109FE5 		ldr	r1, .L144+68
 914 074c FEFFFFEB 		bl	rprintf1RamRom
 915 0750 04F09DE4 		ldr	pc, [sp], #4
 916              	.L145:
 917              		.align	2
 918              	.L144:
 919 0754 00000000 		.word	.LC0
 920 0758 18000000 		.word	.LC1
 921 075c 3C000000 		.word	.LC2
 922 0760 60000000 		.word	.LC3
 923 0764 7C000000 		.word	.LC4
 924 0768 9C000000 		.word	.LC5
 925 076c BC000000 		.word	.LC6
 926 0770 E4000000 		.word	.LC7
 927 0774 04010000 		.word	.LC8
 928 0778 20010000 		.word	.LC9
 929 077c 48010000 		.word	.LC10
 930 0780 6C010000 		.word	.LC11
 931 0784 94010000 		.word	.LC12
 932 0788 B4010000 		.word	.LC13
 933 078c D8010000 		.word	.LC14
 934 0790 00020000 		.word	.LC15
 935 0794 1C020000 		.word	.LC16
 936 0798 3C020000 		.word	.LC17
 937              	.LFE32:
 938              		.size	printOrientationErrorCode, .-printOrientationErrorCode
 939              		.align	2
 940              		.global	deleteMorphology
 941              		.type	deleteMorphology, %function
 942              	deleteMorphology:
 943              	.LFB28:
ARM GAS  C:\DOCUME~1\TECHCO~1\LOCALS~1\Temp/ccQdbaaa.s 			page 37


 944              		.loc 1 920 0
 945              		@ args = 0, pretend = 0, frame = 0
 946              		@ frame_needed = 0, uses_anonymous_args = 0
 947 079c 30402DE9 		stmfd	sp!, {r4, r5, lr}
 948              	.LCFI9:
 949              		.loc 1 922 0
 950 07a0 88309FE5 		ldr	r3, .L152
 951 07a4 0030D3E5 		ldrb	r3, [r3, #0]	@ zero_extendqisi2
 952 07a8 000053E3 		cmp	r3, #0
 953 07ac F90100DA 		ble	.L147
 954 07b0 0040A0E3 		mov	r4, #0
 955              	.LVL100:
 956 07b4 74509FE5 		ldr	r5, .L152
 957              	.L149:
 958              		.loc 1 923 0
 959 07b8 002095E5 		ldr	r2, [r5, #0]
 960 07bc 0430D5E5 		ldrb	r3, [r5, #4]	@ zero_extendqisi2
 961 07c0 033CA0E1 		mov	r3, r3, asl #24
 962 07c4 223483E1 		orr	r3, r3, r2, lsr #8
 963 07c8 843183E0 		add	r3, r3, r4, asl #3
 964 07cc 0320D3E5 		ldrb	r2, [r3, #3]	@ zero_extendqisi2
 965 07d0 040093E5 		ldr	r0, [r3, #4]
 966 07d4 000482E1 		orr	r0, r2, r0, asl #8
 967 07d8 FEFFFFEB 		bl	free
 968              		.loc 1 922 0
 969 07dc 014084E2 		add	r4, r4, #1
 970 07e0 0030D5E5 		ldrb	r3, [r5, #0]	@ zero_extendqisi2
 971 07e4 040053E1 		cmp	r3, r4
 972 07e8 EC0100CA 		bgt	.L149
 973              	.L147:
 974              		.loc 1 924 0
 975 07ec 3C409FE5 		ldr	r4, .L152
 976              	.LVL101:
 977 07f0 003094E5 		ldr	r3, [r4, #0]
 978 07f4 0400D4E5 		ldrb	r0, [r4, #4]	@ zero_extendqisi2
 979 07f8 000CA0E1 		mov	r0, r0, asl #24
 980 07fc 230480E1 		orr	r0, r0, r3, lsr #8
 981 0800 FEFFFFEB 		bl	free
 982              		.loc 1 925 0
 983 0804 0050A0E3 		mov	r5, #0
 984 0808 0050C4E5 		strb	r5, [r4, #0]
 985              		.loc 1 926 0
 986 080c 083094E5 		ldr	r3, [r4, #8]
 987 0810 0C00D4E5 		ldrb	r0, [r4, #12]	@ zero_extendqisi2
 988 0814 000CA0E1 		mov	r0, r0, asl #24
 989 0818 230480E1 		orr	r0, r0, r3, lsr #8
 990 081c FEFFFFEB 		bl	free
 991              		.loc 1 927 0
 992 0820 0430D4E5 		ldrb	r3, [r4, #4]	@ zero_extendqisi2
 993 0824 043084E5 		str	r3, [r4, #4]
 994 0828 0850C4E5 		strb	r5, [r4, #8]
 995              		.loc 1 928 0
 996 082c 3080BDE8 		ldmfd	sp!, {r4, r5, pc}
 997              	.L153:
 998              		.align	2
 999              	.L152:
 1000 0830 00000000 		.word	cubemorph
ARM GAS  C:\DOCUME~1\TECHCO~1\LOCALS~1\Temp/ccQdbaaa.s 			page 38


 1001              	.LFE28:
 1002              		.size	deleteMorphology, .-deleteMorphology
 1003              		.align	2
 1004              		.global	buildMorphologyFromFile
 1005              		.type	buildMorphologyFromFile, %function
 1006              	buildMorphologyFromFile:
 1007              	.LFB27:
 1008              		.loc 1 842 0
 1009              		@ args = 0, pretend = 0, frame = 4
 1010              		@ frame_needed = 0, uses_anonymous_args = 0
 1011              	.LVL102:
 1012 0834 F04F2DE9 		stmfd	sp!, {r4, r5, r6, r7, r8, r9, sl, fp, lr}
 1013              	.LCFI10:
 1014 0838 04D04DE2 		sub	sp, sp, #4
 1015              	.LCFI11:
 1016 083c 0040A0E1 		mov	r4, r0
 1017              		.loc 1 845 0
 1018 0840 FEFFFFEB 		bl	deleteMorphology
 1019              	.LVL103:
 1020              		.loc 1 847 0
 1021 0844 14059FE5 		ldr	r0, .L199
 1022 0848 14159FE5 		ldr	r1, .L199+4
 1023 084c 0420A0E1 		mov	r2, r4
 1024 0850 7230A0E3 		mov	r3, #114
 1025 0854 FEFFFFEB 		bl	file_fopen
 1026 0858 FF0010E3 		tst	r0, #255
 1027 085c 0100A013 		movne	r0, #1
 1028 0860 5403001A 		bne	.L157
 1029              		.loc 1 850 0
 1030 0864 FC449FE5 		ldr	r4, .L199+8
 1031              	.LVL104:
 1032 0868 F0049FE5 		ldr	r0, .L199
 1033 086c 0110A0E3 		mov	r1, #1
 1034 0870 0420A0E1 		mov	r2, r4
 1035 0874 FEFFFFEB 		bl	file_read
 1036 0878 010050E3 		cmp	r0, #1
 1037 087c 4F03001A 		bne	.L158
 1038              		.loc 1 852 0
 1039 0880 0000D4E5 		ldrb	r0, [r4, #0]	@ zero_extendqisi2
 1040 0884 8001A0E1 		mov	r0, r0, asl #3
 1041 0888 FEFFFFEB 		bl	malloc
 1042 088c 0030D4E5 		ldrb	r3, [r4, #0]	@ zero_extendqisi2
 1043 0890 003483E1 		orr	r3, r3, r0, asl #8
 1044 0894 003084E5 		str	r3, [r4, #0]
 1045 0898 200CA0E1 		mov	r0, r0, lsr #24
 1046 089c 0400C4E5 		strb	r0, [r4, #4]
 1047              		.loc 1 854 0
 1048 08a0 0030D4E5 		ldrb	r3, [r4, #0]	@ zero_extendqisi2
 1049 08a4 000053E3 		cmp	r3, #0
 1050 08a8 D60200DA 		ble	.L160
 1051 08ac 00B0A0E3 		mov	fp, #0
 1052              	.LVL105:
 1053 08b0 A8949FE5 		ldr	r9, .L199
 1054 08b4 04A0A0E1 		mov	sl, r4
 1055              	.LVL106:
 1056              	.L162:
 1057 08b8 8B61A0E1 		mov	r6, fp, asl #3
ARM GAS  C:\DOCUME~1\TECHCO~1\LOCALS~1\Temp/ccQdbaaa.s 			page 39


 1058              		.loc 1 856 0
 1059 08bc 00309AE5 		ldr	r3, [sl, #0]
 1060 08c0 0420DAE5 		ldrb	r2, [sl, #4]	@ zero_extendqisi2
 1061 08c4 022CA0E1 		mov	r2, r2, asl #24
 1062 08c8 232482E1 		orr	r2, r2, r3, lsr #8
 1063 08cc 0900A0E1 		mov	r0, r9
 1064 08d0 0110A0E3 		mov	r1, #1
 1065 08d4 062082E0 		add	r2, r2, r6
 1066 08d8 FEFFFFEB 		bl	file_read
 1067 08dc 0010A0E1 		mov	r1, r0
 1068 08e0 010050E3 		cmp	r0, #1
 1069 08e4 4F03001A 		bne	.L158
 1070              		.loc 1 858 0
 1071 08e8 00309AE5 		ldr	r3, [sl, #0]
 1072 08ec 0420DAE5 		ldrb	r2, [sl, #4]	@ zero_extendqisi2
 1073 08f0 022CA0E1 		mov	r2, r2, asl #24
 1074 08f4 232482E1 		orr	r2, r2, r3, lsr #8
 1075 08f8 062082E0 		add	r2, r2, r6
 1076 08fc 0900A0E1 		mov	r0, r9
 1077 0900 012082E2 		add	r2, r2, #1
 1078 0904 FEFFFFEB 		bl	file_read
 1079 0908 0010A0E1 		mov	r1, r0
 1080 090c 010050E3 		cmp	r0, #1
 1081 0910 4F03001A 		bne	.L158
 1082              		.loc 1 860 0
 1083 0914 00309AE5 		ldr	r3, [sl, #0]
 1084 0918 0420DAE5 		ldrb	r2, [sl, #4]	@ zero_extendqisi2
 1085 091c 022CA0E1 		mov	r2, r2, asl #24
 1086 0920 232482E1 		orr	r2, r2, r3, lsr #8
 1087 0924 062082E0 		add	r2, r2, r6
 1088 0928 0900A0E1 		mov	r0, r9
 1089 092c 022082E2 		add	r2, r2, #2
 1090 0930 FEFFFFEB 		bl	file_read
 1091 0934 010050E3 		cmp	r0, #1
 1092 0938 4F03001A 		bne	.L158
 1093              		.loc 1 862 0
 1094 093c 00309AE5 		ldr	r3, [sl, #0]
 1095 0940 0440DAE5 		ldrb	r4, [sl, #4]	@ zero_extendqisi2
 1096 0944 044CA0E1 		mov	r4, r4, asl #24
 1097 0948 234484E1 		orr	r4, r4, r3, lsr #8
 1098 094c 064084E0 		add	r4, r4, r6
 1099 0950 0200D4E5 		ldrb	r0, [r4, #2]	@ zero_extendqisi2
 1100 0954 8001A0E1 		mov	r0, r0, asl #3
 1101 0958 FEFFFFEB 		bl	malloc
 1102 095c 0300C4E5 		strb	r0, [r4, #3]
 1103 0960 043094E5 		ldr	r3, [r4, #4]
 1104 0964 FF3403E2 		and	r3, r3, #-16777216
 1105 0968 203483E1 		orr	r3, r3, r0, lsr #8
 1106 096c 043084E5 		str	r3, [r4, #4]
 1107              		.loc 1 864 0
 1108 0970 00209AE5 		ldr	r2, [sl, #0]
 1109 0974 0430DAE5 		ldrb	r3, [sl, #4]	@ zero_extendqisi2
 1110 0978 033CA0E1 		mov	r3, r3, asl #24
 1111 097c 223483E1 		orr	r3, r3, r2, lsr #8
 1112 0980 061083E0 		add	r1, r3, r6
 1113 0984 0230D1E5 		ldrb	r3, [r1, #2]	@ zero_extendqisi2
 1114 0988 000053E3 		cmp	r3, #0
ARM GAS  C:\DOCUME~1\TECHCO~1\LOCALS~1\Temp/ccQdbaaa.s 			page 40


 1115 098c D20200DA 		ble	.L166
 1116 0990 0080A0E3 		mov	r8, #0
 1117 0994 C4739FE5 		ldr	r7, .L199
 1118              	.L168:
 1119 0998 8841A0E1 		mov	r4, r8, asl #3
 1120              		.loc 1 866 0
 1121 099c 0320D1E5 		ldrb	r2, [r1, #3]	@ zero_extendqisi2
 1122 09a0 043091E5 		ldr	r3, [r1, #4]
 1123 09a4 032482E1 		orr	r2, r2, r3, asl #8
 1124 09a8 0700A0E1 		mov	r0, r7
 1125 09ac 0110A0E3 		mov	r1, #1
 1126 09b0 042082E0 		add	r2, r2, r4
 1127 09b4 FEFFFFEB 		bl	file_read
 1128 09b8 0010A0E1 		mov	r1, r0
 1129 09bc 010050E3 		cmp	r0, #1
 1130 09c0 5103001A 		bne	.L169
 1131              		.loc 1 868 0
 1132 09c4 9C539FE5 		ldr	r5, .L199+8
 1133 09c8 002095E5 		ldr	r2, [r5, #0]
 1134 09cc 0430D5E5 		ldrb	r3, [r5, #4]	@ zero_extendqisi2
 1135 09d0 033CA0E1 		mov	r3, r3, asl #24
 1136 09d4 223483E1 		orr	r3, r3, r2, lsr #8
 1137 09d8 063083E0 		add	r3, r3, r6
 1138 09dc 0320D3E5 		ldrb	r2, [r3, #3]	@ zero_extendqisi2
 1139 09e0 043093E5 		ldr	r3, [r3, #4]
 1140 09e4 032482E1 		orr	r2, r2, r3, asl #8
 1141 09e8 042082E0 		add	r2, r2, r4
 1142 09ec 0700A0E1 		mov	r0, r7
 1143 09f0 012082E2 		add	r2, r2, #1
 1144 09f4 FEFFFFEB 		bl	file_read
 1145 09f8 0010A0E1 		mov	r1, r0
 1146 09fc 010050E3 		cmp	r0, #1
 1147 0a00 5103001A 		bne	.L169
 1148              		.loc 1 870 0
 1149 0a04 002095E5 		ldr	r2, [r5, #0]
 1150 0a08 0430D5E5 		ldrb	r3, [r5, #4]	@ zero_extendqisi2
 1151 0a0c 033CA0E1 		mov	r3, r3, asl #24
 1152 0a10 223483E1 		orr	r3, r3, r2, lsr #8
 1153 0a14 063083E0 		add	r3, r3, r6
 1154 0a18 0320D3E5 		ldrb	r2, [r3, #3]	@ zero_extendqisi2
 1155 0a1c 043093E5 		ldr	r3, [r3, #4]
 1156 0a20 032482E1 		orr	r2, r2, r3, asl #8
 1157 0a24 042082E0 		add	r2, r2, r4
 1158 0a28 0700A0E1 		mov	r0, r7
 1159 0a2c 022082E2 		add	r2, r2, #2
 1160 0a30 FEFFFFEB 		bl	file_read
 1161 0a34 0010A0E1 		mov	r1, r0
 1162 0a38 010050E3 		cmp	r0, #1
 1163 0a3c 5103001A 		bne	.L169
 1164              		.loc 1 872 0
 1165 0a40 002095E5 		ldr	r2, [r5, #0]
 1166 0a44 0430D5E5 		ldrb	r3, [r5, #4]	@ zero_extendqisi2
 1167 0a48 033CA0E1 		mov	r3, r3, asl #24
 1168 0a4c 223483E1 		orr	r3, r3, r2, lsr #8
 1169 0a50 063083E0 		add	r3, r3, r6
 1170 0a54 0320D3E5 		ldrb	r2, [r3, #3]	@ zero_extendqisi2
 1171 0a58 043093E5 		ldr	r3, [r3, #4]
ARM GAS  C:\DOCUME~1\TECHCO~1\LOCALS~1\Temp/ccQdbaaa.s 			page 41


 1172 0a5c 032482E1 		orr	r2, r2, r3, asl #8
 1173 0a60 042082E0 		add	r2, r2, r4
 1174 0a64 0700A0E1 		mov	r0, r7
 1175 0a68 032082E2 		add	r2, r2, #3
 1176 0a6c FEFFFFEB 		bl	file_read
 1177 0a70 0010A0E1 		mov	r1, r0
 1178 0a74 010050E3 		cmp	r0, #1
 1179 0a78 5103001A 		bne	.L169
 1180              		.loc 1 874 0
 1181 0a7c 002095E5 		ldr	r2, [r5, #0]
 1182 0a80 0430D5E5 		ldrb	r3, [r5, #4]	@ zero_extendqisi2
 1183 0a84 033CA0E1 		mov	r3, r3, asl #24
 1184 0a88 223483E1 		orr	r3, r3, r2, lsr #8
 1185 0a8c 063083E0 		add	r3, r3, r6
 1186 0a90 0320D3E5 		ldrb	r2, [r3, #3]	@ zero_extendqisi2
 1187 0a94 043093E5 		ldr	r3, [r3, #4]
 1188 0a98 032482E1 		orr	r2, r2, r3, asl #8
 1189 0a9c 042082E0 		add	r2, r2, r4
 1190 0aa0 0700A0E1 		mov	r0, r7
 1191 0aa4 042082E2 		add	r2, r2, #4
 1192 0aa8 FEFFFFEB 		bl	file_read
 1193 0aac 0010A0E1 		mov	r1, r0
 1194 0ab0 010050E3 		cmp	r0, #1
 1195 0ab4 5103001A 		bne	.L169
 1196              		.loc 1 876 0
 1197 0ab8 002095E5 		ldr	r2, [r5, #0]
 1198 0abc 0430D5E5 		ldrb	r3, [r5, #4]	@ zero_extendqisi2
 1199 0ac0 033CA0E1 		mov	r3, r3, asl #24
 1200 0ac4 223483E1 		orr	r3, r3, r2, lsr #8
 1201 0ac8 063083E0 		add	r3, r3, r6
 1202 0acc 0320D3E5 		ldrb	r2, [r3, #3]	@ zero_extendqisi2
 1203 0ad0 043093E5 		ldr	r3, [r3, #4]
 1204 0ad4 032482E1 		orr	r2, r2, r3, asl #8
 1205 0ad8 042082E0 		add	r2, r2, r4
 1206 0adc 0700A0E1 		mov	r0, r7
 1207 0ae0 052082E2 		add	r2, r2, #5
 1208 0ae4 FEFFFFEB 		bl	file_read
 1209 0ae8 0010A0E1 		mov	r1, r0
 1210 0aec 010050E3 		cmp	r0, #1
 1211 0af0 5103001A 		bne	.L169
 1212              		.loc 1 878 0
 1213 0af4 002095E5 		ldr	r2, [r5, #0]
 1214 0af8 0430D5E5 		ldrb	r3, [r5, #4]	@ zero_extendqisi2
 1215 0afc 033CA0E1 		mov	r3, r3, asl #24
 1216 0b00 223483E1 		orr	r3, r3, r2, lsr #8
 1217 0b04 063083E0 		add	r3, r3, r6
 1218 0b08 0320D3E5 		ldrb	r2, [r3, #3]	@ zero_extendqisi2
 1219 0b0c 043093E5 		ldr	r3, [r3, #4]
 1220 0b10 032482E1 		orr	r2, r2, r3, asl #8
 1221 0b14 042082E0 		add	r2, r2, r4
 1222 0b18 0700A0E1 		mov	r0, r7
 1223 0b1c 062082E2 		add	r2, r2, #6
 1224 0b20 FEFFFFEB 		bl	file_read
 1225 0b24 010050E3 		cmp	r0, #1
 1226 0b28 5103001A 		bne	.L169
 1227              		.loc 1 864 0
 1228 0b2c 018088E2 		add	r8, r8, #1
ARM GAS  C:\DOCUME~1\TECHCO~1\LOCALS~1\Temp/ccQdbaaa.s 			page 42


 1229 0b30 003095E5 		ldr	r3, [r5, #0]
 1230 0b34 0420D5E5 		ldrb	r2, [r5, #4]	@ zero_extendqisi2
 1231 0b38 022CA0E1 		mov	r2, r2, asl #24
 1232 0b3c 232482E1 		orr	r2, r2, r3, lsr #8
 1233 0b40 061082E0 		add	r1, r2, r6
 1234 0b44 0230D1E5 		ldrb	r3, [r1, #2]	@ zero_extendqisi2
 1235 0b48 080053E1 		cmp	r3, r8
 1236 0b4c 640200CA 		bgt	.L168
 1237              	.L166:
 1238              		.loc 1 854 0
 1239 0b50 01B08BE2 		add	fp, fp, #1
 1240 0b54 0030DAE5 		ldrb	r3, [sl, #0]	@ zero_extendqisi2
 1241 0b58 0B0053E1 		cmp	r3, fp
 1242 0b5c 2C0200CA 		bgt	.L162
 1243              	.L160:
 1244              		.loc 1 883 0
 1245 0b60 F8019FE5 		ldr	r0, .L199
 1246 0b64 0110A0E3 		mov	r1, #1
 1247 0b68 03208DE2 		add	r2, sp, #3
 1248 0b6c FEFFFFEB 		bl	file_read
 1249 0b70 010050E3 		cmp	r0, #1
 1250 0b74 0400A013 		movne	r0, #4
 1251 0b78 5403001A 		bne	.L157
 1252              		.loc 1 886 0
 1253 0b7c DC019FE5 		ldr	r0, .L199
 1254 0b80 0410A0E3 		mov	r1, #4
 1255 0b84 E0219FE5 		ldr	r2, .L199+12
 1256 0b88 FEFFFFEB 		bl	file_read
 1257 0b8c 040050E3 		cmp	r0, #4
 1258 0b90 0500A013 		movne	r0, #5
 1259 0b94 5403001A 		bne	.L157
 1260              		.loc 1 888 0
 1261 0b98 C8419FE5 		ldr	r4, .L199+8
 1262 0b9c 043094E5 		ldr	r3, [r4, #4]
 1263 0ba0 0800D4E5 		ldrb	r0, [r4, #8]	@ zero_extendqisi2
 1264 0ba4 000CA0E1 		mov	r0, r0, asl #24
 1265 0ba8 230480E1 		orr	r0, r0, r3, lsr #8
 1266 0bac 800080E0 		add	r0, r0, r0, asl #1
 1267 0bb0 0001A0E1 		mov	r0, r0, asl #2
 1268 0bb4 FEFFFFEB 		bl	malloc
 1269 0bb8 0830D4E5 		ldrb	r3, [r4, #8]	@ zero_extendqisi2
 1270 0bbc 003483E1 		orr	r3, r3, r0, asl #8
 1271 0bc0 083084E5 		str	r3, [r4, #8]
 1272 0bc4 200CA0E1 		mov	r0, r0, lsr #24
 1273 0bc8 0C00C4E5 		strb	r0, [r4, #12]
 1274              		.loc 1 890 0
 1275 0bcc 042094E5 		ldr	r2, [r4, #4]
 1276 0bd0 0830D4E5 		ldrb	r3, [r4, #8]	@ zero_extendqisi2
 1277 0bd4 033CA0E1 		mov	r3, r3, asl #24
 1278 0bd8 223493E1 		orrs	r3, r3, r2, lsr #8
 1279 0bdc 3903000A 		beq	.L181
 1280 0be0 00A0A0E3 		mov	sl, #0
 1281              	.LVL107:
 1282 0be4 0A50A0E1 		mov	r5, sl
 1283 0be8 70819FE5 		ldr	r8, .L199
 1284              	.LVL108:
 1285              	.L183:
ARM GAS  C:\DOCUME~1\TECHCO~1\LOCALS~1\Temp/ccQdbaaa.s 			page 43


 1286              		.loc 1 892 0
 1287 0bec 083094E5 		ldr	r3, [r4, #8]
 1288 0bf0 0C20D4E5 		ldrb	r2, [r4, #12]	@ zero_extendqisi2
 1289 0bf4 022CA0E1 		mov	r2, r2, asl #24
 1290 0bf8 232482E1 		orr	r2, r2, r3, lsr #8
 1291 0bfc 0800A0E1 		mov	r0, r8
 1292 0c00 0110A0E3 		mov	r1, #1
 1293 0c04 052082E0 		add	r2, r2, r5
 1294 0c08 FEFFFFEB 		bl	file_read
 1295 0c0c 0010A0E1 		mov	r1, r0
 1296 0c10 010050E3 		cmp	r0, #1
 1297 0c14 5303001A 		bne	.L184
 1298              		.loc 1 894 0
 1299 0c18 083094E5 		ldr	r3, [r4, #8]
 1300 0c1c 0C20D4E5 		ldrb	r2, [r4, #12]	@ zero_extendqisi2
 1301 0c20 022CA0E1 		mov	r2, r2, asl #24
 1302 0c24 232482E1 		orr	r2, r2, r3, lsr #8
 1303 0c28 052082E0 		add	r2, r2, r5
 1304 0c2c 0800A0E1 		mov	r0, r8
 1305 0c30 012082E2 		add	r2, r2, #1
 1306 0c34 FEFFFFEB 		bl	file_read
 1307 0c38 0070A0E1 		mov	r7, r0
 1308 0c3c 010050E3 		cmp	r0, #1
 1309 0c40 5303001A 		bne	.L184
 1310              		.loc 1 896 0
 1311 0c44 083094E5 		ldr	r3, [r4, #8]
 1312 0c48 0C20D4E5 		ldrb	r2, [r4, #12]	@ zero_extendqisi2
 1313 0c4c 022CA0E1 		mov	r2, r2, asl #24
 1314 0c50 232482E1 		orr	r2, r2, r3, lsr #8
 1315 0c54 052082E0 		add	r2, r2, r5
 1316 0c58 0800A0E1 		mov	r0, r8
 1317 0c5c 0410A0E3 		mov	r1, #4
 1318 0c60 022082E2 		add	r2, r2, #2
 1319 0c64 FEFFFFEB 		bl	file_read
 1320 0c68 0060A0E1 		mov	r6, r0
 1321 0c6c 040050E3 		cmp	r0, #4
 1322 0c70 5303001A 		bne	.L184
 1323              		.loc 1 898 0
 1324 0c74 083094E5 		ldr	r3, [r4, #8]
 1325 0c78 0C20D4E5 		ldrb	r2, [r4, #12]	@ zero_extendqisi2
 1326 0c7c 022CA0E1 		mov	r2, r2, asl #24
 1327 0c80 232482E1 		orr	r2, r2, r3, lsr #8
 1328 0c84 052082E0 		add	r2, r2, r5
 1329 0c88 0800A0E1 		mov	r0, r8
 1330 0c8c 0710A0E1 		mov	r1, r7
 1331 0c90 062082E2 		add	r2, r2, #6
 1332 0c94 FEFFFFEB 		bl	file_read
 1333 0c98 010050E3 		cmp	r0, #1
 1334 0c9c 5303001A 		bne	.L184
 1335              		.loc 1 900 0
 1336 0ca0 083094E5 		ldr	r3, [r4, #8]
 1337 0ca4 0C20D4E5 		ldrb	r2, [r4, #12]	@ zero_extendqisi2
 1338 0ca8 022CA0E1 		mov	r2, r2, asl #24
 1339 0cac 232482E1 		orr	r2, r2, r3, lsr #8
 1340 0cb0 052082E0 		add	r2, r2, r5
 1341 0cb4 0800A0E1 		mov	r0, r8
 1342 0cb8 0610A0E1 		mov	r1, r6
ARM GAS  C:\DOCUME~1\TECHCO~1\LOCALS~1\Temp/ccQdbaaa.s 			page 44


 1343 0cbc 072082E2 		add	r2, r2, #7
 1344 0cc0 FEFFFFEB 		bl	file_read
 1345 0cc4 040050E3 		cmp	r0, #4
 1346 0cc8 5303001A 		bne	.L184
 1347              		.loc 1 890 0
 1348 0ccc 01A08AE2 		add	sl, sl, #1
 1349 0cd0 0C5085E2 		add	r5, r5, #12
 1350 0cd4 042094E5 		ldr	r2, [r4, #4]
 1351 0cd8 0830D4E5 		ldrb	r3, [r4, #8]	@ zero_extendqisi2
 1352 0cdc 033CA0E1 		mov	r3, r3, asl #24
 1353 0ce0 223483E1 		orr	r3, r3, r2, lsr #8
 1354 0ce4 0A0053E1 		cmp	r3, sl
 1355 0ce8 F902008A 		bhi	.L183
 1356              	.LVL109:
 1357              	.L181:
 1358              		.loc 1 904 0
 1359 0cec 6C009FE5 		ldr	r0, .L199
 1360 0cf0 0110A0E3 		mov	r1, #1
 1361 0cf4 02208DE2 		add	r2, sp, #2
 1362 0cf8 FEFFFFEB 		bl	file_read
 1363 0cfc 010050E3 		cmp	r0, #1
 1364 0d00 0700A013 		movne	r0, #7
 1365 0d04 5403001A 		bne	.L157
 1366              		.loc 1 907 0
 1367 0d08 FEFFFFEB 		bl	cube_checksum_generator
 1368              	.LVL110:
 1369 0d0c 0330DDE5 		ldrb	r3, [sp, #3]	@ zero_extendqisi2
 1370 0d10 000053E1 		cmp	r3, r0
 1371 0d14 4803001A 		bne	.L192
 1372              	.LVL111:
 1373 0d18 FEFFFFEB 		bl	state_checksum_generator
 1374              	.LVL112:
 1375 0d1c 0230DDE5 		ldrb	r3, [sp, #2]	@ zero_extendqisi2
 1376 0d20 000053E1 		cmp	r3, r0
 1377 0d24 4B03000A 		beq	.L194
 1378              	.LVL113:
 1379              	.L192:
 1380              		.loc 1 910 0
 1381 0d28 FEFFFFEB 		bl	deleteMorphology
 1382              	.LVL114:
 1383 0d2c 0800A0E3 		mov	r0, #8
 1384 0d30 540300EA 		b	.L157
 1385              	.LVL115:
 1386              	.L194:
 1387              		.loc 1 914 0
 1388 0d34 24009FE5 		ldr	r0, .L199
 1389 0d38 FEFFFFEB 		bl	file_fclose
 1390              	.LVL116:
 1391 0d3c 0000A0E3 		mov	r0, #0
 1392 0d40 540300EA 		b	.L157
 1393              	.LVL117:
 1394              	.L158:
 1395              		.loc 1 916 0
 1396 0d44 0200A0E3 		mov	r0, #2
 1397 0d48 540300EA 		b	.L157
 1398              	.L169:
 1399 0d4c 0300A0E3 		mov	r0, #3
ARM GAS  C:\DOCUME~1\TECHCO~1\LOCALS~1\Temp/ccQdbaaa.s 			page 45


 1400 0d50 540300EA 		b	.L157
 1401              	.LVL118:
 1402              	.L184:
 1403 0d54 0600A0E3 		mov	r0, #6
 1404              	.LVL119:
 1405              	.L157:
 1406              		.loc 1 917 0
 1407 0d58 04D08DE2 		add	sp, sp, #4
 1408 0d5c F08FBDE8 		ldmfd	sp!, {r4, r5, r6, r7, r8, r9, sl, fp, pc}
 1409              	.L200:
 1410              		.align	2
 1411              	.L199:
 1412 0d60 00000000 		.word	filer
 1413 0d64 84020000 		.word	efs+644
 1414 0d68 00000000 		.word	cubemorph
 1415 0d6c 05000000 		.word	cubemorph+5
 1416              	.LFE27:
 1417              		.size	buildMorphologyFromFile, .-buildMorphologyFromFile
 1418              		.align	2
 1419              		.global	writeMorphologyToFile
 1420              		.type	writeMorphologyToFile, %function
 1421              	writeMorphologyToFile:
 1422              	.LFB26:
 1423              		.loc 1 775 0
 1424              		@ args = 0, pretend = 0, frame = 4
 1425              		@ frame_needed = 0, uses_anonymous_args = 0
 1426              	.LVL120:
 1427 0d70 F04F2DE9 		stmfd	sp!, {r4, r5, r6, r7, r8, r9, sl, fp, lr}
 1428              	.LCFI12:
 1429 0d74 04D04DE2 		sub	sp, sp, #4
 1430              	.LCFI13:
 1431 0d78 0040A0E1 		mov	r4, r0
 1432              		.loc 1 778 0
 1433 0d7c FEFFFFEB 		bl	cube_checksum_generator
 1434              	.LVL121:
 1435 0d80 0300CDE5 		strb	r0, [sp, #3]
 1436              	.LVL122:
 1437              		.loc 1 779 0
 1438 0d84 FEFFFFEB 		bl	state_checksum_generator
 1439 0d88 0200CDE5 		strb	r0, [sp, #2]
 1440              	.LVL123:
 1441              		.loc 1 781 0
 1442 0d8c 74049FE5 		ldr	r0, .L242
 1443 0d90 74149FE5 		ldr	r1, .L242+4
 1444 0d94 0420A0E1 		mov	r2, r4
 1445 0d98 7730A0E3 		mov	r3, #119
 1446 0d9c FEFFFFEB 		bl	file_fopen
 1447 0da0 FF0010E2 		ands	r0, r0, #255
 1448 0da4 003CA011 		movne	r3, r0, asl #24
 1449 0da8 430CA011 		movne	r0, r3, asr #24
 1450              	.LVL124:
 1451 0dac 7E04001A 		bne	.L204
 1452              		.loc 1 784 0
 1453 0db0 58449FE5 		ldr	r4, .L242+8
 1454              	.LVL125:
 1455 0db4 4C049FE5 		ldr	r0, .L242
 1456              	.LVL126:
ARM GAS  C:\DOCUME~1\TECHCO~1\LOCALS~1\Temp/ccQdbaaa.s 			page 46


 1457 0db8 0110A0E3 		mov	r1, #1
 1458 0dbc 0420A0E1 		mov	r2, r4
 1459 0dc0 FEFFFFEB 		bl	file_write
 1460 0dc4 010050E3 		cmp	r0, #1
 1461 0dc8 7704001A 		bne	.L205
 1462              		.loc 1 786 0
 1463 0dcc 0030D4E5 		ldrb	r3, [r4, #0]	@ zero_extendqisi2
 1464 0dd0 000053E3 		cmp	r3, #0
 1465 0dd4 140400DA 		ble	.L207
 1466 0dd8 00B0A0E3 		mov	fp, #0
 1467              	.LVL127:
 1468 0ddc 24949FE5 		ldr	r9, .L242
 1469 0de0 04A0A0E1 		mov	sl, r4
 1470              	.LVL128:
 1471              	.L209:
 1472 0de4 8B61A0E1 		mov	r6, fp, asl #3
 1473              		.loc 1 788 0
 1474 0de8 00309AE5 		ldr	r3, [sl, #0]
 1475 0dec 0420DAE5 		ldrb	r2, [sl, #4]	@ zero_extendqisi2
 1476 0df0 022CA0E1 		mov	r2, r2, asl #24
 1477 0df4 232482E1 		orr	r2, r2, r3, lsr #8
 1478 0df8 0900A0E1 		mov	r0, r9
 1479 0dfc 0110A0E3 		mov	r1, #1
 1480 0e00 062082E0 		add	r2, r2, r6
 1481 0e04 FEFFFFEB 		bl	file_write
 1482 0e08 0010A0E1 		mov	r1, r0
 1483 0e0c 010050E3 		cmp	r0, #1
 1484 0e10 7704001A 		bne	.L205
 1485              		.loc 1 790 0
 1486 0e14 00309AE5 		ldr	r3, [sl, #0]
 1487 0e18 0420DAE5 		ldrb	r2, [sl, #4]	@ zero_extendqisi2
 1488 0e1c 022CA0E1 		mov	r2, r2, asl #24
 1489 0e20 232482E1 		orr	r2, r2, r3, lsr #8
 1490 0e24 062082E0 		add	r2, r2, r6
 1491 0e28 0900A0E1 		mov	r0, r9
 1492 0e2c 012082E2 		add	r2, r2, #1
 1493 0e30 FEFFFFEB 		bl	file_write
 1494 0e34 0010A0E1 		mov	r1, r0
 1495 0e38 010050E3 		cmp	r0, #1
 1496 0e3c 7704001A 		bne	.L205
 1497              		.loc 1 792 0
 1498 0e40 00309AE5 		ldr	r3, [sl, #0]
 1499 0e44 0420DAE5 		ldrb	r2, [sl, #4]	@ zero_extendqisi2
 1500 0e48 022CA0E1 		mov	r2, r2, asl #24
 1501 0e4c 232482E1 		orr	r2, r2, r3, lsr #8
 1502 0e50 062082E0 		add	r2, r2, r6
 1503 0e54 0900A0E1 		mov	r0, r9
 1504 0e58 022082E2 		add	r2, r2, #2
 1505 0e5c FEFFFFEB 		bl	file_write
 1506 0e60 010050E3 		cmp	r0, #1
 1507 0e64 7704001A 		bne	.L205
 1508              		.loc 1 795 0
 1509 0e68 00309AE5 		ldr	r3, [sl, #0]
 1510 0e6c 0420DAE5 		ldrb	r2, [sl, #4]	@ zero_extendqisi2
 1511 0e70 022CA0E1 		mov	r2, r2, asl #24
 1512 0e74 232482E1 		orr	r2, r2, r3, lsr #8
 1513 0e78 061082E0 		add	r1, r2, r6
ARM GAS  C:\DOCUME~1\TECHCO~1\LOCALS~1\Temp/ccQdbaaa.s 			page 47


 1514 0e7c 0230D1E5 		ldrb	r3, [r1, #2]	@ zero_extendqisi2
 1515 0e80 000053E3 		cmp	r3, #0
 1516 0e84 100400DA 		ble	.L213
 1517 0e88 0080A0E3 		mov	r8, #0
 1518 0e8c 74739FE5 		ldr	r7, .L242
 1519              	.L215:
 1520 0e90 8841A0E1 		mov	r4, r8, asl #3
 1521              		.loc 1 797 0
 1522 0e94 0320D1E5 		ldrb	r2, [r1, #3]	@ zero_extendqisi2
 1523 0e98 043091E5 		ldr	r3, [r1, #4]
 1524 0e9c 032482E1 		orr	r2, r2, r3, asl #8
 1525 0ea0 0700A0E1 		mov	r0, r7
 1526 0ea4 0110A0E3 		mov	r1, #1
 1527 0ea8 042082E0 		add	r2, r2, r4
 1528 0eac FEFFFFEB 		bl	file_write
 1529 0eb0 0010A0E1 		mov	r1, r0
 1530 0eb4 010050E3 		cmp	r0, #1
 1531 0eb8 7904001A 		bne	.L216
 1532              		.loc 1 799 0
 1533 0ebc 4C539FE5 		ldr	r5, .L242+8
 1534 0ec0 002095E5 		ldr	r2, [r5, #0]
 1535 0ec4 0430D5E5 		ldrb	r3, [r5, #4]	@ zero_extendqisi2
 1536 0ec8 033CA0E1 		mov	r3, r3, asl #24
 1537 0ecc 223483E1 		orr	r3, r3, r2, lsr #8
 1538 0ed0 063083E0 		add	r3, r3, r6
 1539 0ed4 0320D3E5 		ldrb	r2, [r3, #3]	@ zero_extendqisi2
 1540 0ed8 043093E5 		ldr	r3, [r3, #4]
 1541 0edc 032482E1 		orr	r2, r2, r3, asl #8
 1542 0ee0 042082E0 		add	r2, r2, r4
 1543 0ee4 0700A0E1 		mov	r0, r7
 1544 0ee8 012082E2 		add	r2, r2, #1
 1545 0eec FEFFFFEB 		bl	file_write
 1546 0ef0 0010A0E1 		mov	r1, r0
 1547 0ef4 010050E3 		cmp	r0, #1
 1548 0ef8 7904001A 		bne	.L216
 1549              		.loc 1 801 0
 1550 0efc 002095E5 		ldr	r2, [r5, #0]
 1551 0f00 0430D5E5 		ldrb	r3, [r5, #4]	@ zero_extendqisi2
 1552 0f04 033CA0E1 		mov	r3, r3, asl #24
 1553 0f08 223483E1 		orr	r3, r3, r2, lsr #8
 1554 0f0c 063083E0 		add	r3, r3, r6
 1555 0f10 0320D3E5 		ldrb	r2, [r3, #3]	@ zero_extendqisi2
 1556 0f14 043093E5 		ldr	r3, [r3, #4]
 1557 0f18 032482E1 		orr	r2, r2, r3, asl #8
 1558 0f1c 042082E0 		add	r2, r2, r4
 1559 0f20 0700A0E1 		mov	r0, r7
 1560 0f24 022082E2 		add	r2, r2, #2
 1561 0f28 FEFFFFEB 		bl	file_write
 1562 0f2c 0010A0E1 		mov	r1, r0
 1563 0f30 010050E3 		cmp	r0, #1
 1564 0f34 7904001A 		bne	.L216
 1565              		.loc 1 803 0
 1566 0f38 002095E5 		ldr	r2, [r5, #0]
 1567 0f3c 0430D5E5 		ldrb	r3, [r5, #4]	@ zero_extendqisi2
 1568 0f40 033CA0E1 		mov	r3, r3, asl #24
 1569 0f44 223483E1 		orr	r3, r3, r2, lsr #8
 1570 0f48 063083E0 		add	r3, r3, r6
ARM GAS  C:\DOCUME~1\TECHCO~1\LOCALS~1\Temp/ccQdbaaa.s 			page 48


 1571 0f4c 0320D3E5 		ldrb	r2, [r3, #3]	@ zero_extendqisi2
 1572 0f50 043093E5 		ldr	r3, [r3, #4]
 1573 0f54 032482E1 		orr	r2, r2, r3, asl #8
 1574 0f58 022084E0 		add	r2, r4, r2
 1575 0f5c 0700A0E1 		mov	r0, r7
 1576 0f60 032082E2 		add	r2, r2, #3
 1577 0f64 FEFFFFEB 		bl	file_write
 1578 0f68 0010A0E1 		mov	r1, r0
 1579 0f6c 010050E3 		cmp	r0, #1
 1580 0f70 7904001A 		bne	.L216
 1581              		.loc 1 805 0
 1582 0f74 002095E5 		ldr	r2, [r5, #0]
 1583 0f78 0430D5E5 		ldrb	r3, [r5, #4]	@ zero_extendqisi2
 1584 0f7c 033CA0E1 		mov	r3, r3, asl #24
 1585 0f80 223483E1 		orr	r3, r3, r2, lsr #8
 1586 0f84 033086E0 		add	r3, r6, r3
 1587 0f88 0320D3E5 		ldrb	r2, [r3, #3]	@ zero_extendqisi2
 1588 0f8c 043093E5 		ldr	r3, [r3, #4]
 1589 0f90 032482E1 		orr	r2, r2, r3, asl #8
 1590 0f94 022084E0 		add	r2, r4, r2
 1591 0f98 0700A0E1 		mov	r0, r7
 1592 0f9c 042082E2 		add	r2, r2, #4
 1593 0fa0 FEFFFFEB 		bl	file_write
 1594 0fa4 0010A0E1 		mov	r1, r0
 1595 0fa8 010050E3 		cmp	r0, #1
 1596 0fac 7904001A 		bne	.L216
 1597              		.loc 1 807 0
 1598 0fb0 002095E5 		ldr	r2, [r5, #0]
 1599 0fb4 0430D5E5 		ldrb	r3, [r5, #4]	@ zero_extendqisi2
 1600 0fb8 033CA0E1 		mov	r3, r3, asl #24
 1601 0fbc 223483E1 		orr	r3, r3, r2, lsr #8
 1602 0fc0 033086E0 		add	r3, r6, r3
 1603 0fc4 0320D3E5 		ldrb	r2, [r3, #3]	@ zero_extendqisi2
 1604 0fc8 043093E5 		ldr	r3, [r3, #4]
 1605 0fcc 032482E1 		orr	r2, r2, r3, asl #8
 1606 0fd0 022084E0 		add	r2, r4, r2
 1607 0fd4 0700A0E1 		mov	r0, r7
 1608 0fd8 052082E2 		add	r2, r2, #5
 1609 0fdc FEFFFFEB 		bl	file_write
 1610 0fe0 0010A0E1 		mov	r1, r0
 1611 0fe4 010050E3 		cmp	r0, #1
 1612 0fe8 7904001A 		bne	.L216
 1613              		.loc 1 809 0
 1614 0fec 002095E5 		ldr	r2, [r5, #0]
 1615 0ff0 0430D5E5 		ldrb	r3, [r5, #4]	@ zero_extendqisi2
 1616 0ff4 033CA0E1 		mov	r3, r3, asl #24
 1617 0ff8 223483E1 		orr	r3, r3, r2, lsr #8
 1618 0ffc 033086E0 		add	r3, r6, r3
 1619 1000 0320D3E5 		ldrb	r2, [r3, #3]	@ zero_extendqisi2
 1620 1004 043093E5 		ldr	r3, [r3, #4]
 1621 1008 032482E1 		orr	r2, r2, r3, asl #8
 1622 100c 022084E0 		add	r2, r4, r2
 1623 1010 0700A0E1 		mov	r0, r7
 1624 1014 062082E2 		add	r2, r2, #6
 1625 1018 FEFFFFEB 		bl	file_write
 1626 101c 010050E3 		cmp	r0, #1
 1627 1020 7904001A 		bne	.L216
ARM GAS  C:\DOCUME~1\TECHCO~1\LOCALS~1\Temp/ccQdbaaa.s 			page 49


 1628              		.loc 1 795 0
 1629 1024 018088E2 		add	r8, r8, #1
 1630 1028 003095E5 		ldr	r3, [r5, #0]
 1631 102c 0420D5E5 		ldrb	r2, [r5, #4]	@ zero_extendqisi2
 1632 1030 022CA0E1 		mov	r2, r2, asl #24
 1633 1034 232482E1 		orr	r2, r2, r3, lsr #8
 1634 1038 061082E0 		add	r1, r2, r6
 1635 103c 0230D1E5 		ldrb	r3, [r1, #2]	@ zero_extendqisi2
 1636 1040 080053E1 		cmp	r3, r8
 1637 1044 A20300CA 		bgt	.L215
 1638              	.L213:
 1639              		.loc 1 786 0
 1640 1048 01B08BE2 		add	fp, fp, #1
 1641 104c 0030DAE5 		ldrb	r3, [sl, #0]	@ zero_extendqisi2
 1642 1050 0B0053E1 		cmp	r3, fp
 1643 1054 770300CA 		bgt	.L209
 1644              	.L207:
 1645              		.loc 1 814 0
 1646 1058 A8419FE5 		ldr	r4, .L242
 1647 105c 0400A0E1 		mov	r0, r4
 1648 1060 0110A0E3 		mov	r1, #1
 1649 1064 03208DE2 		add	r2, sp, #3
 1650 1068 FEFFFFEB 		bl	file_write
 1651 106c 010050E3 		cmp	r0, #1
 1652 1070 7B04001A 		bne	.L224
 1653              		.loc 1 817 0
 1654 1074 0400A0E1 		mov	r0, r4
 1655 1078 0410A0E3 		mov	r1, #4
 1656 107c 90219FE5 		ldr	r2, .L242+12
 1657 1080 FEFFFFEB 		bl	file_write
 1658 1084 040050E3 		cmp	r0, #4
 1659 1088 0500A013 		movne	r0, #5
 1660              	.LVL129:
 1661 108c 7E04001A 		bne	.L204
 1662              		.loc 1 820 0
 1663 1090 78319FE5 		ldr	r3, .L242+8
 1664 1094 042093E5 		ldr	r2, [r3, #4]
 1665 1098 0830D3E5 		ldrb	r3, [r3, #8]	@ zero_extendqisi2
 1666 109c 033CA0E1 		mov	r3, r3, asl #24
 1667 10a0 223493E1 		orrs	r3, r3, r2, lsr #8
 1668 10a4 6C04000A 		beq	.L228
 1669 10a8 00A0A0E3 		mov	sl, #0
 1670              	.LVL130:
 1671 10ac 0A50A0E1 		mov	r5, sl
 1672 10b0 50819FE5 		ldr	r8, .L242
 1673              	.LVL131:
 1674 10b4 54419FE5 		ldr	r4, .L242+8
 1675              	.L230:
 1676              		.loc 1 822 0
 1677 10b8 083094E5 		ldr	r3, [r4, #8]
 1678 10bc 0C20D4E5 		ldrb	r2, [r4, #12]	@ zero_extendqisi2
 1679 10c0 022CA0E1 		mov	r2, r2, asl #24
 1680 10c4 232482E1 		orr	r2, r2, r3, lsr #8
 1681 10c8 0800A0E1 		mov	r0, r8
 1682              	.LVL132:
 1683 10cc 0110A0E3 		mov	r1, #1
 1684 10d0 052082E0 		add	r2, r2, r5
ARM GAS  C:\DOCUME~1\TECHCO~1\LOCALS~1\Temp/ccQdbaaa.s 			page 50


 1685 10d4 FEFFFFEB 		bl	file_write
 1686 10d8 0010A0E1 		mov	r1, r0
 1687 10dc 010050E3 		cmp	r0, #1
 1688 10e0 7D04001A 		bne	.L231
 1689              		.loc 1 824 0
 1690 10e4 083094E5 		ldr	r3, [r4, #8]
 1691 10e8 0C20D4E5 		ldrb	r2, [r4, #12]	@ zero_extendqisi2
 1692 10ec 022CA0E1 		mov	r2, r2, asl #24
 1693 10f0 232482E1 		orr	r2, r2, r3, lsr #8
 1694 10f4 052082E0 		add	r2, r2, r5
 1695 10f8 0800A0E1 		mov	r0, r8
 1696 10fc 012082E2 		add	r2, r2, #1
 1697 1100 FEFFFFEB 		bl	file_write
 1698 1104 0070A0E1 		mov	r7, r0
 1699 1108 010050E3 		cmp	r0, #1
 1700 110c 7D04001A 		bne	.L231
 1701              		.loc 1 826 0
 1702 1110 083094E5 		ldr	r3, [r4, #8]
 1703 1114 0C20D4E5 		ldrb	r2, [r4, #12]	@ zero_extendqisi2
 1704 1118 022CA0E1 		mov	r2, r2, asl #24
 1705 111c 232482E1 		orr	r2, r2, r3, lsr #8
 1706 1120 052082E0 		add	r2, r2, r5
 1707 1124 0800A0E1 		mov	r0, r8
 1708 1128 0410A0E3 		mov	r1, #4
 1709 112c 022082E2 		add	r2, r2, #2
 1710 1130 FEFFFFEB 		bl	file_write
 1711 1134 0060A0E1 		mov	r6, r0
 1712 1138 040050E3 		cmp	r0, #4
 1713 113c 7D04001A 		bne	.L231
 1714              		.loc 1 828 0
 1715 1140 083094E5 		ldr	r3, [r4, #8]
 1716 1144 0C20D4E5 		ldrb	r2, [r4, #12]	@ zero_extendqisi2
 1717 1148 022CA0E1 		mov	r2, r2, asl #24
 1718 114c 232482E1 		orr	r2, r2, r3, lsr #8
 1719 1150 052082E0 		add	r2, r2, r5
 1720 1154 0800A0E1 		mov	r0, r8
 1721 1158 0710A0E1 		mov	r1, r7
 1722 115c 062082E2 		add	r2, r2, #6
 1723 1160 FEFFFFEB 		bl	file_write
 1724 1164 010050E3 		cmp	r0, #1
 1725 1168 7D04001A 		bne	.L231
 1726              		.loc 1 830 0
 1727 116c 083094E5 		ldr	r3, [r4, #8]
 1728 1170 0C20D4E5 		ldrb	r2, [r4, #12]	@ zero_extendqisi2
 1729 1174 022CA0E1 		mov	r2, r2, asl #24
 1730 1178 232482E1 		orr	r2, r2, r3, lsr #8
 1731 117c 052082E0 		add	r2, r2, r5
 1732 1180 0800A0E1 		mov	r0, r8
 1733 1184 0610A0E1 		mov	r1, r6
 1734 1188 072082E2 		add	r2, r2, #7
 1735 118c FEFFFFEB 		bl	file_write
 1736 1190 040050E3 		cmp	r0, #4
 1737 1194 7D04001A 		bne	.L231
 1738              		.loc 1 820 0
 1739 1198 01A08AE2 		add	sl, sl, #1
 1740 119c 0C5085E2 		add	r5, r5, #12
 1741 11a0 042094E5 		ldr	r2, [r4, #4]
ARM GAS  C:\DOCUME~1\TECHCO~1\LOCALS~1\Temp/ccQdbaaa.s 			page 51


 1742 11a4 0830D4E5 		ldrb	r3, [r4, #8]	@ zero_extendqisi2
 1743 11a8 033CA0E1 		mov	r3, r3, asl #24
 1744 11ac 223483E1 		orr	r3, r3, r2, lsr #8
 1745 11b0 0A0053E1 		cmp	r3, sl
 1746 11b4 2C04008A 		bhi	.L230
 1747              	.LVL133:
 1748              	.L228:
 1749              		.loc 1 834 0
 1750 11b8 48409FE5 		ldr	r4, .L242
 1751 11bc 0400A0E1 		mov	r0, r4
 1752              	.LVL134:
 1753 11c0 0110A0E3 		mov	r1, #1
 1754 11c4 02208DE2 		add	r2, sp, #2
 1755 11c8 FEFFFFEB 		bl	file_write
 1756 11cc 010050E3 		cmp	r0, #1
 1757 11d0 7B04001A 		bne	.L224
 1758              		.loc 1 837 0
 1759 11d4 0400A0E1 		mov	r0, r4
 1760 11d8 FEFFFFEB 		bl	file_fclose
 1761 11dc 0000A0E3 		mov	r0, #0
 1762              	.LVL135:
 1763 11e0 7E0400EA 		b	.L204
 1764              	.LVL136:
 1765              	.L205:
 1766              		.loc 1 838 0
 1767 11e4 0200A0E3 		mov	r0, #2
 1768              	.LVL137:
 1769 11e8 7E0400EA 		b	.L204
 1770              	.LVL138:
 1771              	.L216:
 1772 11ec 0300A0E3 		mov	r0, #3
 1773              	.LVL139:
 1774 11f0 7E0400EA 		b	.L204
 1775              	.LVL140:
 1776              	.L224:
 1777 11f4 0400A0E3 		mov	r0, #4
 1778              	.LVL141:
 1779 11f8 7E0400EA 		b	.L204
 1780              	.LVL142:
 1781              	.L231:
 1782 11fc 0600A0E3 		mov	r0, #6
 1783              	.LVL143:
 1784              	.L204:
 1785              	.LVL144:
 1786              		.loc 1 839 0
 1787 1200 04D08DE2 		add	sp, sp, #4
 1788 1204 F08FBDE8 		ldmfd	sp!, {r4, r5, r6, r7, r8, r9, sl, fp, pc}
 1789              	.L243:
 1790              		.align	2
 1791              	.L242:
 1792 1208 00000000 		.word	filer
 1793 120c 84020000 		.word	efs+644
 1794 1210 00000000 		.word	cubemorph
 1795 1214 05000000 		.word	cubemorph+5
 1796              	.LFE26:
 1797              		.size	writeMorphologyToFile, .-writeMorphologyToFile
 1798              		.align	2
ARM GAS  C:\DOCUME~1\TECHCO~1\LOCALS~1\Temp/ccQdbaaa.s 			page 52


 1799              		.global	enableAngleTracking
 1800              		.type	enableAngleTracking, %function
 1801              	enableAngleTracking:
 1802              	.LFB25:
 1803              		.loc 1 744 0
 1804              		@ args = 0, pretend = 0, frame = 0
 1805              		@ frame_needed = 0, uses_anonymous_args = 0
 1806              	.LVL145:
 1807 1218 70402DE9 		stmfd	sp!, {r4, r5, r6, lr}
 1808              	.LCFI14:
 1809 121c 0040A0E1 		mov	r4, r0
 1810              		.loc 1 748 0
 1811 1220 0030D0E5 		ldrb	r3, [r0, #0]	@ zero_extendqisi2
 1812 1224 000053E3 		cmp	r3, #0
 1813 1228 BF0400DA 		ble	.L245
 1814 122c 0060A0E3 		mov	r6, #0
 1815              	.LVL146:
 1816              	.L247:
 1817 1230 8651A0E1 		mov	r5, r6, asl #3
 1818              		.loc 1 750 0
 1819 1234 003094E5 		ldr	r3, [r4, #0]
 1820 1238 0420D4E5 		ldrb	r2, [r4, #4]	@ zero_extendqisi2
 1821 123c 022CA0E1 		mov	r2, r2, asl #24
 1822 1240 232482E1 		orr	r2, r2, r3, lsr #8
 1823 1244 051082E0 		add	r1, r2, r5
 1824 1248 0130D1E5 		ldrb	r3, [r1, #1]	@ zero_extendqisi2
 1825 124c FA0053E3 		cmp	r3, #250
 1826 1250 BB04001A 		bne	.L248
 1827              	.LVL147:
 1828              	.LBB2:
 1829              		.loc 1 752 0
 1830 1254 0400A0E1 		mov	r0, r4
 1831 1258 0020A0E3 		mov	r2, #0
 1832 125c FEFFFFEB 		bl	getCubeState
 1833              		.loc 1 753 0
 1834 1260 000050E3 		cmp	r0, #0
 1835              	.LVL148:
 1836 1264 9A04001A 		bne	.L250
 1837 1268 0C00A0E3 		mov	r0, #12
 1838              	.LVL149:
 1839 126c 7080BDE8 		ldmfd	sp!, {r4, r5, r6, pc}
 1840              	.LVL150:
 1841              	.L250:
 1842              		.loc 1 757 0
 1843 1270 003094E5 		ldr	r3, [r4, #0]
 1844 1274 0410D4E5 		ldrb	r1, [r4, #4]	@ zero_extendqisi2
 1845 1278 011CA0E1 		mov	r1, r1, asl #24
 1846 127c 231481E1 		orr	r1, r1, r3, lsr #8
 1847 1280 05C081E0 		add	ip, r1, r5
 1848 1284 0720D0E5 		ldrb	r2, [r0, #7]	@ zero_extendqisi2
 1849 1288 083090E5 		ldr	r3, [r0, #8]
 1850 128c 032482E1 		orr	r2, r2, r3, asl #8
 1851 1290 0228A0E1 		mov	r2, r2, asl #16
 1852 1294 0500D1E7 		ldrb	r0, [r1, r5]	@ zero_extendqisi2
 1853              	.LVL151:
 1854 1298 0110DCE5 		ldrb	r1, [ip, #1]	@ zero_extendqisi2
 1855 129c 2228A0E1 		mov	r2, r2, lsr #16
ARM GAS  C:\DOCUME~1\TECHCO~1\LOCALS~1\Temp/ccQdbaaa.s 			page 53


 1856 12a0 0030A0E3 		mov	r3, #0
 1857 12a4 FEFFFFEB 		bl	setServoSpeedAndAngle
 1858 12a8 000050E3 		cmp	r0, #0
 1859 12ac AD04000A 		beq	.L253
 1860              		.loc 1 759 0
 1861 12b0 FEFFFFEB 		bl	printCommandErrorCode
 1862 12b4 0200A0E3 		mov	r0, #2
 1863 12b8 7080BDE8 		ldmfd	sp!, {r4, r5, r6, pc}
 1864              	.L253:
 1865              		.loc 1 764 0
 1866 12bc 003094E5 		ldr	r3, [r4, #0]
 1867 12c0 0420D4E5 		ldrb	r2, [r4, #4]	@ zero_extendqisi2
 1868 12c4 022CA0E1 		mov	r2, r2, asl #24
 1869 12c8 232482E1 		orr	r2, r2, r3, lsr #8
 1870 12cc 053082E0 		add	r3, r2, r5
 1871 12d0 0500D2E7 		ldrb	r0, [r2, r5]	@ zero_extendqisi2
 1872 12d4 0110D3E5 		ldrb	r1, [r3, #1]	@ zero_extendqisi2
 1873 12d8 0120A0E3 		mov	r2, #1
 1874 12dc FEFFFFEB 		bl	setServoAngleTracking
 1875 12e0 000050E3 		cmp	r0, #0
 1876 12e4 BB04000A 		beq	.L248
 1877              		.loc 1 766 0
 1878 12e8 FEFFFFEB 		bl	printCommandErrorCode
 1879 12ec 0200A0E3 		mov	r0, #2
 1880 12f0 7080BDE8 		ldmfd	sp!, {r4, r5, r6, pc}
 1881              	.LVL152:
 1882              	.L248:
 1883              	.LBE2:
 1884              		.loc 1 748 0
 1885 12f4 016086E2 		add	r6, r6, #1
 1886 12f8 0030D4E5 		ldrb	r3, [r4, #0]	@ zero_extendqisi2
 1887 12fc 060053E1 		cmp	r3, r6
 1888 1300 8A0400CA 		bgt	.L247
 1889              	.LVL153:
 1890              	.L245:
 1891 1304 0000A0E3 		mov	r0, #0
 1892              	.LVL154:
 1893              		.loc 1 772 0
 1894 1308 7080BDE8 		ldmfd	sp!, {r4, r5, r6, pc}
 1895              	.LFE25:
 1896              		.size	enableAngleTracking, .-enableAngleTracking
 1897              		.align	2
 1898              		.global	insertNewLinkEntry
 1899              		.type	insertNewLinkEntry, %function
 1900              	insertNewLinkEntry:
 1901              	.LFB23:
 1902              		.loc 1 653 0
 1903              		@ args = 20, pretend = 0, frame = 8
 1904              		@ frame_needed = 0, uses_anonymous_args = 0
 1905              	.LVL155:
 1906 130c F04F2DE9 		stmfd	sp!, {r4, r5, r6, r7, r8, r9, sl, fp, lr}
 1907              	.LCFI15:
 1908 1310 08D04DE2 		sub	sp, sp, #8
 1909              	.LCFI16:
 1910 1314 0050A0E1 		mov	r5, r0
 1911 1318 FF8001E2 		and	r8, r1, #255
 1912 131c FFB002E2 		and	fp, r2, #255
ARM GAS  C:\DOCUME~1\TECHCO~1\LOCALS~1\Temp/ccQdbaaa.s 			page 54


 1913 1320 FFA003E2 		and	sl, r3, #255
 1914 1324 3060DDE5 		ldrb	r6, [sp, #48]	@ zero_extendqisi2
 1915 1328 3490DDE5 		ldrb	r9, [sp, #52]	@ zero_extendqisi2
 1916 132c 3870DDE5 		ldrb	r7, [sp, #56]	@ zero_extendqisi2
 1917              		.loc 1 656 0
 1918 1330 2C00DDE5 		ldrb	r0, [sp, #44]	@ zero_extendqisi2
 1919              	.LVL156:
 1920 1334 3C10DDE5 		ldrb	r1, [sp, #60]	@ zero_extendqisi2
 1921              	.LVL157:
 1922 1338 07208DE2 		add	r2, sp, #7
 1923              	.LVL158:
 1924 133c FEFFFFEB 		bl	getPinOrientation
 1925              	.LVL159:
 1926 1340 000050E3 		cmp	r0, #0
 1927 1344 0400A013 		movne	r0, #4
 1928 1348 5B05001A 		bne	.L261
 1929              	.LVL160:
 1930              		.loc 1 663 0
 1931 134c 0500A0E1 		mov	r0, r5
 1932 1350 0810A0E1 		mov	r1, r8
 1933 1354 FEFFFFEB 		bl	getCube
 1934              		.loc 1 664 0
 1935 1358 004050E2 		subs	r4, r0, #0
 1936              	.LVL161:
 1937 135c 5605000A 		beq	.L262
 1938              		.loc 1 668 0
 1939 1360 0500A0E1 		mov	r0, r5
 1940 1364 0610A0E1 		mov	r1, r6
 1941 1368 FEFFFFEB 		bl	getCube
 1942              		.loc 1 669 0
 1943 136c 005050E2 		subs	r5, r0, #0
 1944              	.LVL162:
 1945 1370 5605000A 		beq	.L262
 1946              		.loc 1 672 0
 1947 1374 0400A0E1 		mov	r0, r4
 1948 1378 0A10A0E1 		mov	r1, sl
 1949 137c FEFFFFEB 		bl	getCubeLink
 1950 1380 000050E3 		cmp	r0, #0
 1951 1384 5805001A 		bne	.L265
 1952              		.loc 1 675 0
 1953 1388 0500A0E1 		mov	r0, r5
 1954 138c 0710A0E1 		mov	r1, r7
 1955 1390 FEFFFFEB 		bl	getCubeLink
 1956 1394 000050E3 		cmp	r0, #0
 1957 1398 00008DE5 		str	r0, [sp, #0]
 1958 139c 5805001A 		bne	.L265
 1959              		.loc 1 679 0
 1960 13a0 0210D4E5 		ldrb	r1, [r4, #2]	@ zero_extendqisi2
 1961 13a4 011081E2 		add	r1, r1, #1
 1962 13a8 FF1001E2 		and	r1, r1, #255
 1963 13ac 0210C4E5 		strb	r1, [r4, #2]
 1964              		.loc 1 680 0
 1965 13b0 0330D4E5 		ldrb	r3, [r4, #3]	@ zero_extendqisi2
 1966 13b4 040094E5 		ldr	r0, [r4, #4]
 1967 13b8 000483E1 		orr	r0, r3, r0, asl #8
 1968 13bc 8111A0E1 		mov	r1, r1, asl #3
 1969 13c0 FEFFFFEB 		bl	realloc
ARM GAS  C:\DOCUME~1\TECHCO~1\LOCALS~1\Temp/ccQdbaaa.s 			page 55


 1970 13c4 0300C4E5 		strb	r0, [r4, #3]
 1971 13c8 043094E5 		ldr	r3, [r4, #4]
 1972 13cc FF3403E2 		and	r3, r3, #-16777216
 1973 13d0 203483E1 		orr	r3, r3, r0, lsr #8
 1974 13d4 043084E5 		str	r3, [r4, #4]
 1975 13d8 000050E3 		cmp	r0, #0
 1976 13dc 5A05000A 		beq	.L268
 1977              		.loc 1 683 0
 1978 13e0 0210D5E5 		ldrb	r1, [r5, #2]	@ zero_extendqisi2
 1979 13e4 011081E2 		add	r1, r1, #1
 1980 13e8 FF1001E2 		and	r1, r1, #255
 1981 13ec 0210C5E5 		strb	r1, [r5, #2]
 1982              		.loc 1 684 0
 1983 13f0 0330D5E5 		ldrb	r3, [r5, #3]	@ zero_extendqisi2
 1984 13f4 040095E5 		ldr	r0, [r5, #4]
 1985 13f8 000483E1 		orr	r0, r3, r0, asl #8
 1986 13fc 8111A0E1 		mov	r1, r1, asl #3
 1987 1400 FEFFFFEB 		bl	realloc
 1988 1404 0300C5E5 		strb	r0, [r5, #3]
 1989 1408 043095E5 		ldr	r3, [r5, #4]
 1990 140c FF3403E2 		and	r3, r3, #-16777216
 1991 1410 203483E1 		orr	r3, r3, r0, lsr #8
 1992 1414 043085E5 		str	r3, [r5, #4]
 1993 1418 000050E3 		cmp	r0, #0
 1994 141c 5A05000A 		beq	.L268
 1995              		.loc 1 688 0
 1996 1420 0200D5E5 		ldrb	r0, [r5, #2]	@ zero_extendqisi2
 1997 1424 010040E2 		sub	r0, r0, #1
 1998 1428 FF0000E2 		and	r0, r0, #255
 1999              	.LVL163:
 2000              		.loc 1 690 0
 2001 142c 0210D4E5 		ldrb	r1, [r4, #2]	@ zero_extendqisi2
 2002 1430 011041E2 		sub	r1, r1, #1
 2003 1434 FF1001E2 		and	r1, r1, #255
 2004 1438 8111A0E1 		mov	r1, r1, asl #3
 2005 143c 0330D4E5 		ldrb	r3, [r4, #3]	@ zero_extendqisi2
 2006 1440 042094E5 		ldr	r2, [r4, #4]
 2007 1444 023483E1 		orr	r3, r3, r2, asl #8
 2008 1448 0180C3E7 		strb	r8, [r3, r1]
 2009              		.loc 1 691 0
 2010 144c 0330D4E5 		ldrb	r3, [r4, #3]	@ zero_extendqisi2
 2011 1450 042094E5 		ldr	r2, [r4, #4]
 2012 1454 023483E1 		orr	r3, r3, r2, asl #8
 2013 1458 033081E0 		add	r3, r1, r3
 2014 145c 01B0C3E5 		strb	fp, [r3, #1]
 2015              		.loc 1 692 0
 2016 1460 0330D4E5 		ldrb	r3, [r4, #3]	@ zero_extendqisi2
 2017 1464 042094E5 		ldr	r2, [r4, #4]
 2018 1468 023483E1 		orr	r3, r3, r2, asl #8
 2019 146c 033081E0 		add	r3, r1, r3
 2020 1470 02A0C3E5 		strb	sl, [r3, #2]
 2021              		.loc 1 693 0
 2022 1474 0330D4E5 		ldrb	r3, [r4, #3]	@ zero_extendqisi2
 2023 1478 042094E5 		ldr	r2, [r4, #4]
 2024 147c 023483E1 		orr	r3, r3, r2, asl #8
 2025 1480 033081E0 		add	r3, r1, r3
 2026              	.LVL164:
ARM GAS  C:\DOCUME~1\TECHCO~1\LOCALS~1\Temp/ccQdbaaa.s 			page 56


 2027 1484 0720DDE5 		ldrb	r2, [sp, #7]	@ zero_extendqisi2
 2028 1488 0320C3E5 		strb	r2, [r3, #3]
 2029              		.loc 1 694 0
 2030 148c 0330D4E5 		ldrb	r3, [r4, #3]	@ zero_extendqisi2
 2031 1490 042094E5 		ldr	r2, [r4, #4]
 2032 1494 023483E1 		orr	r3, r3, r2, asl #8
 2033 1498 033081E0 		add	r3, r1, r3
 2034 149c 0460C3E5 		strb	r6, [r3, #4]
 2035              		.loc 1 695 0
 2036 14a0 0330D4E5 		ldrb	r3, [r4, #3]	@ zero_extendqisi2
 2037 14a4 042094E5 		ldr	r2, [r4, #4]
 2038 14a8 023483E1 		orr	r3, r3, r2, asl #8
 2039 14ac 033081E0 		add	r3, r1, r3
 2040 14b0 0590C3E5 		strb	r9, [r3, #5]
 2041              		.loc 1 696 0
 2042 14b4 0330D4E5 		ldrb	r3, [r4, #3]	@ zero_extendqisi2
 2043 14b8 042094E5 		ldr	r2, [r4, #4]
 2044 14bc 023483E1 		orr	r3, r3, r2, asl #8
 2045 14c0 031081E0 		add	r1, r1, r3
 2046 14c4 0670C1E5 		strb	r7, [r1, #6]
 2047              		.loc 1 698 0
 2048 14c8 8001A0E1 		mov	r0, r0, asl #3
 2049              	.LVL165:
 2050 14cc 0330D5E5 		ldrb	r3, [r5, #3]	@ zero_extendqisi2
 2051 14d0 042095E5 		ldr	r2, [r5, #4]
 2052 14d4 023483E1 		orr	r3, r3, r2, asl #8
 2053 14d8 0060C3E7 		strb	r6, [r3, r0]
 2054              		.loc 1 699 0
 2055 14dc 0330D5E5 		ldrb	r3, [r5, #3]	@ zero_extendqisi2
 2056 14e0 042095E5 		ldr	r2, [r5, #4]
 2057 14e4 023483E1 		orr	r3, r3, r2, asl #8
 2058 14e8 033080E0 		add	r3, r0, r3
 2059 14ec 0190C3E5 		strb	r9, [r3, #1]
 2060              		.loc 1 700 0
 2061 14f0 0330D5E5 		ldrb	r3, [r5, #3]	@ zero_extendqisi2
 2062 14f4 042095E5 		ldr	r2, [r5, #4]
 2063 14f8 023483E1 		orr	r3, r3, r2, asl #8
 2064 14fc 033080E0 		add	r3, r0, r3
 2065 1500 0270C3E5 		strb	r7, [r3, #2]
 2066              		.loc 1 701 0
 2067 1504 0330D5E5 		ldrb	r3, [r5, #3]	@ zero_extendqisi2
 2068 1508 042095E5 		ldr	r2, [r5, #4]
 2069 150c 023483E1 		orr	r3, r3, r2, asl #8
 2070 1510 033080E0 		add	r3, r0, r3
 2071 1514 0720DDE5 		ldrb	r2, [sp, #7]	@ zero_extendqisi2
 2072 1518 0320C3E5 		strb	r2, [r3, #3]
 2073              		.loc 1 702 0
 2074 151c 0330D5E5 		ldrb	r3, [r5, #3]	@ zero_extendqisi2
 2075 1520 042095E5 		ldr	r2, [r5, #4]
 2076 1524 023483E1 		orr	r3, r3, r2, asl #8
 2077 1528 033080E0 		add	r3, r0, r3
 2078 152c 0480C3E5 		strb	r8, [r3, #4]
 2079              		.loc 1 703 0
 2080 1530 0330D5E5 		ldrb	r3, [r5, #3]	@ zero_extendqisi2
 2081 1534 042095E5 		ldr	r2, [r5, #4]
 2082 1538 023483E1 		orr	r3, r3, r2, asl #8
 2083 153c 033080E0 		add	r3, r0, r3
ARM GAS  C:\DOCUME~1\TECHCO~1\LOCALS~1\Temp/ccQdbaaa.s 			page 57


 2084 1540 05B0C3E5 		strb	fp, [r3, #5]
 2085              		.loc 1 704 0
 2086 1544 0330D5E5 		ldrb	r3, [r5, #3]	@ zero_extendqisi2
 2087 1548 042095E5 		ldr	r2, [r5, #4]
 2088 154c 023483E1 		orr	r3, r3, r2, asl #8
 2089 1550 030080E0 		add	r0, r0, r3
 2090 1554 06A0C0E5 		strb	sl, [r0, #6]
 2091 1558 00009DE5 		ldr	r0, [sp, #0]
 2092 155c 5B0500EA 		b	.L261
 2093              	.LVL166:
 2094              	.L262:
 2095              		.loc 1 706 0
 2096 1560 0700A0E3 		mov	r0, #7
 2097 1564 5B0500EA 		b	.L261
 2098              	.LVL167:
 2099              	.L265:
 2100 1568 0900A0E3 		mov	r0, #9
 2101 156c 5B0500EA 		b	.L261
 2102              	.L268:
 2103 1570 0500A0E3 		mov	r0, #5
 2104              	.LVL168:
 2105              	.L261:
 2106              		.loc 1 707 0
 2107 1574 08D08DE2 		add	sp, sp, #8
 2108 1578 F08FBDE8 		ldmfd	sp!, {r4, r5, r6, r7, r8, r9, sl, fp, pc}
 2109              	.LFE23:
 2110              		.size	insertNewLinkEntry, .-insertNewLinkEntry
 2111              		.align	2
 2112              		.global	insertNewCubeEntry
 2113              		.type	insertNewCubeEntry, %function
 2114              	insertNewCubeEntry:
 2115              	.LFB22:
 2116              		.loc 1 629 0
 2117              		@ args = 0, pretend = 0, frame = 0
 2118              		@ frame_needed = 0, uses_anonymous_args = 0
 2119              	.LVL169:
 2120 157c 70402DE9 		stmfd	sp!, {r4, r5, r6, lr}
 2121              	.LCFI17:
 2122 1580 0040A0E1 		mov	r4, r0
 2123 1584 FF5001E2 		and	r5, r1, #255
 2124 1588 FF6002E2 		and	r6, r2, #255
 2125              		.loc 1 631 0
 2126 158c 0510A0E1 		mov	r1, r5
 2127 1590 FEFFFFEB 		bl	getCube
 2128              	.LVL170:
 2129 1594 000050E3 		cmp	r0, #0
 2130 1598 0A00A013 		movne	r0, #10
 2131 159c 7080BD18 		ldmnefd	sp!, {r4, r5, r6, pc}
 2132              		.loc 1 635 0
 2133 15a0 0010D4E5 		ldrb	r1, [r4, #0]	@ zero_extendqisi2
 2134 15a4 011081E2 		add	r1, r1, #1
 2135 15a8 FF1001E2 		and	r1, r1, #255
 2136 15ac 0010C4E5 		strb	r1, [r4, #0]
 2137              		.loc 1 636 0
 2138 15b0 003094E5 		ldr	r3, [r4, #0]
 2139 15b4 0400D4E5 		ldrb	r0, [r4, #4]	@ zero_extendqisi2
 2140 15b8 000CA0E1 		mov	r0, r0, asl #24
ARM GAS  C:\DOCUME~1\TECHCO~1\LOCALS~1\Temp/ccQdbaaa.s 			page 58


 2141 15bc 230480E1 		orr	r0, r0, r3, lsr #8
 2142 15c0 8111A0E1 		mov	r1, r1, asl #3
 2143 15c4 FEFFFFEB 		bl	realloc
 2144 15c8 0030D4E5 		ldrb	r3, [r4, #0]	@ zero_extendqisi2
 2145 15cc 003483E1 		orr	r3, r3, r0, asl #8
 2146 15d0 003084E5 		str	r3, [r4, #0]
 2147 15d4 203CA0E1 		mov	r3, r0, lsr #24
 2148 15d8 0430C4E5 		strb	r3, [r4, #4]
 2149 15dc 000050E3 		cmp	r0, #0
 2150 15e0 05008002 		addeq	r0, r0, #5
 2151 15e4 7080BD08 		ldmeqfd	sp!, {r4, r5, r6, pc}
 2152              		.loc 1 639 0
 2153 15e8 0030D4E5 		ldrb	r3, [r4, #0]	@ zero_extendqisi2
 2154 15ec 833180E0 		add	r3, r0, r3, asl #3
 2155 15f0 082043E2 		sub	r2, r3, #8
 2156              	.LVL171:
 2157              		.loc 1 641 0
 2158 15f4 085043E5 		strb	r5, [r3, #-8]
 2159              		.loc 1 642 0
 2160 15f8 0160C2E5 		strb	r6, [r2, #1]
 2161              		.loc 1 643 0
 2162 15fc 0010A0E3 		mov	r1, #0
 2163 1600 0210C2E5 		strb	r1, [r2, #2]
 2164              		.loc 1 644 0
 2165 1604 0310C2E5 		strb	r1, [r2, #3]
 2166 1608 043092E5 		ldr	r3, [r2, #4]
 2167 160c FF3403E2 		and	r3, r3, #-16777216
 2168 1610 043082E5 		str	r3, [r2, #4]
 2169 1614 0100A0E1 		mov	r0, r1
 2170              		.loc 1 647 0
 2171 1618 7080BDE8 		ldmfd	sp!, {r4, r5, r6, pc}
 2172              	.LFE22:
 2173              		.size	insertNewCubeEntry, .-insertNewCubeEntry
 2174              		.align	2
 2175              		.global	insertInitialState
 2176              		.type	insertInitialState, %function
 2177              	insertInitialState:
 2178              	.LFB17:
 2179              		.loc 1 551 0
 2180              		@ args = 4, pretend = 0, frame = 0
 2181              		@ frame_needed = 0, uses_anonymous_args = 0
 2182              	.LVL172:
 2183 161c F0412DE9 		stmfd	sp!, {r4, r5, r6, r7, r8, lr}
 2184              	.LCFI18:
 2185 1620 04D04DE2 		sub	sp, sp, #4
 2186              	.LCFI19:
 2187 1624 0040A0E1 		mov	r4, r0
 2188 1628 1C809DE5 		ldr	r8, [sp, #28]
 2189 162c FF5001E2 		and	r5, r1, #255
 2190 1630 FF6002E2 		and	r6, r2, #255
 2191 1634 FF7003E2 		and	r7, r3, #255
 2192              		.loc 1 552 0
 2193 1638 0030A0E3 		mov	r3, #0
 2194              	.LVL173:
 2195 163c 00308DE5 		str	r3, [sp, #0]
 2196 1640 0510A0E1 		mov	r1, r5
 2197 1644 0620A0E1 		mov	r2, r6
ARM GAS  C:\DOCUME~1\TECHCO~1\LOCALS~1\Temp/ccQdbaaa.s 			page 59


 2198 1648 0730A0E1 		mov	r3, r7
 2199 164c FEFFFFEB 		bl	getInitialState
 2200              	.LVL174:
 2201 1650 0C0050E3 		cmp	r0, #12
 2202 1654 0D00A013 		movne	r0, #13
 2203 1658 C105001A 		bne	.L282
 2204              	.LVL175:
 2205              		.loc 1 555 0
 2206 165c 043094E5 		ldr	r3, [r4, #4]
 2207 1660 0810D4E5 		ldrb	r1, [r4, #8]	@ zero_extendqisi2
 2208 1664 011CA0E1 		mov	r1, r1, asl #24
 2209 1668 231481E1 		orr	r1, r1, r3, lsr #8
 2210 166c 011081E2 		add	r1, r1, #1
 2211 1670 FF3003E2 		and	r3, r3, #255
 2212 1674 013483E1 		orr	r3, r3, r1, asl #8
 2213 1678 043084E5 		str	r3, [r4, #4]
 2214 167c 213CA0E1 		mov	r3, r1, lsr #24
 2215 1680 0830C4E5 		strb	r3, [r4, #8]
 2216              		.loc 1 556 0
 2217 1684 083094E5 		ldr	r3, [r4, #8]
 2218 1688 0C00D4E5 		ldrb	r0, [r4, #12]	@ zero_extendqisi2
 2219 168c 000CA0E1 		mov	r0, r0, asl #24
 2220 1690 811081E0 		add	r1, r1, r1, asl #1
 2221 1694 230480E1 		orr	r0, r0, r3, lsr #8
 2222 1698 0111A0E1 		mov	r1, r1, asl #2
 2223 169c FEFFFFEB 		bl	realloc
 2224 16a0 0830D4E5 		ldrb	r3, [r4, #8]	@ zero_extendqisi2
 2225 16a4 003483E1 		orr	r3, r3, r0, asl #8
 2226 16a8 083084E5 		str	r3, [r4, #8]
 2227 16ac 203CA0E1 		mov	r3, r0, lsr #24
 2228 16b0 0C30C4E5 		strb	r3, [r4, #12]
 2229 16b4 000050E3 		cmp	r0, #0
 2230 16b8 05008002 		addeq	r0, r0, #5
 2231 16bc C105000A 		beq	.L282
 2232              		.loc 1 559 0
 2233 16c0 042094E5 		ldr	r2, [r4, #4]
 2234 16c4 0830D4E5 		ldrb	r3, [r4, #8]	@ zero_extendqisi2
 2235 16c8 033CA0E1 		mov	r3, r3, asl #24
 2236 16cc 223483E1 		orr	r3, r3, r2, lsr #8
 2237 16d0 833083E0 		add	r3, r3, r3, asl #1
 2238 16d4 033180E0 		add	r3, r0, r3, asl #2
 2239 16d8 0C2043E2 		sub	r2, r3, #12
 2240              	.LVL176:
 2241              		.loc 1 561 0
 2242 16dc 0C5043E5 		strb	r5, [r3, #-12]
 2243              		.loc 1 562 0
 2244 16e0 0160C2E5 		strb	r6, [r2, #1]
 2245              		.loc 1 563 0
 2246 16e4 0010A0E3 		mov	r1, #0
 2247 16e8 B210C2E1 		strh	r1, [r2, #2]	@ movhi
 2248 16ec B410C2E1 		strh	r1, [r2, #4]	@ movhi
 2249              		.loc 1 564 0
 2250 16f0 0670C2E5 		strb	r7, [r2, #6]
 2251              		.loc 1 565 0
 2252 16f4 0780C2E5 		strb	r8, [r2, #7]
 2253 16f8 083092E5 		ldr	r3, [r2, #8]
 2254 16fc FF3403E2 		and	r3, r3, #-16777216
ARM GAS  C:\DOCUME~1\TECHCO~1\LOCALS~1\Temp/ccQdbaaa.s 			page 60


 2255 1700 283483E1 		orr	r3, r3, r8, lsr #8
 2256 1704 083082E5 		str	r3, [r2, #8]
 2257 1708 0100A0E1 		mov	r0, r1
 2258              	.L282:
 2259              		.loc 1 568 0
 2260 170c 04D08DE2 		add	sp, sp, #4
 2261 1710 F081BDE8 		ldmfd	sp!, {r4, r5, r6, r7, r8, pc}
 2262              	.LFE17:
 2263              		.size	insertInitialState, .-insertInitialState
 2264              		.section	.rodata.str1.4
 2265 025f 00       		.align	2
 2266              	.LC18:
 2267 0260 49442000 		.ascii	"ID \000"
 2268              		.align	2
 2269              	.LC19:
 2270 0264 436C6173 		.ascii	"Class \000"
 2270      732000
 2271 026b 00       		.align	2
 2272              	.LC20:
 2273 026c 436D6420 		.ascii	"Cmd \000"
 2273      00
 2274 0271 000000   		.align	2
 2275              	.LC21:
 2276 0274 50617261 		.ascii	"Params \000"
 2276      6D732000 
 2277              		.text
 2278              		.align	2
 2279              		.global	printExternalCommand
 2280              		.type	printExternalCommand, %function
 2281              	printExternalCommand:
 2282              	.LFB15:
 2283              		.loc 1 508 0
 2284              		@ args = 0, pretend = 0, frame = 0
 2285              		@ frame_needed = 0, uses_anonymous_args = 0
 2286 1714 30402DE9 		stmfd	sp!, {r4, r5, lr}
 2287              	.LCFI20:
 2288              		.loc 1 509 0
 2289 1718 0000A0E3 		mov	r0, #0
 2290 171c 90109FE5 		ldr	r1, .L292
 2291 1720 FEFFFFEB 		bl	rprintf1RamRom
 2292              		.loc 1 510 0
 2293 1724 8C409FE5 		ldr	r4, .L292+4
 2294 1728 0000D4E5 		ldrb	r0, [r4, #0]	@ zero_extendqisi2
 2295 172c FEFFFFEB 		bl	rprintfu08
 2296              		.loc 1 511 0
 2297 1730 FEFFFFEB 		bl	rprintfCRLF
 2298              		.loc 1 512 0
 2299 1734 0000A0E3 		mov	r0, #0
 2300 1738 7C109FE5 		ldr	r1, .L292+8
 2301 173c FEFFFFEB 		bl	rprintf1RamRom
 2302              		.loc 1 513 0
 2303 1740 0100D4E5 		ldrb	r0, [r4, #1]	@ zero_extendqisi2
 2304 1744 FEFFFFEB 		bl	rprintfu08
 2305              		.loc 1 514 0
 2306 1748 FEFFFFEB 		bl	rprintfCRLF
 2307              		.loc 1 515 0
 2308 174c 0000A0E3 		mov	r0, #0
ARM GAS  C:\DOCUME~1\TECHCO~1\LOCALS~1\Temp/ccQdbaaa.s 			page 61


 2309 1750 68109FE5 		ldr	r1, .L292+12
 2310 1754 FEFFFFEB 		bl	rprintf1RamRom
 2311              		.loc 1 516 0
 2312 1758 0200D4E5 		ldrb	r0, [r4, #2]	@ zero_extendqisi2
 2313 175c FEFFFFEB 		bl	rprintfu08
 2314              		.loc 1 517 0
 2315 1760 FEFFFFEB 		bl	rprintfCRLF
 2316              		.loc 1 518 0
 2317 1764 0000A0E3 		mov	r0, #0
 2318 1768 54109FE5 		ldr	r1, .L292+16
 2319 176c FEFFFFEB 		bl	rprintf1RamRom
 2320              		.loc 1 519 0
 2321 1770 8300D4E5 		ldrb	r0, [r4, #131]	@ zero_extendqisi2
 2322 1774 FEFFFFEB 		bl	rprintfu08
 2323              		.loc 1 520 0
 2324 1778 FEFFFFEB 		bl	rprintfCRLF
 2325              		.loc 1 522 0
 2326 177c 8330D4E5 		ldrb	r3, [r4, #131]	@ zero_extendqisi2
 2327 1780 000053E3 		cmp	r3, #0
 2328 1784 E90500DA 		ble	.L287
 2329 1788 0040A0E3 		mov	r4, #0
 2330              	.LVL177:
 2331 178c 24509FE5 		ldr	r5, .L292+4
 2332              	.L289:
 2333              		.loc 1 524 0
 2334 1790 053084E0 		add	r3, r4, r5
 2335 1794 0300D3E5 		ldrb	r0, [r3, #3]	@ zero_extendqisi2
 2336 1798 FEFFFFEB 		bl	rprintfu08
 2337              		.loc 1 522 0
 2338 179c 014084E2 		add	r4, r4, #1
 2339 17a0 8330D5E5 		ldrb	r3, [r5, #131]	@ zero_extendqisi2
 2340 17a4 040053E1 		cmp	r3, r4
 2341 17a8 E20500CA 		bgt	.L289
 2342              	.L287:
 2343              		.loc 1 526 0
 2344 17ac FEFFFFEB 		bl	rprintfCRLF
 2345              		.loc 1 527 0
 2346 17b0 3080BDE8 		ldmfd	sp!, {r4, r5, pc}
 2347              	.L293:
 2348              		.align	2
 2349              	.L292:
 2350 17b4 60020000 		.word	.LC18
 2351 17b8 00000000 		.word	ext_busRxPkt
 2352 17bc 64020000 		.word	.LC19
 2353 17c0 6C020000 		.word	.LC20
 2354 17c4 74020000 		.word	.LC21
 2355              	.LFE15:
 2356              		.size	printExternalCommand, .-printExternalCommand
 2357              		.align	2
 2358              		.global	setOrientationPin
 2359              		.type	setOrientationPin, %function
 2360              	setOrientationPin:
 2361              	.LFB14:
 2362              		.loc 1 464 0
 2363              		@ args = 4, pretend = 0, frame = 4
 2364              		@ frame_needed = 0, uses_anonymous_args = 0
 2365              	.LVL178:
ARM GAS  C:\DOCUME~1\TECHCO~1\LOCALS~1\Temp/ccQdbaaa.s 			page 62


 2366 17c8 F0402DE9 		stmfd	sp!, {r4, r5, r6, r7, lr}
 2367              	.LCFI21:
 2368 17cc 08D04DE2 		sub	sp, sp, #8
 2369              	.LCFI22:
 2370 17d0 0340A0E1 		mov	r4, r3
 2371 17d4 1C509DE5 		ldr	r5, [sp, #28]
 2372 17d8 FF7000E2 		and	r7, r0, #255
 2373 17dc FF0001E2 		and	r0, r1, #255
 2374              	.LVL179:
 2375 17e0 FF3002E2 		and	r3, r2, #255
 2376              	.LVL180:
 2377 17e4 FFC004E2 		and	ip, r4, #255
 2378 17e8 FFE005E2 		and	lr, r5, #255
 2379              		.loc 1 468 0
 2380 17ec 0F0053E3 		cmp	r3, #15
 2381 17f0 3506008A 		bhi	.L295
 2382              	.LVL181:
 2383              		.loc 1 470 0
 2384 17f4 03005CE3 		cmp	ip, #3
 2385 17f8 3506008A 		bhi	.L295
 2386              		.loc 1 472 0
 2387 17fc 01005EE3 		cmp	lr, #1
 2388 1800 3506008A 		bhi	.L295
 2389              		.loc 1 478 0
 2390 1804 0F2002E2 		and	r2, r2, #15
 2391 1808 033004E2 		and	r3, r4, #3
 2392              	.LVL182:
 2393 180c 0331A0E1 		mov	r3, r3, asl #2
 2394 1810 023283E1 		orr	r3, r3, r2, asl #4
 2395 1814 012005E2 		and	r2, r5, #1
 2396 1818 023083E1 		orr	r3, r3, r2
 2397 181c 08208DE2 		add	r2, sp, #8
 2398 1820 013062E5 		strb	r3, [r2, #-1]!
 2399              	.LVL183:
 2400              		.loc 1 480 0
 2401 1824 0060A0E1 		mov	r6, r0
 2402 1828 0750A0E1 		mov	r5, r7
 2403 182c 00208DE5 		str	r2, [sp, #0]
 2404              	.LVL184:
 2405 1830 0710A0E1 		mov	r1, r7
 2406 1834 0820A0E3 		mov	r2, #8
 2407 1838 0130A0E3 		mov	r3, #1
 2408 183c FEFFFFEB 		bl	cmd_BuildPacket
 2409              	.LVL185:
 2410              		.loc 1 481 0
 2411 1840 0100A0E3 		mov	r0, #1
 2412 1844 FEFFFFEB 		bl	cmd_Execute
 2413 1848 0040A0E3 		mov	r4, #0
 2414              	.LVL186:
 2415 184c 4E3DA0E3 		mov	r3, #4992
 2416 1850 087083E2 		add	r7, r3, #8
 2417 1854 150600EA 		b	.L299
 2418              	.L300:
 2419              		.loc 1 490 0
 2420 1858 014084E2 		add	r4, r4, #1
 2421              	.L299:
 2422              		.loc 1 485 0
ARM GAS  C:\DOCUME~1\TECHCO~1\LOCALS~1\Temp/ccQdbaaa.s 			page 63


 2423 185c 0100A0E3 		mov	r0, #1
 2424 1860 FEFFFFEB 		bl	uartGetRxBuffer
 2425 1864 0030A0E1 		mov	r3, r0
 2426 1868 0100A0E3 		mov	r0, #1
 2427 186c 0610A0E1 		mov	r1, r6
 2428 1870 0520A0E1 		mov	r2, r5
 2429 1874 FEFFFFEB 		bl	packetRxProcess
 2430 1878 000050E3 		cmp	r0, #0
 2431 187c 2106001A 		bne	.L301
 2432 1880 070054E1 		cmp	r4, r7
 2433 1884 1406001A 		bne	.L300
 2434 1888 390600EA 		b	.L303
 2435              	.L301:
 2436              		.loc 1 491 0
 2437 188c 4E3DA0E3 		mov	r3, #4992
 2438 1890 073083E2 		add	r3, r3, #7
 2439 1894 030054E1 		cmp	r4, r3
 2440 1898 3906008A 		bhi	.L303
 2441              		.loc 1 493 0
 2442 189c 54309FE5 		ldr	r3, .L313
 2443 18a0 8300D3E5 		ldrb	r0, [r3, #131]	@ zero_extendqisi2
 2444 18a4 000050E3 		cmp	r0, #0
 2445 18a8 2D06001A 		bne	.L305
 2446 18ac 0230D3E5 		ldrb	r3, [r3, #2]	@ zero_extendqisi2
 2447 18b0 080053E3 		cmp	r3, #8
 2448 18b4 3706001A 		bne	.L307
 2449 18b8 3A0600EA 		b	.L309
 2450              	.L305:
 2451              		.loc 1 496 0
 2452 18bc 010050E3 		cmp	r0, #1
 2453 18c0 3706001A 		bne	.L307
 2454 18c4 2C309FE5 		ldr	r3, .L313
 2455 18c8 0330D3E5 		ldrb	r3, [r3, #3]	@ zero_extendqisi2
 2456 18cc 030053E3 		cmp	r3, #3
 2457 18d0 0F008002 		addeq	r0, r0, #15
 2458 18d4 3A06000A 		beq	.L309
 2459 18d8 370600EA 		b	.L307
 2460              	.LVL187:
 2461              	.L295:
 2462 18dc 0400A0E3 		mov	r0, #4
 2463              	.LVL188:
 2464 18e0 3A0600EA 		b	.L309
 2465              	.LVL189:
 2466              	.L307:
 2467 18e4 0200A0E3 		mov	r0, #2
 2468 18e8 3A0600EA 		b	.L309
 2469              	.L303:
 2470 18ec 0300A0E3 		mov	r0, #3
 2471              	.LVL190:
 2472              	.L309:
 2473              		.loc 1 505 0
 2474 18f0 08D08DE2 		add	sp, sp, #8
 2475 18f4 F080BDE8 		ldmfd	sp!, {r4, r5, r6, r7, pc}
 2476              	.L314:
 2477              		.align	2
 2478              	.L313:
 2479 18f8 00000000 		.word	ext_busRxPkt
ARM GAS  C:\DOCUME~1\TECHCO~1\LOCALS~1\Temp/ccQdbaaa.s 			page 64


 2480              	.LFE14:
 2481              		.size	setOrientationPin, .-setOrientationPin
 2482              		.align	2
 2483              		.global	setOrientationPin_AR
 2484              		.type	setOrientationPin_AR, %function
 2485              	setOrientationPin_AR:
 2486              	.LFB13:
 2487              		.loc 1 445 0
 2488              		@ args = 8, pretend = 0, frame = 0
 2489              		@ frame_needed = 0, uses_anonymous_args = 0
 2490              	.LVL191:
 2491 18fc F0472DE9 		stmfd	sp!, {r4, r5, r6, r7, r8, r9, sl, lr}
 2492              	.LCFI23:
 2493 1900 04D04DE2 		sub	sp, sp, #4
 2494              	.LCFI24:
 2495 1904 FF9001E2 		and	r9, r1, #255
 2496 1908 FFA002E2 		and	sl, r2, #255
 2497 190c FF8003E2 		and	r8, r3, #255
 2498 1910 2470DDE5 		ldrb	r7, [sp, #36]	@ zero_extendqisi2
 2499 1914 2860DDE5 		ldrb	r6, [sp, #40]	@ zero_extendqisi2
 2500              		.loc 1 448 0
 2501 1918 FF5010E2 		ands	r5, r0, #255
 2502 191c 0300A003 		moveq	r0, #3
 2503              	.LVL192:
 2504 1920 5406000A 		beq	.L318
 2505              	.LVL193:
 2506 1924 0040A0E3 		mov	r4, #0
 2507              	.LVL194:
 2508              	.L319:
 2509              		.loc 1 450 0
 2510 1928 00608DE5 		str	r6, [sp, #0]
 2511 192c 0900A0E1 		mov	r0, r9
 2512              	.LVL195:
 2513 1930 0A10A0E1 		mov	r1, sl
 2514 1934 0820A0E1 		mov	r2, r8
 2515 1938 0730A0E1 		mov	r3, r7
 2516 193c FEFFFFEB 		bl	setOrientationPin
 2517              	.LVL196:
 2518              		.loc 1 451 0
 2519 1940 030050E3 		cmp	r0, #3
 2520 1944 5406001A 		bne	.L318
 2521              		.loc 1 448 0
 2522 1948 013084E2 		add	r3, r4, #1
 2523 194c FF4003E2 		and	r4, r3, #255
 2524 1950 040055E1 		cmp	r5, r4
 2525 1954 4806001A 		bne	.L319
 2526              	.LVL197:
 2527              	.L318:
 2528              	.LVL198:
 2529              		.loc 1 455 0
 2530 1958 04D08DE2 		add	sp, sp, #4
 2531 195c F087BDE8 		ldmfd	sp!, {r4, r5, r6, r7, r8, r9, sl, pc}
 2532              	.LFE13:
 2533              		.size	setOrientationPin_AR, .-setOrientationPin_AR
 2534              		.align	2
 2535              		.global	getMeasuredAngle
 2536              		.type	getMeasuredAngle, %function
ARM GAS  C:\DOCUME~1\TECHCO~1\LOCALS~1\Temp/ccQdbaaa.s 			page 65


 2537              	getMeasuredAngle:
 2538              	.LFB12:
 2539              		.loc 1 419 0
 2540              		@ args = 0, pretend = 0, frame = 0
 2541              		@ frame_needed = 0, uses_anonymous_args = 0
 2542              	.LVL199:
 2543 1960 F0412DE9 		stmfd	sp!, {r4, r5, r6, r7, r8, lr}
 2544              	.LCFI25:
 2545 1964 04D04DE2 		sub	sp, sp, #4
 2546              	.LCFI26:
 2547 1968 0280A0E1 		mov	r8, r2
 2548 196c FF0000E2 		and	r0, r0, #255
 2549 1970 FF6001E2 		and	r6, r1, #255
 2550              		.loc 1 420 0
 2551 1974 0050A0E1 		mov	r5, r0
 2552 1978 0040A0E3 		mov	r4, #0
 2553 197c 00408DE5 		str	r4, [sp, #0]
 2554 1980 0600A0E1 		mov	r0, r6
 2555              	.LVL200:
 2556 1984 0510A0E1 		mov	r1, r5
 2557              	.LVL201:
 2558 1988 0720A0E3 		mov	r2, #7
 2559              	.LVL202:
 2560 198c 0430A0E1 		mov	r3, r4
 2561 1990 FEFFFFEB 		bl	cmd_BuildPacket
 2562              		.loc 1 421 0
 2563 1994 0100A0E3 		mov	r0, #1
 2564 1998 FEFFFFEB 		bl	cmd_Execute
 2565 199c 4E3DA0E3 		mov	r3, #4992
 2566 19a0 087083E2 		add	r7, r3, #8
 2567 19a4 690600EA 		b	.L324
 2568              	.LVL203:
 2569              	.L325:
 2570              		.loc 1 430 0
 2571 19a8 014084E2 		add	r4, r4, #1
 2572              	.L324:
 2573              		.loc 1 425 0
 2574 19ac 0100A0E3 		mov	r0, #1
 2575 19b0 FEFFFFEB 		bl	uartGetRxBuffer
 2576 19b4 0030A0E1 		mov	r3, r0
 2577 19b8 0100A0E3 		mov	r0, #1
 2578 19bc 0610A0E1 		mov	r1, r6
 2579 19c0 0520A0E1 		mov	r2, r5
 2580 19c4 FEFFFFEB 		bl	packetRxProcess
 2581 19c8 000050E3 		cmp	r0, #0
 2582 19cc 7506001A 		bne	.L326
 2583 19d0 070054E1 		cmp	r4, r7
 2584 19d4 6806001A 		bne	.L325
 2585 19d8 8B0600EA 		b	.L328
 2586              	.L326:
 2587              		.loc 1 431 0
 2588 19dc 4E3DA0E3 		mov	r3, #4992
 2589 19e0 073083E2 		add	r3, r3, #7
 2590 19e4 030054E1 		cmp	r4, r3
 2591 19e8 8B06008A 		bhi	.L328
 2592              		.loc 1 433 0
 2593 19ec 4C209FE5 		ldr	r2, .L335
ARM GAS  C:\DOCUME~1\TECHCO~1\LOCALS~1\Temp/ccQdbaaa.s 			page 66


 2594 19f0 8330D2E5 		ldrb	r3, [r2, #131]	@ zero_extendqisi2
 2595 19f4 020053E3 		cmp	r3, #2
 2596 19f8 8906001A 		bne	.L330
 2597 19fc 0230D2E5 		ldrb	r3, [r2, #2]	@ zero_extendqisi2
 2598 1a00 070053E3 		cmp	r3, #7
 2599 1a04 8906001A 		bne	.L330
 2600              		.loc 1 436 0
 2601 1a08 0430D2E5 		ldrb	r3, [r2, #4]	@ zero_extendqisi2
 2602 1a0c 0F3003E2 		and	r3, r3, #15
 2603 1a10 0334A0E1 		mov	r3, r3, asl #8
 2604 1a14 B030C8E1 		strh	r3, [r8, #0]	@ movhi
 2605              		.loc 1 437 0
 2606 1a18 0320D2E5 		ldrb	r2, [r2, #3]	@ zero_extendqisi2
 2607 1a1c 023083E1 		orr	r3, r3, r2
 2608 1a20 B030C8E1 		strh	r3, [r8, #0]	@ movhi
 2609 1a24 0000A0E3 		mov	r0, #0
 2610 1a28 8C0600EA 		b	.L333
 2611              	.L330:
 2612              		.loc 1 438 0
 2613 1a2c 0200A0E3 		mov	r0, #2
 2614 1a30 8C0600EA 		b	.L333
 2615              	.L328:
 2616 1a34 0300A0E3 		mov	r0, #3
 2617              	.L333:
 2618              		.loc 1 442 0
 2619 1a38 04D08DE2 		add	sp, sp, #4
 2620 1a3c F081BDE8 		ldmfd	sp!, {r4, r5, r6, r7, r8, pc}
 2621              	.L336:
 2622              		.align	2
 2623              	.L335:
 2624 1a40 00000000 		.word	ext_busRxPkt
 2625              	.LFE12:
 2626              		.size	getMeasuredAngle, .-getMeasuredAngle
 2627              		.align	2
 2628              		.global	getMeasuredAngle_AR
 2629              		.type	getMeasuredAngle_AR, %function
 2630              	getMeasuredAngle_AR:
 2631              	.LFB11:
 2632              		.loc 1 406 0
 2633              		@ args = 0, pretend = 0, frame = 0
 2634              		@ frame_needed = 0, uses_anonymous_args = 0
 2635              	.LVL204:
 2636 1a44 F0412DE9 		stmfd	sp!, {r4, r5, r6, r7, r8, lr}
 2637              	.LCFI27:
 2638 1a48 0380A0E1 		mov	r8, r3
 2639 1a4c FF7001E2 		and	r7, r1, #255
 2640 1a50 FF6002E2 		and	r6, r2, #255
 2641              		.loc 1 409 0
 2642 1a54 FF5010E2 		ands	r5, r0, #255
 2643 1a58 0300A003 		moveq	r0, #3
 2644              	.LVL205:
 2645 1a5c F081BD08 		ldmeqfd	sp!, {r4, r5, r6, r7, r8, pc}
 2646              	.LVL206:
 2647 1a60 0040A0E3 		mov	r4, #0
 2648              	.LVL207:
 2649              	.L341:
 2650              		.loc 1 411 0
ARM GAS  C:\DOCUME~1\TECHCO~1\LOCALS~1\Temp/ccQdbaaa.s 			page 67


 2651 1a64 0700A0E1 		mov	r0, r7
 2652              	.LVL208:
 2653 1a68 0610A0E1 		mov	r1, r6
 2654 1a6c 0820A0E1 		mov	r2, r8
 2655 1a70 FEFFFFEB 		bl	getMeasuredAngle
 2656              	.LVL209:
 2657              		.loc 1 412 0
 2658 1a74 030050E3 		cmp	r0, #3
 2659 1a78 F081BD18 		ldmnefd	sp!, {r4, r5, r6, r7, r8, pc}
 2660              		.loc 1 409 0
 2661 1a7c 013084E2 		add	r3, r4, #1
 2662 1a80 FF4003E2 		and	r4, r3, #255
 2663 1a84 040055E1 		cmp	r5, r4
 2664 1a88 9706001A 		bne	.L341
 2665              	.LVL210:
 2666              		.loc 1 416 0
 2667 1a8c F081BDE8 		ldmfd	sp!, {r4, r5, r6, r7, r8, pc}
 2668              	.LFE11:
 2669              		.size	getMeasuredAngle_AR, .-getMeasuredAngle_AR
 2670              		.align	2
 2671              		.global	setInitialState
 2672              		.type	setInitialState, %function
 2673              	setInitialState:
 2674              	.LFB16:
 2675              		.loc 1 531 0
 2676              		@ args = 0, pretend = 0, frame = 4
 2677              		@ frame_needed = 0, uses_anonymous_args = 0
 2678              	.LVL211:
 2679 1a90 30402DE9 		stmfd	sp!, {r4, r5, lr}
 2680              	.LCFI28:
 2681 1a94 08D04DE2 		sub	sp, sp, #8
 2682              	.LCFI29:
 2683 1a98 0050A0E1 		mov	r5, r0
 2684 1a9c FF1001E2 		and	r1, r1, #255
 2685 1aa0 FF2002E2 		and	r2, r2, #255
 2686              		.loc 1 532 0
 2687 1aa4 FA0052E3 		cmp	r2, #250
 2688 1aa8 0F00A013 		movne	r0, #15
 2689              	.LVL212:
 2690 1aac BC06001A 		bne	.L348
 2691              	.LBB3:
 2692              		.loc 1 537 0
 2693 1ab0 0140A0E1 		mov	r4, r1
 2694 1ab4 0500A0E3 		mov	r0, #5
 2695 1ab8 FA20A0E3 		mov	r2, #250
 2696              	.LVL213:
 2697 1abc 06308DE2 		add	r3, sp, #6
 2698 1ac0 FEFFFFEB 		bl	getMeasuredAngle_AR
 2699              	.LVL214:
 2700 1ac4 000050E3 		cmp	r0, #0
 2701 1ac8 0200A013 		movne	r0, #2
 2702 1acc BC06001A 		bne	.L348
 2703              	.LVL215:
 2704              		.loc 1 542 0
 2705 1ad0 B630DDE1 		ldrh	r3, [sp, #6]
 2706 1ad4 00308DE5 		str	r3, [sp, #0]
 2707 1ad8 0500A0E1 		mov	r0, r5
ARM GAS  C:\DOCUME~1\TECHCO~1\LOCALS~1\Temp/ccQdbaaa.s 			page 68


 2708 1adc 0410A0E1 		mov	r1, r4
 2709 1ae0 FA20A0E3 		mov	r2, #250
 2710 1ae4 0030A0E3 		mov	r3, #0
 2711 1ae8 FEFFFFEB 		bl	insertInitialState
 2712 1aec 000050E3 		cmp	r0, #0
 2713 1af0 0E00A013 		movne	r0, #14
 2714 1af4 0000A003 		moveq	r0, #0
 2715              	.LVL216:
 2716              	.L348:
 2717              	.LBE3:
 2718              		.loc 1 548 0
 2719 1af8 08D08DE2 		add	sp, sp, #8
 2720 1afc 3080BDE8 		ldmfd	sp!, {r4, r5, pc}
 2721              	.LFE16:
 2722              		.size	setInitialState, .-setInitialState
 2723              		.align	2
 2724              		.global	getOrientationPins
 2725              		.type	getOrientationPins, %function
 2726              	getOrientationPins:
 2727              	.LFB7:
 2728              		.loc 1 294 0
 2729              		@ args = 0, pretend = 0, frame = 0
 2730              		@ frame_needed = 0, uses_anonymous_args = 0
 2731              	.LVL217:
 2732 1b00 F0452DE9 		stmfd	sp!, {r4, r5, r6, r7, r8, sl, lr}
 2733              	.LCFI30:
 2734 1b04 04D04DE2 		sub	sp, sp, #4
 2735              	.LCFI31:
 2736 1b08 0280A0E1 		mov	r8, r2
 2737 1b0c 03A0A0E1 		mov	sl, r3
 2738 1b10 FF0000E2 		and	r0, r0, #255
 2739 1b14 FF6001E2 		and	r6, r1, #255
 2740              		.loc 1 295 0
 2741 1b18 0050A0E1 		mov	r5, r0
 2742 1b1c 0040A0E3 		mov	r4, #0
 2743 1b20 00408DE5 		str	r4, [sp, #0]
 2744 1b24 0600A0E1 		mov	r0, r6
 2745              	.LVL218:
 2746 1b28 0510A0E1 		mov	r1, r5
 2747              	.LVL219:
 2748 1b2c 0920A0E3 		mov	r2, #9
 2749              	.LVL220:
 2750 1b30 0430A0E1 		mov	r3, r4
 2751              	.LVL221:
 2752 1b34 FEFFFFEB 		bl	cmd_BuildPacket
 2753              		.loc 1 296 0
 2754 1b38 0100A0E3 		mov	r0, #1
 2755 1b3c FEFFFFEB 		bl	cmd_Execute
 2756 1b40 4E3DA0E3 		mov	r3, #4992
 2757 1b44 087083E2 		add	r7, r3, #8
 2758 1b48 D20600EA 		b	.L355
 2759              	.LVL222:
 2760              	.L356:
 2761              		.loc 1 304 0
 2762 1b4c 014084E2 		add	r4, r4, #1
 2763              	.L355:
 2764              		.loc 1 299 0
ARM GAS  C:\DOCUME~1\TECHCO~1\LOCALS~1\Temp/ccQdbaaa.s 			page 69


 2765 1b50 0100A0E3 		mov	r0, #1
 2766 1b54 FEFFFFEB 		bl	uartGetRxBuffer
 2767 1b58 0030A0E1 		mov	r3, r0
 2768 1b5c 0100A0E3 		mov	r0, #1
 2769 1b60 0610A0E1 		mov	r1, r6
 2770 1b64 0520A0E1 		mov	r2, r5
 2771 1b68 FEFFFFEB 		bl	packetRxProcess
 2772 1b6c 000050E3 		cmp	r0, #0
 2773 1b70 DE06001A 		bne	.L357
 2774 1b74 070054E1 		cmp	r4, r7
 2775 1b78 D106001A 		bne	.L356
 2776 1b7c FB0600EA 		b	.L359
 2777              	.L357:
 2778              		.loc 1 305 0
 2779 1b80 4E3DA0E3 		mov	r3, #4992
 2780 1b84 073083E2 		add	r3, r3, #7
 2781 1b88 030054E1 		cmp	r4, r3
 2782 1b8c FB06008A 		bhi	.L359
 2783              		.loc 1 307 0
 2784 1b90 68109FE5 		ldr	r1, .L371
 2785 1b94 8300D1E5 		ldrb	r0, [r1, #131]	@ zero_extendqisi2
 2786 1b98 030050E3 		cmp	r0, #3
 2787 1b9c F906001A 		bne	.L361
 2788 1ba0 0230D1E5 		ldrb	r3, [r1, #2]	@ zero_extendqisi2
 2789 1ba4 090053E3 		cmp	r3, #9
 2790 1ba8 F906001A 		bne	.L361
 2791              	.LBB4:
 2792              		.loc 1 310 0
 2793 1bac 031081E2 		add	r1, r1, #3
 2794 1bb0 FEFFFFEB 		bl	bitCount
 2795 1bb4 FF0000E2 		and	r0, r0, #255
 2796              	.LVL223:
 2797              		.loc 1 312 0
 2798 1bb8 010050E3 		cmp	r0, #1
 2799 1bbc F706008A 		bhi	.L364
 2800              		.loc 1 314 0
 2801 1bc0 000050E3 		cmp	r0, #0
 2802              	.LVL224:
 2803 1bc4 07008002 		addeq	r0, r0, #7
 2804 1bc8 FC06000A 		beq	.L368
 2805              		.loc 1 317 0
 2806 1bcc 30009FE5 		ldr	r0, .L371+4
 2807 1bd0 0810A0E1 		mov	r1, r8
 2808 1bd4 0A20A0E1 		mov	r2, sl
 2809 1bd8 FEFFFFEB 		bl	processGetOrientationPins
 2810 1bdc 000050E3 		cmp	r0, #0
 2811 1be0 FC06000A 		beq	.L368
 2812              	.LVL225:
 2813              	.L364:
 2814 1be4 0600A0E3 		mov	r0, #6
 2815              	.LVL226:
 2816 1be8 FC0600EA 		b	.L368
 2817              	.L361:
 2818 1bec 0200A0E3 		mov	r0, #2
 2819 1bf0 FC0600EA 		b	.L368
 2820              	.L359:
 2821 1bf4 0300A0E3 		mov	r0, #3
ARM GAS  C:\DOCUME~1\TECHCO~1\LOCALS~1\Temp/ccQdbaaa.s 			page 70


 2822              	.L368:
 2823              	.LBE4:
 2824              		.loc 1 326 0
 2825 1bf8 04D08DE2 		add	sp, sp, #4
 2826 1bfc F085BDE8 		ldmfd	sp!, {r4, r5, r6, r7, r8, sl, pc}
 2827              	.L372:
 2828              		.align	2
 2829              	.L371:
 2830 1c00 00000000 		.word	ext_busRxPkt
 2831 1c04 03000000 		.word	ext_busRxPkt+3
 2832              	.LFE7:
 2833              		.size	getOrientationPins, .-getOrientationPins
 2834              		.align	2
 2835              		.global	getOrientationPins_AR
 2836              		.type	getOrientationPins_AR, %function
 2837              	getOrientationPins_AR:
 2838              	.LFB5:
 2839              		.loc 1 267 0
 2840              		@ args = 4, pretend = 0, frame = 0
 2841              		@ frame_needed = 0, uses_anonymous_args = 0
 2842              	.LVL227:
 2843 1c08 F0452DE9 		stmfd	sp!, {r4, r5, r6, r7, r8, sl, lr}
 2844              	.LCFI32:
 2845 1c0c 0380A0E1 		mov	r8, r3
 2846 1c10 1CA09DE5 		ldr	sl, [sp, #28]
 2847 1c14 FF7001E2 		and	r7, r1, #255
 2848 1c18 FF6002E2 		and	r6, r2, #255
 2849              		.loc 1 270 0
 2850 1c1c FF5010E2 		ands	r5, r0, #255
 2851 1c20 0300A003 		moveq	r0, #3
 2852              	.LVL228:
 2853 1c24 F085BD08 		ldmeqfd	sp!, {r4, r5, r6, r7, r8, sl, pc}
 2854              	.LVL229:
 2855 1c28 0040A0E3 		mov	r4, #0
 2856              	.LVL230:
 2857              	.L377:
 2858              		.loc 1 272 0
 2859 1c2c 0700A0E1 		mov	r0, r7
 2860              	.LVL231:
 2861 1c30 0610A0E1 		mov	r1, r6
 2862 1c34 0820A0E1 		mov	r2, r8
 2863 1c38 0A30A0E1 		mov	r3, sl
 2864 1c3c FEFFFFEB 		bl	getOrientationPins
 2865              	.LVL232:
 2866              		.loc 1 273 0
 2867 1c40 030050E3 		cmp	r0, #3
 2868 1c44 F085BD18 		ldmnefd	sp!, {r4, r5, r6, r7, r8, sl, pc}
 2869              		.loc 1 270 0
 2870 1c48 013084E2 		add	r3, r4, #1
 2871 1c4c FF4003E2 		and	r4, r3, #255
 2872 1c50 040055E1 		cmp	r5, r4
 2873 1c54 0907001A 		bne	.L377
 2874              	.LVL233:
 2875              		.loc 1 277 0
 2876 1c58 F085BDE8 		ldmfd	sp!, {r4, r5, r6, r7, r8, sl, pc}
 2877              	.LFE5:
 2878              		.size	getOrientationPins_AR, .-getOrientationPins_AR
ARM GAS  C:\DOCUME~1\TECHCO~1\LOCALS~1\Temp/ccQdbaaa.s 			page 71


 2879              		.align	2
 2880              		.global	broadcastSetAddressWithOrientationPin
 2881              		.type	broadcastSetAddressWithOrientationPin, %function
 2882              	broadcastSetAddressWithOrientationPin:
 2883              	.LFB10:
 2884              		.loc 1 379 0
 2885              		@ args = 0, pretend = 0, frame = 4
 2886              		@ frame_needed = 0, uses_anonymous_args = 0
 2887              	.LVL234:
 2888 1c5c 30402DE9 		stmfd	sp!, {r4, r5, lr}
 2889              	.LCFI33:
 2890 1c60 08D04DE2 		sub	sp, sp, #8
 2891              	.LCFI34:
 2892 1c64 FF1000E2 		and	r1, r0, #255
 2893              		.loc 1 381 0
 2894 1c68 08308DE2 		add	r3, sp, #8
 2895 1c6c 011063E5 		strb	r1, [r3, #-1]!
 2896              	.LVL235:
 2897              		.loc 1 383 0
 2898 1c70 00308DE5 		str	r3, [sp, #0]
 2899 1c74 FE00A0E3 		mov	r0, #254
 2900              	.LVL236:
 2901 1c78 0420A0E3 		mov	r2, #4
 2902 1c7c 0130A0E3 		mov	r3, #1
 2903 1c80 FEFFFFEB 		bl	cmd_BuildPacket
 2904              	.LVL237:
 2905              		.loc 1 384 0
 2906 1c84 0100A0E3 		mov	r0, #1
 2907 1c88 FEFFFFEB 		bl	cmd_Execute
 2908 1c8c 0040A0E3 		mov	r4, #0
 2909              	.LVL238:
 2910 1c90 4E3DA0E3 		mov	r3, #4992
 2911 1c94 085083E2 		add	r5, r3, #8
 2912 1c98 260700EA 		b	.L382
 2913              	.L383:
 2914              		.loc 1 390 0
 2915 1c9c 014084E2 		add	r4, r4, #1
 2916              	.L382:
 2917              		.loc 1 387 0
 2918 1ca0 0100A0E3 		mov	r0, #1
 2919 1ca4 FEFFFFEB 		bl	uartGetRxBuffer
 2920 1ca8 0010A0E1 		mov	r1, r0
 2921 1cac 0100A0E3 		mov	r0, #1
 2922 1cb0 FEFFFFEB 		bl	packetRxProcess_NoAddrClassCheck
 2923 1cb4 000050E3 		cmp	r0, #0
 2924 1cb8 3007001A 		bne	.L384
 2925 1cbc 050054E1 		cmp	r4, r5
 2926 1cc0 2507001A 		bne	.L383
 2927 1cc4 3D0700EA 		b	.L386
 2928              	.L384:
 2929              		.loc 1 391 0
 2930 1cc8 4E3DA0E3 		mov	r3, #4992
 2931 1ccc 073083E2 		add	r3, r3, #7
 2932 1cd0 030054E1 		cmp	r4, r3
 2933 1cd4 3D07008A 		bhi	.L386
 2934              		.loc 1 393 0
 2935 1cd8 28309FE5 		ldr	r3, .L393
ARM GAS  C:\DOCUME~1\TECHCO~1\LOCALS~1\Temp/ccQdbaaa.s 			page 72


 2936 1cdc 8300D3E5 		ldrb	r0, [r3, #131]	@ zero_extendqisi2
 2937 1ce0 000050E3 		cmp	r0, #0
 2938 1ce4 3B07001A 		bne	.L388
 2939 1ce8 0230D3E5 		ldrb	r3, [r3, #2]	@ zero_extendqisi2
 2940 1cec 040053E3 		cmp	r3, #4
 2941 1cf0 3E07000A 		beq	.L391
 2942              	.L388:
 2943 1cf4 0200A0E3 		mov	r0, #2
 2944 1cf8 3E0700EA 		b	.L391
 2945              	.L386:
 2946 1cfc 0300A0E3 		mov	r0, #3
 2947              	.L391:
 2948              		.loc 1 403 0
 2949 1d00 08D08DE2 		add	sp, sp, #8
 2950 1d04 3080BDE8 		ldmfd	sp!, {r4, r5, pc}
 2951              	.L394:
 2952              		.align	2
 2953              	.L393:
 2954 1d08 00000000 		.word	ext_busRxPkt
 2955              	.LFE10:
 2956              		.size	broadcastSetAddressWithOrientationPin, .-broadcastSetAddressWithOrientationPin
 2957              		.align	2
 2958              		.global	broadcastSetAddressWithOrientationPin_AR
 2959              		.type	broadcastSetAddressWithOrientationPin_AR, %function
 2960              	broadcastSetAddressWithOrientationPin_AR:
 2961              	.LFB9:
 2962              		.loc 1 366 0
 2963              		@ args = 0, pretend = 0, frame = 0
 2964              		@ frame_needed = 0, uses_anonymous_args = 0
 2965              	.LVL239:
 2966 1d0c 70402DE9 		stmfd	sp!, {r4, r5, r6, lr}
 2967              	.LCFI35:
 2968 1d10 FF6001E2 		and	r6, r1, #255
 2969              		.loc 1 369 0
 2970 1d14 FF5010E2 		ands	r5, r0, #255
 2971 1d18 0300A003 		moveq	r0, #3
 2972              	.LVL240:
 2973 1d1c 7080BD08 		ldmeqfd	sp!, {r4, r5, r6, pc}
 2974              	.LVL241:
 2975 1d20 0040A0E3 		mov	r4, #0
 2976              	.LVL242:
 2977              	.L399:
 2978              		.loc 1 371 0
 2979 1d24 0600A0E1 		mov	r0, r6
 2980              	.LVL243:
 2981 1d28 FEFFFFEB 		bl	broadcastSetAddressWithOrientationPin
 2982              	.LVL244:
 2983              		.loc 1 372 0
 2984 1d2c 030050E3 		cmp	r0, #3
 2985 1d30 7080BD18 		ldmnefd	sp!, {r4, r5, r6, pc}
 2986              		.loc 1 369 0
 2987 1d34 013084E2 		add	r3, r4, #1
 2988 1d38 FF4003E2 		and	r4, r3, #255
 2989 1d3c 040055E1 		cmp	r5, r4
 2990 1d40 4707001A 		bne	.L399
 2991              	.LVL245:
 2992              		.loc 1 376 0
ARM GAS  C:\DOCUME~1\TECHCO~1\LOCALS~1\Temp/ccQdbaaa.s 			page 73


 2993 1d44 7080BDE8 		ldmfd	sp!, {r4, r5, r6, pc}
 2994              	.LFE9:
 2995              		.size	broadcastSetAddressWithOrientationPin_AR, .-broadcastSetAddressWithOrientationPin_AR
 2996              		.align	2
 2997              		.global	broadcastGetOrientationPins
 2998              		.type	broadcastGetOrientationPins, %function
 2999              	broadcastGetOrientationPins:
 3000              	.LFB4:
 3001              		.loc 1 230 0
 3002              		@ args = 0, pretend = 0, frame = 0
 3003              		@ frame_needed = 0, uses_anonymous_args = 0
 3004              	.LVL246:
 3005 1d48 F0402DE9 		stmfd	sp!, {r4, r5, r6, r7, lr}
 3006              	.LCFI36:
 3007 1d4c 04D04DE2 		sub	sp, sp, #4
 3008              	.LCFI37:
 3009 1d50 0060A0E1 		mov	r6, r0
 3010 1d54 0170A0E1 		mov	r7, r1
 3011              		.loc 1 231 0
 3012 1d58 0040A0E3 		mov	r4, #0
 3013 1d5c 00408DE5 		str	r4, [sp, #0]
 3014 1d60 FE00A0E3 		mov	r0, #254
 3015              	.LVL247:
 3016 1d64 0410A0E1 		mov	r1, r4
 3017              	.LVL248:
 3018 1d68 0920A0E3 		mov	r2, #9
 3019 1d6c 0430A0E1 		mov	r3, r4
 3020 1d70 FEFFFFEB 		bl	cmd_BuildPacket
 3021              		.loc 1 232 0
 3022 1d74 0100A0E3 		mov	r0, #1
 3023 1d78 FEFFFFEB 		bl	cmd_Execute
 3024 1d7c 4E3DA0E3 		mov	r3, #4992
 3025 1d80 085083E2 		add	r5, r3, #8
 3026 1d84 610700EA 		b	.L404
 3027              	.LVL249:
 3028              	.L405:
 3029              		.loc 1 238 0
 3030 1d88 014084E2 		add	r4, r4, #1
 3031              	.L404:
 3032              		.loc 1 235 0
 3033 1d8c 0100A0E3 		mov	r0, #1
 3034 1d90 FEFFFFEB 		bl	uartGetRxBuffer
 3035 1d94 0010A0E1 		mov	r1, r0
 3036 1d98 0100A0E3 		mov	r0, #1
 3037 1d9c FEFFFFEB 		bl	packetRxProcess_NoAddrClassCheck
 3038 1da0 000050E3 		cmp	r0, #0
 3039 1da4 6B07001A 		bne	.L406
 3040 1da8 050054E1 		cmp	r4, r5
 3041 1dac 6007001A 		bne	.L405
 3042 1db0 8A0700EA 		b	.L408
 3043              	.L406:
 3044              		.loc 1 239 0
 3045 1db4 4E3DA0E3 		mov	r3, #4992
 3046 1db8 073083E2 		add	r3, r3, #7
 3047 1dbc 030054E1 		cmp	r4, r3
 3048 1dc0 8A07008A 		bhi	.L408
 3049              		.loc 1 241 0
ARM GAS  C:\DOCUME~1\TECHCO~1\LOCALS~1\Temp/ccQdbaaa.s 			page 74


 3050 1dc4 70109FE5 		ldr	r1, .L420
 3051 1dc8 8300D1E5 		ldrb	r0, [r1, #131]	@ zero_extendqisi2
 3052 1dcc 030050E3 		cmp	r0, #3
 3053 1dd0 8507001A 		bne	.L410
 3054 1dd4 0230D1E5 		ldrb	r3, [r1, #2]	@ zero_extendqisi2
 3055 1dd8 090053E3 		cmp	r3, #9
 3056 1ddc 8507001A 		bne	.L410
 3057              	.LBB5:
 3058              		.loc 1 244 0
 3059 1de0 031081E2 		add	r1, r1, #3
 3060 1de4 FEFFFFEB 		bl	bitCount
 3061 1de8 FF0000E2 		and	r0, r0, #255
 3062              	.LVL250:
 3063              		.loc 1 246 0
 3064 1dec 010050E3 		cmp	r0, #1
 3065 1df0 8807008A 		bhi	.L413
 3066              		.loc 1 248 0
 3067 1df4 000050E3 		cmp	r0, #0
 3068              	.LVL251:
 3069 1df8 07008002 		addeq	r0, r0, #7
 3070 1dfc 8B07000A 		beq	.L417
 3071              		.loc 1 251 0
 3072 1e00 38009FE5 		ldr	r0, .L420+4
 3073 1e04 0610A0E1 		mov	r1, r6
 3074 1e08 0720A0E1 		mov	r2, r7
 3075 1e0c FEFFFFEB 		bl	processGetOrientationPins
 3076 1e10 000050E3 		cmp	r0, #0
 3077 1e14 8807001A 		bne	.L413
 3078 1e18 8B0700EA 		b	.L417
 3079              	.L410:
 3080              	.LBE5:
 3081              		.loc 1 258 0
 3082 1e1c FEFFFFEB 		bl	printExternalCommand
 3083 1e20 0200A0E3 		mov	r0, #2
 3084 1e24 8B0700EA 		b	.L417
 3085              	.LVL252:
 3086              	.L413:
 3087              		.loc 1 259 0
 3088 1e28 0600A0E3 		mov	r0, #6
 3089              	.LVL253:
 3090 1e2c 8B0700EA 		b	.L417
 3091              	.L408:
 3092 1e30 0300A0E3 		mov	r0, #3
 3093              	.L417:
 3094              		.loc 1 264 0
 3095 1e34 04D08DE2 		add	sp, sp, #4
 3096 1e38 F080BDE8 		ldmfd	sp!, {r4, r5, r6, r7, pc}
 3097              	.L421:
 3098              		.align	2
 3099              	.L420:
 3100 1e3c 00000000 		.word	ext_busRxPkt
 3101 1e40 03000000 		.word	ext_busRxPkt+3
 3102              	.LFE4:
 3103              		.size	broadcastGetOrientationPins, .-broadcastGetOrientationPins
 3104              		.align	2
 3105              		.global	broadcastGetOrientationPins_AR
 3106              		.type	broadcastGetOrientationPins_AR, %function
ARM GAS  C:\DOCUME~1\TECHCO~1\LOCALS~1\Temp/ccQdbaaa.s 			page 75


 3107              	broadcastGetOrientationPins_AR:
 3108              	.LFB3:
 3109              		.loc 1 217 0
 3110              		@ args = 0, pretend = 0, frame = 0
 3111              		@ frame_needed = 0, uses_anonymous_args = 0
 3112              	.LVL254:
 3113 1e44 F0402DE9 		stmfd	sp!, {r4, r5, r6, r7, lr}
 3114              	.LCFI38:
 3115 1e48 0170A0E1 		mov	r7, r1
 3116 1e4c 0260A0E1 		mov	r6, r2
 3117              		.loc 1 220 0
 3118 1e50 FF5010E2 		ands	r5, r0, #255
 3119 1e54 0300A003 		moveq	r0, #3
 3120              	.LVL255:
 3121 1e58 F080BD08 		ldmeqfd	sp!, {r4, r5, r6, r7, pc}
 3122              	.LVL256:
 3123 1e5c 0040A0E3 		mov	r4, #0
 3124              	.LVL257:
 3125              	.L426:
 3126              		.loc 1 222 0
 3127 1e60 0700A0E1 		mov	r0, r7
 3128              	.LVL258:
 3129 1e64 0610A0E1 		mov	r1, r6
 3130 1e68 FEFFFFEB 		bl	broadcastGetOrientationPins
 3131              	.LVL259:
 3132              		.loc 1 223 0
 3133 1e6c 030050E3 		cmp	r0, #3
 3134 1e70 F080BD18 		ldmnefd	sp!, {r4, r5, r6, r7, pc}
 3135              		.loc 1 220 0
 3136 1e74 013084E2 		add	r3, r4, #1
 3137 1e78 FF4003E2 		and	r4, r3, #255
 3138 1e7c 040055E1 		cmp	r5, r4
 3139 1e80 9607001A 		bne	.L426
 3140              	.LVL260:
 3141              		.loc 1 227 0
 3142 1e84 F080BDE8 		ldmfd	sp!, {r4, r5, r6, r7, pc}
 3143              	.LFE3:
 3144              		.size	broadcastGetOrientationPins_AR, .-broadcastGetOrientationPins_AR
 3145              		.section	.rodata.str1.4
 3146              		.align	2
 3147              	.LC22:
 3148 027c 53696465 		.ascii	"Side \000"
 3148      2000
 3149 0282 0000     		.align	2
 3150              	.LC23:
 3151 0284 74657374 		.ascii	"test1\012\015\000"
 3151      310A0D00 
 3152              		.align	2
 3153              	.LC24:
 3154 028c 74657374 		.ascii	"test2\012\015\000"
 3154      320A0D00 
 3155              		.align	2
 3156              	.LC25:
 3157 0294 74657374 		.ascii	"test2.5\012\015\000"
 3157      322E350A 
 3157      0D00
 3158 029e 0000     		.align	2
ARM GAS  C:\DOCUME~1\TECHCO~1\LOCALS~1\Temp/ccQdbaaa.s 			page 76


 3159              	.LC26:
 3160 02a0 74657374 		.ascii	"test3\012\015\000"
 3160      330A0D00 
 3161              		.align	2
 3162              	.LC27:
 3163 02a8 74657374 		.ascii	"test4\012\015\000"
 3163      340A0D00 
 3164              		.align	2
 3165              	.LC28:
 3166 02b0 74657374 		.ascii	"test5\012\015\000"
 3166      350A0D00 
 3167              		.align	2
 3168              	.LC29:
 3169 02b8 74657374 		.ascii	"test6\012\015\000"
 3169      360A0D00 
 3170              		.align	2
 3171              	.LC30:
 3172 02c0 49443A20 		.ascii	"ID: \000"
 3172      00
 3173 02c5 000000   		.align	2
 3174              	.LC31:
 3175 02c8 436C6173 		.ascii	"Class: \000"
 3175      733A2000 
 3176              		.align	2
 3177              	.LC32:
 3178 02d0 74657374 		.ascii	"test7\012\015\000"
 3178      370A0D00 
 3179              		.align	2
 3180              	.LC33:
 3181 02d8 74657374 		.ascii	"test8\012\015\000"
 3181      380A0D00 
 3182              		.align	2
 3183              	.LC34:
 3184 02e0 74657374 		.ascii	"test9\012\015\000"
 3184      390A0D00 
 3185              		.align	2
 3186              	.LC35:
 3187 02e8 74657374 		.ascii	"test10\012\015\000"
 3187      31300A0D 
 3187      00
 3188 02f1 000000   		.align	2
 3189              	.LC36:
 3190 02f4 4572726F 		.ascii	"Error: Cannot enable tracking mode\012\000"
 3190      723A2043 
 3190      616E6E6F 
 3190      7420656E 
 3190      61626C65 
 3191              		.text
 3192              		.align	2
 3193              		.global	buildMorphology
 3194              		.type	buildMorphology, %function
 3195              	buildMorphology:
 3196              	.LFB2:
 3197              		.loc 1 15 0
 3198              		@ args = 0, pretend = 0, frame = 16
 3199              		@ frame_needed = 0, uses_anonymous_args = 0
 3200              	.LVL261:
ARM GAS  C:\DOCUME~1\TECHCO~1\LOCALS~1\Temp/ccQdbaaa.s 			page 77


 3201 1e88 F04F2DE9 		stmfd	sp!, {r4, r5, r6, r7, r8, r9, sl, fp, lr}
 3202              	.LCFI39:
 3203 1e8c 24D04DE2 		sub	sp, sp, #36
 3204              	.LCFI40:
 3205 1e90 0070A0E1 		mov	r7, r0
 3206              		.loc 1 28 0
 3207 1e94 0010A0E3 		mov	r1, #0
 3208 1e98 0010C0E5 		strb	r1, [r0, #0]
 3209              		.loc 1 29 0
 3210 1e9c 0030D0E5 		ldrb	r3, [r0, #0]	@ zero_extendqisi2
 3211 1ea0 003080E5 		str	r3, [r0, #0]
 3212              		.loc 1 30 0
 3213 1ea4 043080E5 		str	r3, [r0, #4]
 3214              		.loc 1 31 0
 3215 1ea8 083080E5 		str	r3, [r0, #8]
 3216 1eac 0C10C0E5 		strb	r1, [r0, #12]
 3217              		.loc 1 34 0
 3218 1eb0 FC20A0E3 		mov	r2, #252
 3219 1eb4 FEFFFFEB 		bl	insertNewCubeEntry
 3220              	.LVL262:
 3221 1eb8 000050E3 		cmp	r0, #0
 3222 1ebc 7A08001A 		bne	.L431
 3223 1ec0 0090A0E1 		mov	r9, r0
 3224              	.LVL263:
 3225 1ec4 01B0A0E3 		mov	fp, #1
 3226              	.LVL264:
 3227              	.LVL265:
 3228              	.L433:
 3229              	.LBB6:
 3230              		.loc 1 40 0
 3231 1ec8 0960A0E1 		mov	r6, r9
 3232 1ecc 0700A0E1 		mov	r0, r7
 3233 1ed0 0910A0E1 		mov	r1, r9
 3234 1ed4 FEFFFFEB 		bl	getCube
 3235              		.loc 1 41 0
 3236 1ed8 000050E3 		cmp	r0, #0
 3237              	.LVL266:
 3238 1edc 7C08000A 		beq	.L434
 3239              		.loc 1 43 0
 3240 1ee0 0050A0E3 		mov	r5, #0
 3241 1ee4 01A0D0E5 		ldrb	sl, [r0, #1]	@ zero_extendqisi2
 3242              	.L436:
 3243              	.LBB7:
 3244              		.loc 1 48 0
 3245 1ee8 0000A0E3 		mov	r0, #0
 3246              	.LVL267:
 3247 1eec B4139FE5 		ldr	r1, .L479
 3248 1ef0 FEFFFFEB 		bl	rprintf1RamRom
 3249              		.loc 1 49 0
 3250 1ef4 0600A0E1 		mov	r0, r6
 3251 1ef8 FEFFFFEB 		bl	rprintfu08
 3252              		.loc 1 50 0
 3253 1efc FEFFFFEB 		bl	rprintfCRLF
 3254              		.loc 1 51 0
 3255 1f00 0000A0E3 		mov	r0, #0
 3256 1f04 A0139FE5 		ldr	r1, .L479+4
 3257 1f08 FEFFFFEB 		bl	rprintf1RamRom
ARM GAS  C:\DOCUME~1\TECHCO~1\LOCALS~1\Temp/ccQdbaaa.s 			page 78


 3258              		.loc 1 52 0
 3259 1f0c 0A00A0E1 		mov	r0, sl
 3260 1f10 FEFFFFEB 		bl	rprintfu08
 3261              		.loc 1 53 0
 3262 1f14 FEFFFFEB 		bl	rprintfCRLF
 3263              		.loc 1 54 0
 3264 1f18 0000A0E3 		mov	r0, #0
 3265 1f1c 8C139FE5 		ldr	r1, .L479+8
 3266 1f20 FEFFFFEB 		bl	rprintf1RamRom
 3267 1f24 0580A0E1 		mov	r8, r5
 3268              		.loc 1 55 0
 3269 1f28 0500A0E1 		mov	r0, r5
 3270 1f2c FEFFFFEB 		bl	rprintfu08
 3271              		.loc 1 56 0
 3272 1f30 FEFFFFEB 		bl	rprintfCRLF
 3273              		.loc 1 62 0
 3274 1f34 0700A0E1 		mov	r0, r7
 3275 1f38 0610A0E1 		mov	r1, r6
 3276 1f3c FEFFFFEB 		bl	getCube
 3277 1f40 000050E3 		cmp	r0, #0
 3278 1f44 7C08000A 		beq	.L434
 3279              		.loc 1 68 0
 3280 1f48 0510A0E1 		mov	r1, r5
 3281 1f4c FEFFFFEB 		bl	getCubeLink
 3282              		.loc 1 69 0
 3283 1f50 004050E2 		subs	r4, r0, #0
 3284              	.LVL268:
 3285 1f54 6A08001A 		bne	.L438
 3286              		.loc 1 76 0
 3287 1f58 54139FE5 		ldr	r1, .L479+12
 3288 1f5c FEFFFFEB 		bl	rprintf1RamRom
 3289              		.loc 1 78 0
 3290 1f60 00408DE5 		str	r4, [sp, #0]
 3291 1f64 0130A0E3 		mov	r3, #1
 3292 1f68 04308DE5 		str	r3, [sp, #4]
 3293 1f6c 0500A0E3 		mov	r0, #5
 3294 1f70 0610A0E1 		mov	r1, r6
 3295 1f74 0A20A0E1 		mov	r2, sl
 3296 1f78 0530A0E1 		mov	r3, r5
 3297 1f7c FEFFFFEB 		bl	setOrientationPin_AR
 3298 1f80 FF4000E2 		and	r4, r0, #255
 3299              	.LVL269:
 3300              		.loc 1 79 0
 3301 1f84 100054E3 		cmp	r4, #16
 3302 1f88 E507001A 		bne	.L440
 3303              		.loc 1 81 0
 3304 1f8c FEFFFFEB 		bl	printExternalCommand
 3305              		.loc 1 82 0
 3306 1f90 0400A0E1 		mov	r0, r4
 3307 1f94 FEFFFFEB 		bl	printOrientationErrorCode
 3308 1f98 6A0800EA 		b	.L438
 3309              	.L440:
 3310              		.loc 1 84 0
 3311 1f9c 000054E3 		cmp	r4, #0
 3312 1fa0 7E08001A 		bne	.L469
 3313              		.loc 1 90 0
 3314 1fa4 0000A0E3 		mov	r0, #0
ARM GAS  C:\DOCUME~1\TECHCO~1\LOCALS~1\Temp/ccQdbaaa.s 			page 79


 3315 1fa8 08139FE5 		ldr	r1, .L479+16
 3316 1fac FEFFFFEB 		bl	rprintf1RamRom
 3317              		.loc 1 94 0
 3318 1fb0 0500A0E3 		mov	r0, #5
 3319 1fb4 22108DE2 		add	r1, sp, #34
 3320 1fb8 23208DE2 		add	r2, sp, #35
 3321 1fbc FEFFFFEB 		bl	broadcastGetOrientationPins_AR
 3322              		.loc 1 96 0
 3323 1fc0 FF4010E2 		ands	r4, r0, #255
 3324              	.LVL270:
 3325 1fc4 0608001A 		bne	.L445
 3326              		.loc 1 116 0
 3327 1fc8 0400A0E1 		mov	r0, r4
 3328 1fcc FEFFFFEB 		bl	printOrientationErrorCode
 3329              		.loc 1 117 0
 3330 1fd0 FEFFFFEB 		bl	printExternalCommand
 3331              		.loc 1 118 0
 3332 1fd4 00408DE5 		str	r4, [sp, #0]
 3333 1fd8 DC229FE5 		ldr	r2, .L479+20
 3334 1fdc 0030D2E5 		ldrb	r3, [r2, #0]	@ zero_extendqisi2
 3335 1fe0 04308DE5 		str	r3, [sp, #4]
 3336 1fe4 0130D2E5 		ldrb	r3, [r2, #1]	@ zero_extendqisi2
 3337 1fe8 08308DE5 		str	r3, [sp, #8]
 3338 1fec 2230DDE5 		ldrb	r3, [sp, #34]	@ zero_extendqisi2
 3339 1ff0 0C308DE5 		str	r3, [sp, #12]
 3340 1ff4 2330DDE5 		ldrb	r3, [sp, #35]	@ zero_extendqisi2
 3341 1ff8 10308DE5 		str	r3, [sp, #16]
 3342 1ffc 0700A0E1 		mov	r0, r7
 3343 2000 0610A0E1 		mov	r1, r6
 3344 2004 0A20A0E1 		mov	r2, sl
 3345 2008 0530A0E1 		mov	r3, r5
 3346 200c FEFFFFEB 		bl	insertNewLinkEntry
 3347 2010 000050E3 		cmp	r0, #0
 3348 2014 6A08000A 		beq	.L438
 3349 2018 0400A0E3 		mov	r0, #4
 3350 201c A60800EA 		b	.L444
 3351              	.L445:
 3352              		.loc 1 124 0
 3353 2020 030054E3 		cmp	r4, #3
 3354 2024 8308001A 		bne	.L470
 3355              		.loc 1 131 0
 3356 2028 0000A0E3 		mov	r0, #0
 3357 202c 8C129FE5 		ldr	r1, .L479+24
 3358 2030 FEFFFFEB 		bl	rprintf1RamRom
 3359              		.loc 1 133 0
 3360 2034 0500A0E3 		mov	r0, #5
 3361 2038 0B10A0E1 		mov	r1, fp
 3362 203c FEFFFFEB 		bl	broadcastSetAddressWithOrientationPin_AR
 3363 2040 FF0000E2 		and	r0, r0, #255
 3364              	.LVL271:
 3365              		.loc 1 135 0
 3366 2044 030050E3 		cmp	r0, #3
 3367 2048 2108001A 		bne	.L450
 3368              	.LVL272:
 3369              		.loc 1 138 0
 3370 204c 030040E2 		sub	r0, r0, #3
 3371 2050 6C129FE5 		ldr	r1, .L479+28
ARM GAS  C:\DOCUME~1\TECHCO~1\LOCALS~1\Temp/ccQdbaaa.s 			page 80


 3372 2054 FEFFFFEB 		bl	rprintf1RamRom
 3373              		.loc 1 140 0
 3374 2058 0030A0E3 		mov	r3, #0
 3375 205c 00308DE5 		str	r3, [sp, #0]
 3376 2060 04308DE5 		str	r3, [sp, #4]
 3377 2064 0500A0E3 		mov	r0, #5
 3378 2068 0610A0E1 		mov	r1, r6
 3379 206c 0A20A0E1 		mov	r2, sl
 3380 2070 0530A0E1 		mov	r3, r5
 3381 2074 FEFFFFEB 		bl	setOrientationPin_AR
 3382              		.loc 1 141 0
 3383 2078 FF0010E2 		ands	r0, r0, #255
 3384 207c A508001A 		bne	.L452
 3385              		.loc 1 145 0
 3386 2080 40129FE5 		ldr	r1, .L479+32
 3387 2084 FEFFFFEB 		bl	rprintf1RamRom
 3388 2088 6A0800EA 		b	.L438
 3389              	.LVL273:
 3390              	.L450:
 3391              		.loc 1 147 0
 3392 208c 000050E3 		cmp	r0, #0
 3393 2090 8808001A 		bne	.L471
 3394              		.loc 1 153 0
 3395 2094 30129FE5 		ldr	r1, .L479+36
 3396 2098 FEFFFFEB 		bl	rprintf1RamRom
 3397              	.LVL274:
 3398              		.loc 1 158 0
 3399 209c 18329FE5 		ldr	r3, .L479+20
 3400 20a0 0040D3E5 		ldrb	r4, [r3, #0]	@ zero_extendqisi2
 3401              	.LVL275:
 3402 20a4 0130D3E5 		ldrb	r3, [r3, #1]	@ zero_extendqisi2
 3403 20a8 14308DE5 		str	r3, [sp, #20]
 3404 20ac 0700A0E1 		mov	r0, r7
 3405 20b0 0410A0E1 		mov	r1, r4
 3406 20b4 0320A0E1 		mov	r2, r3
 3407 20b8 FEFFFFEB 		bl	insertNewCubeEntry
 3408 20bc 003050E2 		subs	r3, r0, #0
 3409 20c0 18308DE5 		str	r3, [sp, #24]
 3410 20c4 7A08001A 		bne	.L431
 3411              		.loc 1 160 0
 3412 20c8 00129FE5 		ldr	r1, .L479+40
 3413 20cc FEFFFFEB 		bl	rprintf1RamRom
 3414              		.loc 1 162 0
 3415 20d0 23308DE2 		add	r3, sp, #35
 3416 20d4 00308DE5 		str	r3, [sp, #0]
 3417 20d8 0500A0E3 		mov	r0, #5
 3418 20dc 0410A0E1 		mov	r1, r4
 3419 20e0 14209DE5 		ldr	r2, [sp, #20]
 3420 20e4 22308DE2 		add	r3, sp, #34
 3421 20e8 FEFFFFEB 		bl	getOrientationPins_AR
 3422 20ec FF0010E2 		ands	r0, r0, #255
 3423 20f0 1C008DE5 		str	r0, [sp, #28]
 3424 20f4 8C08001A 		bne	.L472
 3425              		.loc 1 174 0
 3426 20f8 0000A0E3 		mov	r0, #0
 3427 20fc D0119FE5 		ldr	r1, .L479+44
 3428 2100 FEFFFFEB 		bl	rprintf1RamRom
ARM GAS  C:\DOCUME~1\TECHCO~1\LOCALS~1\Temp/ccQdbaaa.s 			page 81


 3429              		.loc 1 176 0
 3430 2104 0030A0E3 		mov	r3, #0
 3431 2108 18008DE8 		stmia	sp, {r3, r4}	@ phole stm
 3432 210c 14309DE5 		ldr	r3, [sp, #20]
 3433 2110 08308DE5 		str	r3, [sp, #8]
 3434 2114 2230DDE5 		ldrb	r3, [sp, #34]	@ zero_extendqisi2
 3435 2118 0C308DE5 		str	r3, [sp, #12]
 3436 211c 2330DDE5 		ldrb	r3, [sp, #35]	@ zero_extendqisi2
 3437 2120 10308DE5 		str	r3, [sp, #16]
 3438 2124 0700A0E1 		mov	r0, r7
 3439 2128 0610A0E1 		mov	r1, r6
 3440 212c 0A20A0E1 		mov	r2, sl
 3441 2130 0530A0E1 		mov	r3, r5
 3442 2134 FEFFFFEB 		bl	insertNewLinkEntry
 3443 2138 FF0010E2 		ands	r0, r0, #255
 3444              	.LVL276:
 3445 213c 9D08001A 		bne	.L473
 3446              		.loc 1 184 0
 3447 2140 0000A0E3 		mov	r0, #0
 3448              	.LVL277:
 3449 2144 8C119FE5 		ldr	r1, .L479+48
 3450 2148 FEFFFFEB 		bl	rprintf1RamRom
 3451              		.loc 1 186 0
 3452 214c 0700A0E1 		mov	r0, r7
 3453 2150 0410A0E1 		mov	r1, r4
 3454 2154 14209DE5 		ldr	r2, [sp, #20]
 3455 2158 FEFFFFEB 		bl	setInitialState
 3456 215c FF0000E2 		and	r0, r0, #255
 3457              	.LVL278:
 3458              		.loc 1 187 0
 3459 2160 0F0050E3 		cmp	r0, #15
 3460 2164 00005013 		cmpne	r0, #0
 3461 2168 A108001A 		bne	.L474
 3462              		.loc 1 198 0
 3463 216c 0000A0E3 		mov	r0, #0
 3464              	.LVL279:
 3465 2170 64119FE5 		ldr	r1, .L479+52
 3466 2174 FEFFFFEB 		bl	rprintf1RamRom
 3467              		.loc 1 199 0
 3468 2178 0030A0E3 		mov	r3, #0
 3469 217c 00308DE5 		str	r3, [sp, #0]
 3470 2180 04308DE5 		str	r3, [sp, #4]
 3471 2184 0500A0E3 		mov	r0, #5
 3472 2188 0610A0E1 		mov	r1, r6
 3473 218c 0A20A0E1 		mov	r2, sl
 3474 2190 0530A0E1 		mov	r3, r5
 3475 2194 FEFFFFEB 		bl	setOrientationPin_AR
 3476 2198 000050E3 		cmp	r0, #0
 3477 219c A508001A 		bne	.L452
 3478              		.loc 1 195 0
 3479 21a0 01308BE2 		add	r3, fp, #1
 3480 21a4 FFB003E2 		and	fp, r3, #255
 3481              		.loc 1 201 0
 3482 21a8 30119FE5 		ldr	r1, .L479+56
 3483 21ac FEFFFFEB 		bl	rprintf1RamRom
 3484              	.LVL280:
 3485              	.L438:
ARM GAS  C:\DOCUME~1\TECHCO~1\LOCALS~1\Temp/ccQdbaaa.s 			page 82


 3486 21b0 015085E2 		add	r5, r5, #1
 3487              	.LBE7:
 3488              		.loc 1 45 0
 3489 21b4 060055E3 		cmp	r5, #6
 3490 21b8 B807001A 		bne	.L436
 3491              		.loc 1 203 0
 3492 21bc 013089E2 		add	r3, r9, #1
 3493 21c0 FF9003E2 		and	r9, r3, #255
 3494              	.LBE6:
 3495              		.loc 1 37 0
 3496 21c4 09005BE1 		cmp	fp, r9
 3497 21c8 B007008A 		bhi	.L433
 3498              		.loc 1 207 0
 3499 21cc 0700A0E1 		mov	r0, r7
 3500 21d0 FEFFFFEB 		bl	enableAngleTracking
 3501 21d4 000050E3 		cmp	r0, #0
 3502 21d8 A608000A 		beq	.L444
 3503              		.loc 1 209 0
 3504 21dc 0000A0E3 		mov	r0, #0
 3505 21e0 FC109FE5 		ldr	r1, .L479+60
 3506 21e4 FEFFFFEB 		bl	rprintf1RamRom
 3507 21e8 0E00A0E3 		mov	r0, #14
 3508 21ec A60800EA 		b	.L444
 3509              	.LVL281:
 3510              	.L431:
 3511              		.loc 1 210 0
 3512 21f0 0B00A0E3 		mov	r0, #11
 3513 21f4 A60800EA 		b	.L444
 3514              	.LVL282:
 3515              	.L434:
 3516 21f8 0700A0E3 		mov	r0, #7
 3517              	.LVL283:
 3518 21fc A60800EA 		b	.L444
 3519              	.LVL284:
 3520              	.L469:
 3521              	.LBB8:
 3522              	.LBB9:
 3523              		.loc 1 85 0
 3524 2200 0400A0E1 		mov	r0, r4
 3525 2204 FEFFFFEB 		bl	printOrientationErrorCode
 3526              		.loc 1 86 0
 3527 2208 FEFFFFEB 		bl	printExternalCommand
 3528 220c 0100A0E3 		mov	r0, #1
 3529 2210 A60800EA 		b	.L444
 3530              	.LVL285:
 3531              	.L470:
 3532              		.loc 1 126 0
 3533 2214 0400A0E1 		mov	r0, r4
 3534 2218 FEFFFFEB 		bl	printOrientationErrorCode
 3535              		.loc 1 127 0
 3536 221c FEFFFFEB 		bl	printExternalCommand
 3537 2220 0200A0E3 		mov	r0, #2
 3538 2224 A60800EA 		b	.L444
 3539              	.LVL286:
 3540              	.L471:
 3541              		.loc 1 149 0
 3542 2228 FEFFFFEB 		bl	printOrientationErrorCode
ARM GAS  C:\DOCUME~1\TECHCO~1\LOCALS~1\Temp/ccQdbaaa.s 			page 83


 3543              	.LVL287:
 3544              		.loc 1 150 0
 3545 222c FEFFFFEB 		bl	printExternalCommand
 3546 2230 0200A0E3 		mov	r0, #2
 3547 2234 A60800EA 		b	.L444
 3548              	.LVL288:
 3549              	.L472:
 3550              		.loc 1 164 0
 3551 2238 18009DE5 		ldr	r0, [sp, #24]
 3552 223c A4109FE5 		ldr	r1, .L479+64
 3553 2240 FEFFFFEB 		bl	rprintf1RamRom
 3554              		.loc 1 165 0
 3555 2244 0400A0E1 		mov	r0, r4
 3556 2248 FEFFFFEB 		bl	rprintfu08
 3557              		.loc 1 166 0
 3558 224c FEFFFFEB 		bl	rprintfCRLF
 3559              		.loc 1 167 0
 3560 2250 18009DE5 		ldr	r0, [sp, #24]
 3561 2254 90109FE5 		ldr	r1, .L479+68
 3562 2258 FEFFFFEB 		bl	rprintf1RamRom
 3563              		.loc 1 168 0
 3564 225c 14009DE5 		ldr	r0, [sp, #20]
 3565 2260 FEFFFFEB 		bl	rprintfu08
 3566              		.loc 1 169 0
 3567 2264 FEFFFFEB 		bl	rprintfCRLF
 3568              		.loc 1 170 0
 3569 2268 1C009DE5 		ldr	r0, [sp, #28]
 3570 226c FEFFFFEB 		bl	printOrientationErrorCode
 3571              		.loc 1 171 0
 3572 2270 FEFFFFEB 		bl	printExternalCommand
 3573 2274 0200A0E3 		mov	r0, #2
 3574 2278 A60800EA 		b	.L444
 3575              	.LVL289:
 3576              	.L473:
 3577              		.loc 1 180 0
 3578 227c FEFFFFEB 		bl	printOrientationErrorCode
 3579              	.LVL290:
 3580              		.loc 1 181 0
 3581 2280 FEFFFFEB 		bl	printExternalCommand
 3582 2284 0400A0E3 		mov	r0, #4
 3583 2288 A60800EA 		b	.L444
 3584              	.LVL291:
 3585              	.L474:
 3586              		.loc 1 190 0
 3587 228c FEFFFFEB 		bl	printOrientationErrorCode
 3588              	.LVL292:
 3589              		.loc 1 191 0
 3590 2290 FEFFFFEB 		bl	printExternalCommand
 3591 2294 0E00A0E3 		mov	r0, #14
 3592 2298 A60800EA 		b	.L444
 3593              	.LVL293:
 3594              	.L452:
 3595              	.LBE9:
 3596              	.LBE8:
 3597              		.loc 1 210 0
 3598 229c 0100A0E3 		mov	r0, #1
 3599              	.LVL294:
ARM GAS  C:\DOCUME~1\TECHCO~1\LOCALS~1\Temp/ccQdbaaa.s 			page 84


 3600              	.L444:
 3601              		.loc 1 214 0
 3602 22a0 24D08DE2 		add	sp, sp, #36
 3603 22a4 F08FBDE8 		ldmfd	sp!, {r4, r5, r6, r7, r8, r9, sl, fp, pc}
 3604              	.L480:
 3605              		.align	2
 3606              	.L479:
 3607 22a8 60020000 		.word	.LC18
 3608 22ac 64020000 		.word	.LC19
 3609 22b0 7C020000 		.word	.LC22
 3610 22b4 84020000 		.word	.LC23
 3611 22b8 8C020000 		.word	.LC24
 3612 22bc 00000000 		.word	ext_busRxPkt
 3613 22c0 94020000 		.word	.LC25
 3614 22c4 A0020000 		.word	.LC26
 3615 22c8 A8020000 		.word	.LC27
 3616 22cc B0020000 		.word	.LC28
 3617 22d0 B8020000 		.word	.LC29
 3618 22d4 D0020000 		.word	.LC32
 3619 22d8 D8020000 		.word	.LC33
 3620 22dc E0020000 		.word	.LC34
 3621 22e0 E8020000 		.word	.LC35
 3622 22e4 F4020000 		.word	.LC36
 3623 22e8 C0020000 		.word	.LC30
 3624 22ec C8020000 		.word	.LC31
 3625              	.LFE2:
 3626              		.size	buildMorphology, .-buildMorphology
 3627              		.comm	cmesh,4,4
 3628              		.comm	efs,708,4
 3629              		.comm	filer,80,4
 3630              		.comm	filew,80,4
 3631              		.comm	list,52,4
 3632              		.comm	cubemorph,16,4
 3633              		.comm	cmdBufferData,128,1
 3634              		.comm	cmdBuffer,12,4
 3635              		.comm	int_busRxPkt,132,4
 3636              		.comm	ext_busRxPkt,132,4
 3637              		.section	.debug_frame,"",%progbits
 3638              	.Lframe0:
 3639 0000 0C000000 		.4byte	.LECIE0-.LSCIE0
 3640              	.LSCIE0:
 3641 0004 FFFFFFFF 		.4byte	0xffffffff
 3642 0008 01       		.byte	0x1
 3643 0009 00       		.ascii	"\000"
 3644 000a 01       		.uleb128 0x1
 3645 000b 7C       		.sleb128 -4
 3646 000c 0E       		.byte	0xe
 3647 000d 0C       		.byte	0xc
 3648 000e 0D       		.uleb128 0xd
 3649 000f 00       		.uleb128 0x0
 3650              		.align	2
 3651              	.LECIE0:
 3652              	.LSFDE0:
 3653 0010 14000000 		.4byte	.LEFDE0-.LASFDE0
 3654              	.LASFDE0:
 3655 0014 00000000 		.4byte	.Lframe0
 3656 0018 00000000 		.4byte	.LFB6
ARM GAS  C:\DOCUME~1\TECHCO~1\LOCALS~1\Temp/ccQdbaaa.s 			page 85


 3657 001c 58000000 		.4byte	.LFE6-.LFB6
 3658 0020 44       		.byte	0x4
 3659              		.4byte	.LCFI0-.LFB6
 3660 0021 0E       		.byte	0xe
 3661 0022 08       		.uleb128 0x8
 3662 0023 8E       		.byte	0x8e
 3663 0024 01       		.uleb128 0x1
 3664 0025 84       		.byte	0x84
 3665 0026 02       		.uleb128 0x2
 3666 0027 00       		.align	2
 3667              	.LEFDE0:
 3668              	.LSFDE2:
 3669 0028 0C000000 		.4byte	.LEFDE2-.LASFDE2
 3670              	.LASFDE2:
 3671 002c 00000000 		.4byte	.Lframe0
 3672 0030 58000000 		.4byte	.LFB8
 3673 0034 0C010000 		.4byte	.LFE8-.LFB8
 3674              		.align	2
 3675              	.LEFDE2:
 3676              	.LSFDE4:
 3677 0038 14000000 		.4byte	.LEFDE4-.LASFDE4
 3678              	.LASFDE4:
 3679 003c 00000000 		.4byte	.Lframe0
 3680 0040 64010000 		.4byte	.LFB18
 3681 0044 7C000000 		.4byte	.LFE18-.LFB18
 3682 0048 44       		.byte	0x4
 3683              		.4byte	.LCFI1-.LFB18
 3684 0049 0E       		.byte	0xe
 3685 004a 08       		.uleb128 0x8
 3686 004b 8E       		.byte	0x8e
 3687 004c 01       		.uleb128 0x1
 3688 004d 84       		.byte	0x84
 3689 004e 02       		.uleb128 0x2
 3690 004f 00       		.align	2
 3691              	.LEFDE4:
 3692              	.LSFDE6:
 3693 0050 14000000 		.4byte	.LEFDE6-.LASFDE6
 3694              	.LASFDE6:
 3695 0054 00000000 		.4byte	.Lframe0
 3696 0058 E0010000 		.4byte	.LFB19
 3697 005c 64000000 		.4byte	.LFE19-.LFB19
 3698 0060 44       		.byte	0x4
 3699              		.4byte	.LCFI2-.LFB19
 3700 0061 0E       		.byte	0xe
 3701 0062 04       		.uleb128 0x4
 3702 0063 8E       		.byte	0x8e
 3703 0064 01       		.uleb128 0x1
 3704 0065 000000   		.align	2
 3705              	.LEFDE6:
 3706              	.LSFDE8:
 3707 0068 14000000 		.4byte	.LEFDE8-.LASFDE8
 3708              	.LASFDE8:
 3709 006c 00000000 		.4byte	.Lframe0
 3710 0070 44020000 		.4byte	.LFB20
 3711 0074 68000000 		.4byte	.LFE20-.LFB20
 3712 0078 44       		.byte	0x4
 3713              		.4byte	.LCFI3-.LFB20
ARM GAS  C:\DOCUME~1\TECHCO~1\LOCALS~1\Temp/ccQdbaaa.s 			page 86


 3714 0079 0E       		.byte	0xe
 3715 007a 08       		.uleb128 0x8
 3716 007b 8E       		.byte	0x8e
 3717 007c 01       		.uleb128 0x1
 3718 007d 84       		.byte	0x84
 3719 007e 02       		.uleb128 0x2
 3720 007f 00       		.align	2
 3721              	.LEFDE8:
 3722              	.LSFDE10:
 3723 0080 14000000 		.4byte	.LEFDE10-.LASFDE10
 3724              	.LASFDE10:
 3725 0084 00000000 		.4byte	.Lframe0
 3726 0088 AC020000 		.4byte	.LFB21
 3727 008c 60000000 		.4byte	.LFE21-.LFB21
 3728 0090 44       		.byte	0x4
 3729              		.4byte	.LCFI4-.LFB21
 3730 0091 0E       		.byte	0xe
 3731 0092 04       		.uleb128 0x4
 3732 0093 8E       		.byte	0x8e
 3733 0094 01       		.uleb128 0x1
 3734 0095 000000   		.align	2
 3735              	.LEFDE10:
 3736              	.LSFDE12:
 3737 0098 1C000000 		.4byte	.LEFDE12-.LASFDE12
 3738              	.LASFDE12:
 3739 009c 00000000 		.4byte	.Lframe0
 3740 00a0 0C030000 		.4byte	.LFB24
 3741 00a4 28010000 		.4byte	.LFE24-.LFB24
 3742 00a8 44       		.byte	0x4
 3743              		.4byte	.LCFI5-.LFB24
 3744 00a9 0E       		.byte	0xe
 3745 00aa 18       		.uleb128 0x18
 3746 00ab 8E       		.byte	0x8e
 3747 00ac 01       		.uleb128 0x1
 3748 00ad 88       		.byte	0x88
 3749 00ae 02       		.uleb128 0x2
 3750 00af 87       		.byte	0x87
 3751 00b0 03       		.uleb128 0x3
 3752 00b1 86       		.byte	0x86
 3753 00b2 04       		.uleb128 0x4
 3754 00b3 85       		.byte	0x85
 3755 00b4 05       		.uleb128 0x5
 3756 00b5 84       		.byte	0x84
 3757 00b6 06       		.uleb128 0x6
 3758 00b7 00       		.align	2
 3759              	.LEFDE12:
 3760              	.LSFDE14:
 3761 00b8 0C000000 		.4byte	.LEFDE14-.LASFDE14
 3762              	.LASFDE14:
 3763 00bc 00000000 		.4byte	.Lframe0
 3764 00c0 34040000 		.4byte	.LFB29
 3765 00c4 38000000 		.4byte	.LFE29-.LFB29
 3766              		.align	2
 3767              	.LEFDE14:
 3768              	.LSFDE16:
 3769 00c8 20000000 		.4byte	.LEFDE16-.LASFDE16
 3770              	.LASFDE16:
ARM GAS  C:\DOCUME~1\TECHCO~1\LOCALS~1\Temp/ccQdbaaa.s 			page 87


 3771 00cc 00000000 		.4byte	.Lframe0
 3772 00d0 6C040000 		.4byte	.LFB30
 3773 00d4 E4000000 		.4byte	.LFE30-.LFB30
 3774 00d8 44       		.byte	0x4
 3775              		.4byte	.LCFI6-.LFB30
 3776 00d9 0E       		.byte	0xe
 3777 00da 1C       		.uleb128 0x1c
 3778 00db 8E       		.byte	0x8e
 3779 00dc 01       		.uleb128 0x1
 3780 00dd 8A       		.byte	0x8a
 3781 00de 02       		.uleb128 0x2
 3782 00df 88       		.byte	0x88
 3783 00e0 03       		.uleb128 0x3
 3784 00e1 87       		.byte	0x87
 3785 00e2 04       		.uleb128 0x4
 3786 00e3 86       		.byte	0x86
 3787 00e4 05       		.uleb128 0x5
 3788 00e5 85       		.byte	0x85
 3789 00e6 06       		.uleb128 0x6
 3790 00e7 84       		.byte	0x84
 3791 00e8 07       		.uleb128 0x7
 3792 00e9 000000   		.align	2
 3793              	.LEFDE16:
 3794              	.LSFDE18:
 3795 00ec 18000000 		.4byte	.LEFDE18-.LASFDE18
 3796              	.LASFDE18:
 3797 00f0 00000000 		.4byte	.Lframe0
 3798 00f4 50050000 		.4byte	.LFB31
 3799 00f8 90000000 		.4byte	.LFE31-.LFB31
 3800 00fc 44       		.byte	0x4
 3801              		.4byte	.LCFI7-.LFB31
 3802 00fd 0E       		.byte	0xe
 3803 00fe 10       		.uleb128 0x10
 3804 00ff 8E       		.byte	0x8e
 3805 0100 01       		.uleb128 0x1
 3806 0101 86       		.byte	0x86
 3807 0102 02       		.uleb128 0x2
 3808 0103 85       		.byte	0x85
 3809 0104 03       		.uleb128 0x3
 3810 0105 84       		.byte	0x84
 3811 0106 04       		.uleb128 0x4
 3812 0107 00       		.align	2
 3813              	.LEFDE18:
 3814              	.LSFDE20:
 3815 0108 14000000 		.4byte	.LEFDE20-.LASFDE20
 3816              	.LASFDE20:
 3817 010c 00000000 		.4byte	.Lframe0
 3818 0110 E0050000 		.4byte	.LFB32
 3819 0114 BC010000 		.4byte	.LFE32-.LFB32
 3820 0118 44       		.byte	0x4
 3821              		.4byte	.LCFI8-.LFB32
 3822 0119 0E       		.byte	0xe
 3823 011a 04       		.uleb128 0x4
 3824 011b 8E       		.byte	0x8e
 3825 011c 01       		.uleb128 0x1
 3826 011d 000000   		.align	2
 3827              	.LEFDE20:
ARM GAS  C:\DOCUME~1\TECHCO~1\LOCALS~1\Temp/ccQdbaaa.s 			page 88


 3828              	.LSFDE22:
 3829 0120 18000000 		.4byte	.LEFDE22-.LASFDE22
 3830              	.LASFDE22:
 3831 0124 00000000 		.4byte	.Lframe0
 3832 0128 9C070000 		.4byte	.LFB28
 3833 012c 98000000 		.4byte	.LFE28-.LFB28
 3834 0130 44       		.byte	0x4
 3835              		.4byte	.LCFI9-.LFB28
 3836 0131 0E       		.byte	0xe
 3837 0132 0C       		.uleb128 0xc
 3838 0133 8E       		.byte	0x8e
 3839 0134 01       		.uleb128 0x1
 3840 0135 85       		.byte	0x85
 3841 0136 02       		.uleb128 0x2
 3842 0137 84       		.byte	0x84
 3843 0138 03       		.uleb128 0x3
 3844 0139 000000   		.align	2
 3845              	.LEFDE22:
 3846              	.LSFDE24:
 3847 013c 24000000 		.4byte	.LEFDE24-.LASFDE24
 3848              	.LASFDE24:
 3849 0140 00000000 		.4byte	.Lframe0
 3850 0144 34080000 		.4byte	.LFB27
 3851 0148 3C050000 		.4byte	.LFE27-.LFB27
 3852 014c 44       		.byte	0x4
 3853              		.4byte	.LCFI10-.LFB27
 3854 014d 0E       		.byte	0xe
 3855 014e 24       		.uleb128 0x24
 3856 014f 44       		.byte	0x4
 3857              		.4byte	.LCFI11-.LCFI10
 3858 0150 0E       		.byte	0xe
 3859 0151 28       		.uleb128 0x28
 3860 0152 8E       		.byte	0x8e
 3861 0153 01       		.uleb128 0x1
 3862 0154 8B       		.byte	0x8b
 3863 0155 02       		.uleb128 0x2
 3864 0156 8A       		.byte	0x8a
 3865 0157 03       		.uleb128 0x3
 3866 0158 89       		.byte	0x89
 3867 0159 04       		.uleb128 0x4
 3868 015a 88       		.byte	0x88
 3869 015b 05       		.uleb128 0x5
 3870 015c 87       		.byte	0x87
 3871 015d 06       		.uleb128 0x6
 3872 015e 86       		.byte	0x86
 3873 015f 07       		.uleb128 0x7
 3874 0160 85       		.byte	0x85
 3875 0161 08       		.uleb128 0x8
 3876 0162 84       		.byte	0x84
 3877 0163 09       		.uleb128 0x9
 3878              		.align	2
 3879              	.LEFDE24:
 3880              	.LSFDE26:
 3881 0164 24000000 		.4byte	.LEFDE26-.LASFDE26
 3882              	.LASFDE26:
 3883 0168 00000000 		.4byte	.Lframe0
 3884 016c 700D0000 		.4byte	.LFB26
ARM GAS  C:\DOCUME~1\TECHCO~1\LOCALS~1\Temp/ccQdbaaa.s 			page 89


 3885 0170 A8040000 		.4byte	.LFE26-.LFB26
 3886 0174 44       		.byte	0x4
 3887              		.4byte	.LCFI12-.LFB26
 3888 0175 0E       		.byte	0xe
 3889 0176 24       		.uleb128 0x24
 3890 0177 44       		.byte	0x4
 3891              		.4byte	.LCFI13-.LCFI12
 3892 0178 0E       		.byte	0xe
 3893 0179 28       		.uleb128 0x28
 3894 017a 8E       		.byte	0x8e
 3895 017b 01       		.uleb128 0x1
 3896 017c 8B       		.byte	0x8b
 3897 017d 02       		.uleb128 0x2
 3898 017e 8A       		.byte	0x8a
 3899 017f 03       		.uleb128 0x3
 3900 0180 89       		.byte	0x89
 3901 0181 04       		.uleb128 0x4
 3902 0182 88       		.byte	0x88
 3903 0183 05       		.uleb128 0x5
 3904 0184 87       		.byte	0x87
 3905 0185 06       		.uleb128 0x6
 3906 0186 86       		.byte	0x86
 3907 0187 07       		.uleb128 0x7
 3908 0188 85       		.byte	0x85
 3909 0189 08       		.uleb128 0x8
 3910 018a 84       		.byte	0x84
 3911 018b 09       		.uleb128 0x9
 3912              		.align	2
 3913              	.LEFDE26:
 3914              	.LSFDE28:
 3915 018c 18000000 		.4byte	.LEFDE28-.LASFDE28
 3916              	.LASFDE28:
 3917 0190 00000000 		.4byte	.Lframe0
 3918 0194 18120000 		.4byte	.LFB25
 3919 0198 F4000000 		.4byte	.LFE25-.LFB25
 3920 019c 44       		.byte	0x4
 3921              		.4byte	.LCFI14-.LFB25
 3922 019d 0E       		.byte	0xe
 3923 019e 10       		.uleb128 0x10
 3924 019f 8E       		.byte	0x8e
 3925 01a0 01       		.uleb128 0x1
 3926 01a1 86       		.byte	0x86
 3927 01a2 02       		.uleb128 0x2
 3928 01a3 85       		.byte	0x85
 3929 01a4 03       		.uleb128 0x3
 3930 01a5 84       		.byte	0x84
 3931 01a6 04       		.uleb128 0x4
 3932 01a7 00       		.align	2
 3933              	.LEFDE28:
 3934              	.LSFDE30:
 3935 01a8 24000000 		.4byte	.LEFDE30-.LASFDE30
 3936              	.LASFDE30:
 3937 01ac 00000000 		.4byte	.Lframe0
 3938 01b0 0C130000 		.4byte	.LFB23
 3939 01b4 70020000 		.4byte	.LFE23-.LFB23
 3940 01b8 44       		.byte	0x4
 3941              		.4byte	.LCFI15-.LFB23
ARM GAS  C:\DOCUME~1\TECHCO~1\LOCALS~1\Temp/ccQdbaaa.s 			page 90


 3942 01b9 0E       		.byte	0xe
 3943 01ba 24       		.uleb128 0x24
 3944 01bb 44       		.byte	0x4
 3945              		.4byte	.LCFI16-.LCFI15
 3946 01bc 0E       		.byte	0xe
 3947 01bd 2C       		.uleb128 0x2c
 3948 01be 8E       		.byte	0x8e
 3949 01bf 01       		.uleb128 0x1
 3950 01c0 8B       		.byte	0x8b
 3951 01c1 02       		.uleb128 0x2
 3952 01c2 8A       		.byte	0x8a
 3953 01c3 03       		.uleb128 0x3
 3954 01c4 89       		.byte	0x89
 3955 01c5 04       		.uleb128 0x4
 3956 01c6 88       		.byte	0x88
 3957 01c7 05       		.uleb128 0x5
 3958 01c8 87       		.byte	0x87
 3959 01c9 06       		.uleb128 0x6
 3960 01ca 86       		.byte	0x86
 3961 01cb 07       		.uleb128 0x7
 3962 01cc 85       		.byte	0x85
 3963 01cd 08       		.uleb128 0x8
 3964 01ce 84       		.byte	0x84
 3965 01cf 09       		.uleb128 0x9
 3966              		.align	2
 3967              	.LEFDE30:
 3968              	.LSFDE32:
 3969 01d0 18000000 		.4byte	.LEFDE32-.LASFDE32
 3970              	.LASFDE32:
 3971 01d4 00000000 		.4byte	.Lframe0
 3972 01d8 7C150000 		.4byte	.LFB22
 3973 01dc A0000000 		.4byte	.LFE22-.LFB22
 3974 01e0 44       		.byte	0x4
 3975              		.4byte	.LCFI17-.LFB22
 3976 01e1 0E       		.byte	0xe
 3977 01e2 10       		.uleb128 0x10
 3978 01e3 8E       		.byte	0x8e
 3979 01e4 01       		.uleb128 0x1
 3980 01e5 86       		.byte	0x86
 3981 01e6 02       		.uleb128 0x2
 3982 01e7 85       		.byte	0x85
 3983 01e8 03       		.uleb128 0x3
 3984 01e9 84       		.byte	0x84
 3985 01ea 04       		.uleb128 0x4
 3986 01eb 00       		.align	2
 3987              	.LEFDE32:
 3988              	.LSFDE34:
 3989 01ec 20000000 		.4byte	.LEFDE34-.LASFDE34
 3990              	.LASFDE34:
 3991 01f0 00000000 		.4byte	.Lframe0
 3992 01f4 1C160000 		.4byte	.LFB17
 3993 01f8 F8000000 		.4byte	.LFE17-.LFB17
 3994 01fc 44       		.byte	0x4
 3995              		.4byte	.LCFI18-.LFB17
 3996 01fd 0E       		.byte	0xe
 3997 01fe 18       		.uleb128 0x18
 3998 01ff 44       		.byte	0x4
ARM GAS  C:\DOCUME~1\TECHCO~1\LOCALS~1\Temp/ccQdbaaa.s 			page 91


 3999              		.4byte	.LCFI19-.LCFI18
 4000 0200 0E       		.byte	0xe
 4001 0201 1C       		.uleb128 0x1c
 4002 0202 8E       		.byte	0x8e
 4003 0203 01       		.uleb128 0x1
 4004 0204 88       		.byte	0x88
 4005 0205 02       		.uleb128 0x2
 4006 0206 87       		.byte	0x87
 4007 0207 03       		.uleb128 0x3
 4008 0208 86       		.byte	0x86
 4009 0209 04       		.uleb128 0x4
 4010 020a 85       		.byte	0x85
 4011 020b 05       		.uleb128 0x5
 4012 020c 84       		.byte	0x84
 4013 020d 06       		.uleb128 0x6
 4014 020e 0000     		.align	2
 4015              	.LEFDE34:
 4016              	.LSFDE36:
 4017 0210 18000000 		.4byte	.LEFDE36-.LASFDE36
 4018              	.LASFDE36:
 4019 0214 00000000 		.4byte	.Lframe0
 4020 0218 14170000 		.4byte	.LFB15
 4021 021c B4000000 		.4byte	.LFE15-.LFB15
 4022 0220 44       		.byte	0x4
 4023              		.4byte	.LCFI20-.LFB15
 4024 0221 0E       		.byte	0xe
 4025 0222 0C       		.uleb128 0xc
 4026 0223 8E       		.byte	0x8e
 4027 0224 01       		.uleb128 0x1
 4028 0225 85       		.byte	0x85
 4029 0226 02       		.uleb128 0x2
 4030 0227 84       		.byte	0x84
 4031 0228 03       		.uleb128 0x3
 4032 0229 000000   		.align	2
 4033              	.LEFDE36:
 4034              	.LSFDE38:
 4035 022c 1C000000 		.4byte	.LEFDE38-.LASFDE38
 4036              	.LASFDE38:
 4037 0230 00000000 		.4byte	.Lframe0
 4038 0234 C8170000 		.4byte	.LFB14
 4039 0238 34010000 		.4byte	.LFE14-.LFB14
 4040 023c 44       		.byte	0x4
 4041              		.4byte	.LCFI21-.LFB14
 4042 023d 0E       		.byte	0xe
 4043 023e 14       		.uleb128 0x14
 4044 023f 44       		.byte	0x4
 4045              		.4byte	.LCFI22-.LCFI21
 4046 0240 0E       		.byte	0xe
 4047 0241 1C       		.uleb128 0x1c
 4048 0242 8E       		.byte	0x8e
 4049 0243 01       		.uleb128 0x1
 4050 0244 87       		.byte	0x87
 4051 0245 02       		.uleb128 0x2
 4052 0246 86       		.byte	0x86
 4053 0247 03       		.uleb128 0x3
 4054 0248 85       		.byte	0x85
 4055 0249 04       		.uleb128 0x4
ARM GAS  C:\DOCUME~1\TECHCO~1\LOCALS~1\Temp/ccQdbaaa.s 			page 92


 4056 024a 84       		.byte	0x84
 4057 024b 05       		.uleb128 0x5
 4058              		.align	2
 4059              	.LEFDE38:
 4060              	.LSFDE40:
 4061 024c 24000000 		.4byte	.LEFDE40-.LASFDE40
 4062              	.LASFDE40:
 4063 0250 00000000 		.4byte	.Lframe0
 4064 0254 FC180000 		.4byte	.LFB13
 4065 0258 64000000 		.4byte	.LFE13-.LFB13
 4066 025c 44       		.byte	0x4
 4067              		.4byte	.LCFI23-.LFB13
 4068 025d 0E       		.byte	0xe
 4069 025e 20       		.uleb128 0x20
 4070 025f 44       		.byte	0x4
 4071              		.4byte	.LCFI24-.LCFI23
 4072 0260 0E       		.byte	0xe
 4073 0261 24       		.uleb128 0x24
 4074 0262 8E       		.byte	0x8e
 4075 0263 01       		.uleb128 0x1
 4076 0264 8A       		.byte	0x8a
 4077 0265 02       		.uleb128 0x2
 4078 0266 89       		.byte	0x89
 4079 0267 03       		.uleb128 0x3
 4080 0268 88       		.byte	0x88
 4081 0269 04       		.uleb128 0x4
 4082 026a 87       		.byte	0x87
 4083 026b 05       		.uleb128 0x5
 4084 026c 86       		.byte	0x86
 4085 026d 06       		.uleb128 0x6
 4086 026e 85       		.byte	0x85
 4087 026f 07       		.uleb128 0x7
 4088 0270 84       		.byte	0x84
 4089 0271 08       		.uleb128 0x8
 4090 0272 0000     		.align	2
 4091              	.LEFDE40:
 4092              	.LSFDE42:
 4093 0274 20000000 		.4byte	.LEFDE42-.LASFDE42
 4094              	.LASFDE42:
 4095 0278 00000000 		.4byte	.Lframe0
 4096 027c 60190000 		.4byte	.LFB12
 4097 0280 E4000000 		.4byte	.LFE12-.LFB12
 4098 0284 44       		.byte	0x4
 4099              		.4byte	.LCFI25-.LFB12
 4100 0285 0E       		.byte	0xe
 4101 0286 18       		.uleb128 0x18
 4102 0287 44       		.byte	0x4
 4103              		.4byte	.LCFI26-.LCFI25
 4104 0288 0E       		.byte	0xe
 4105 0289 1C       		.uleb128 0x1c
 4106 028a 8E       		.byte	0x8e
 4107 028b 01       		.uleb128 0x1
 4108 028c 88       		.byte	0x88
 4109 028d 02       		.uleb128 0x2
 4110 028e 87       		.byte	0x87
 4111 028f 03       		.uleb128 0x3
 4112 0290 86       		.byte	0x86
ARM GAS  C:\DOCUME~1\TECHCO~1\LOCALS~1\Temp/ccQdbaaa.s 			page 93


 4113 0291 04       		.uleb128 0x4
 4114 0292 85       		.byte	0x85
 4115 0293 05       		.uleb128 0x5
 4116 0294 84       		.byte	0x84
 4117 0295 06       		.uleb128 0x6
 4118 0296 0000     		.align	2
 4119              	.LEFDE42:
 4120              	.LSFDE44:
 4121 0298 1C000000 		.4byte	.LEFDE44-.LASFDE44
 4122              	.LASFDE44:
 4123 029c 00000000 		.4byte	.Lframe0
 4124 02a0 441A0000 		.4byte	.LFB11
 4125 02a4 4C000000 		.4byte	.LFE11-.LFB11
 4126 02a8 44       		.byte	0x4
 4127              		.4byte	.LCFI27-.LFB11
 4128 02a9 0E       		.byte	0xe
 4129 02aa 18       		.uleb128 0x18
 4130 02ab 8E       		.byte	0x8e
 4131 02ac 01       		.uleb128 0x1
 4132 02ad 88       		.byte	0x88
 4133 02ae 02       		.uleb128 0x2
 4134 02af 87       		.byte	0x87
 4135 02b0 03       		.uleb128 0x3
 4136 02b1 86       		.byte	0x86
 4137 02b2 04       		.uleb128 0x4
 4138 02b3 85       		.byte	0x85
 4139 02b4 05       		.uleb128 0x5
 4140 02b5 84       		.byte	0x84
 4141 02b6 06       		.uleb128 0x6
 4142 02b7 00       		.align	2
 4143              	.LEFDE44:
 4144              	.LSFDE46:
 4145 02b8 18000000 		.4byte	.LEFDE46-.LASFDE46
 4146              	.LASFDE46:
 4147 02bc 00000000 		.4byte	.Lframe0
 4148 02c0 901A0000 		.4byte	.LFB16
 4149 02c4 70000000 		.4byte	.LFE16-.LFB16
 4150 02c8 44       		.byte	0x4
 4151              		.4byte	.LCFI28-.LFB16
 4152 02c9 0E       		.byte	0xe
 4153 02ca 0C       		.uleb128 0xc
 4154 02cb 44       		.byte	0x4
 4155              		.4byte	.LCFI29-.LCFI28
 4156 02cc 0E       		.byte	0xe
 4157 02cd 14       		.uleb128 0x14
 4158 02ce 8E       		.byte	0x8e
 4159 02cf 01       		.uleb128 0x1
 4160 02d0 85       		.byte	0x85
 4161 02d1 02       		.uleb128 0x2
 4162 02d2 84       		.byte	0x84
 4163 02d3 03       		.uleb128 0x3
 4164              		.align	2
 4165              	.LEFDE46:
 4166              	.LSFDE48:
 4167 02d4 20000000 		.4byte	.LEFDE48-.LASFDE48
 4168              	.LASFDE48:
 4169 02d8 00000000 		.4byte	.Lframe0
ARM GAS  C:\DOCUME~1\TECHCO~1\LOCALS~1\Temp/ccQdbaaa.s 			page 94


 4170 02dc 001B0000 		.4byte	.LFB7
 4171 02e0 08010000 		.4byte	.LFE7-.LFB7
 4172 02e4 44       		.byte	0x4
 4173              		.4byte	.LCFI30-.LFB7
 4174 02e5 0E       		.byte	0xe
 4175 02e6 1C       		.uleb128 0x1c
 4176 02e7 44       		.byte	0x4
 4177              		.4byte	.LCFI31-.LCFI30
 4178 02e8 0E       		.byte	0xe
 4179 02e9 20       		.uleb128 0x20
 4180 02ea 8E       		.byte	0x8e
 4181 02eb 01       		.uleb128 0x1
 4182 02ec 8A       		.byte	0x8a
 4183 02ed 02       		.uleb128 0x2
 4184 02ee 88       		.byte	0x88
 4185 02ef 03       		.uleb128 0x3
 4186 02f0 87       		.byte	0x87
 4187 02f1 04       		.uleb128 0x4
 4188 02f2 86       		.byte	0x86
 4189 02f3 05       		.uleb128 0x5
 4190 02f4 85       		.byte	0x85
 4191 02f5 06       		.uleb128 0x6
 4192 02f6 84       		.byte	0x84
 4193 02f7 07       		.uleb128 0x7
 4194              		.align	2
 4195              	.LEFDE48:
 4196              	.LSFDE50:
 4197 02f8 20000000 		.4byte	.LEFDE50-.LASFDE50
 4198              	.LASFDE50:
 4199 02fc 00000000 		.4byte	.Lframe0
 4200 0300 081C0000 		.4byte	.LFB5
 4201 0304 54000000 		.4byte	.LFE5-.LFB5
 4202 0308 44       		.byte	0x4
 4203              		.4byte	.LCFI32-.LFB5
 4204 0309 0E       		.byte	0xe
 4205 030a 1C       		.uleb128 0x1c
 4206 030b 8E       		.byte	0x8e
 4207 030c 01       		.uleb128 0x1
 4208 030d 8A       		.byte	0x8a
 4209 030e 02       		.uleb128 0x2
 4210 030f 88       		.byte	0x88
 4211 0310 03       		.uleb128 0x3
 4212 0311 87       		.byte	0x87
 4213 0312 04       		.uleb128 0x4
 4214 0313 86       		.byte	0x86
 4215 0314 05       		.uleb128 0x5
 4216 0315 85       		.byte	0x85
 4217 0316 06       		.uleb128 0x6
 4218 0317 84       		.byte	0x84
 4219 0318 07       		.uleb128 0x7
 4220 0319 000000   		.align	2
 4221              	.LEFDE50:
 4222              	.LSFDE52:
 4223 031c 18000000 		.4byte	.LEFDE52-.LASFDE52
 4224              	.LASFDE52:
 4225 0320 00000000 		.4byte	.Lframe0
 4226 0324 5C1C0000 		.4byte	.LFB10
ARM GAS  C:\DOCUME~1\TECHCO~1\LOCALS~1\Temp/ccQdbaaa.s 			page 95


 4227 0328 B0000000 		.4byte	.LFE10-.LFB10
 4228 032c 44       		.byte	0x4
 4229              		.4byte	.LCFI33-.LFB10
 4230 032d 0E       		.byte	0xe
 4231 032e 0C       		.uleb128 0xc
 4232 032f 44       		.byte	0x4
 4233              		.4byte	.LCFI34-.LCFI33
 4234 0330 0E       		.byte	0xe
 4235 0331 14       		.uleb128 0x14
 4236 0332 8E       		.byte	0x8e
 4237 0333 01       		.uleb128 0x1
 4238 0334 85       		.byte	0x85
 4239 0335 02       		.uleb128 0x2
 4240 0336 84       		.byte	0x84
 4241 0337 03       		.uleb128 0x3
 4242              		.align	2
 4243              	.LEFDE52:
 4244              	.LSFDE54:
 4245 0338 18000000 		.4byte	.LEFDE54-.LASFDE54
 4246              	.LASFDE54:
 4247 033c 00000000 		.4byte	.Lframe0
 4248 0340 0C1D0000 		.4byte	.LFB9
 4249 0344 3C000000 		.4byte	.LFE9-.LFB9
 4250 0348 44       		.byte	0x4
 4251              		.4byte	.LCFI35-.LFB9
 4252 0349 0E       		.byte	0xe
 4253 034a 10       		.uleb128 0x10
 4254 034b 8E       		.byte	0x8e
 4255 034c 01       		.uleb128 0x1
 4256 034d 86       		.byte	0x86
 4257 034e 02       		.uleb128 0x2
 4258 034f 85       		.byte	0x85
 4259 0350 03       		.uleb128 0x3
 4260 0351 84       		.byte	0x84
 4261 0352 04       		.uleb128 0x4
 4262 0353 00       		.align	2
 4263              	.LEFDE54:
 4264              	.LSFDE56:
 4265 0354 1C000000 		.4byte	.LEFDE56-.LASFDE56
 4266              	.LASFDE56:
 4267 0358 00000000 		.4byte	.Lframe0
 4268 035c 481D0000 		.4byte	.LFB4
 4269 0360 FC000000 		.4byte	.LFE4-.LFB4
 4270 0364 44       		.byte	0x4
 4271              		.4byte	.LCFI36-.LFB4
 4272 0365 0E       		.byte	0xe
 4273 0366 14       		.uleb128 0x14
 4274 0367 44       		.byte	0x4
 4275              		.4byte	.LCFI37-.LCFI36
 4276 0368 0E       		.byte	0xe
 4277 0369 18       		.uleb128 0x18
 4278 036a 8E       		.byte	0x8e
 4279 036b 01       		.uleb128 0x1
 4280 036c 87       		.byte	0x87
 4281 036d 02       		.uleb128 0x2
 4282 036e 86       		.byte	0x86
 4283 036f 03       		.uleb128 0x3
ARM GAS  C:\DOCUME~1\TECHCO~1\LOCALS~1\Temp/ccQdbaaa.s 			page 96


 4284 0370 85       		.byte	0x85
 4285 0371 04       		.uleb128 0x4
 4286 0372 84       		.byte	0x84
 4287 0373 05       		.uleb128 0x5
 4288              		.align	2
 4289              	.LEFDE56:
 4290              	.LSFDE58:
 4291 0374 1C000000 		.4byte	.LEFDE58-.LASFDE58
 4292              	.LASFDE58:
 4293 0378 00000000 		.4byte	.Lframe0
 4294 037c 441E0000 		.4byte	.LFB3
 4295 0380 44000000 		.4byte	.LFE3-.LFB3
 4296 0384 44       		.byte	0x4
 4297              		.4byte	.LCFI38-.LFB3
 4298 0385 0E       		.byte	0xe
 4299 0386 14       		.uleb128 0x14
 4300 0387 8E       		.byte	0x8e
 4301 0388 01       		.uleb128 0x1
 4302 0389 87       		.byte	0x87
 4303 038a 02       		.uleb128 0x2
 4304 038b 86       		.byte	0x86
 4305 038c 03       		.uleb128 0x3
 4306 038d 85       		.byte	0x85
 4307 038e 04       		.uleb128 0x4
 4308 038f 84       		.byte	0x84
 4309 0390 05       		.uleb128 0x5
 4310 0391 000000   		.align	2
 4311              	.LEFDE58:
 4312              	.LSFDE60:
 4313 0394 24000000 		.4byte	.LEFDE60-.LASFDE60
 4314              	.LASFDE60:
 4315 0398 00000000 		.4byte	.Lframe0
 4316 039c 881E0000 		.4byte	.LFB2
 4317 03a0 68040000 		.4byte	.LFE2-.LFB2
 4318 03a4 44       		.byte	0x4
 4319              		.4byte	.LCFI39-.LFB2
 4320 03a5 0E       		.byte	0xe
 4321 03a6 24       		.uleb128 0x24
 4322 03a7 44       		.byte	0x4
 4323              		.4byte	.LCFI40-.LCFI39
 4324 03a8 0E       		.byte	0xe
 4325 03a9 48       		.uleb128 0x48
 4326 03aa 8E       		.byte	0x8e
 4327 03ab 01       		.uleb128 0x1
 4328 03ac 8B       		.byte	0x8b
 4329 03ad 02       		.uleb128 0x2
 4330 03ae 8A       		.byte	0x8a
 4331 03af 03       		.uleb128 0x3
 4332 03b0 89       		.byte	0x89
 4333 03b1 04       		.uleb128 0x4
 4334 03b2 88       		.byte	0x88
 4335 03b3 05       		.uleb128 0x5
 4336 03b4 87       		.byte	0x87
 4337 03b5 06       		.uleb128 0x6
 4338 03b6 86       		.byte	0x86
 4339 03b7 07       		.uleb128 0x7
 4340 03b8 85       		.byte	0x85
ARM GAS  C:\DOCUME~1\TECHCO~1\LOCALS~1\Temp/ccQdbaaa.s 			page 97


 4341 03b9 08       		.uleb128 0x8
 4342 03ba 84       		.byte	0x84
 4343 03bb 09       		.uleb128 0x9
 4344              		.align	2
 4345              	.LEFDE60:
 4346              		.file 2 "C:\\WinARM\\armlib/armlibtypes.h"
 4347              		.file 3 "morphology.h"
 4348              		.file 4 "runtime.h"
 4349              		.file 5 "queue.h"
 4350              		.file 6 "./inc/efs.h"
 4351              		.file 7 "./inc/interfaces/lpc2000_spi.h"
 4352              		.file 8 "./inc/types.h"
 4353              		.file 9 "./inc/ioman.h"
 4354              		.file 10 "./inc/disc.h"
 4355              		.file 11 "./inc/partition.h"
 4356              		.file 12 "./inc/fs.h"
 4357              		.file 13 "./inc/file.h"
 4358              		.file 14 "./inc/ls.h"
 4359              		.file 15 "molecubePacket.h"
 4360              		.file 16 "C:\\WinARM\\armlib/buffer.h"
 4361              		.text
 4362              	.Letext0:
 4363              		.section	.debug_loc,"",%progbits
 4364              	.Ldebug_loc0:
 4365              	.LLST0:
 4366 0000 00000000 		.4byte	.LFB6-.Ltext0
 4367 0004 04000000 		.4byte	.LCFI0-.Ltext0
 4368 0008 0100     		.2byte	0x1
 4369 000a 5D       		.byte	0x5d
 4370 000b 04000000 		.4byte	.LCFI0-.Ltext0
 4371 000f 58000000 		.4byte	.LFE6-.Ltext0
 4372 0013 0200     		.2byte	0x2
 4373 0015 7D       		.byte	0x7d
 4374 0016 08       		.sleb128 8
 4375 0017 00000000 		.4byte	0x0
 4376 001b 00000000 		.4byte	0x0
 4377              	.LLST1:
 4378 001f 00000000 		.4byte	.LVL0-.Ltext0
 4379 0023 10000000 		.4byte	.LVL2-.Ltext0
 4380 0027 0100     		.2byte	0x1
 4381 0029 50       		.byte	0x50
 4382 002a 10000000 		.4byte	.LVL2-.Ltext0
 4383 002e 58000000 		.4byte	.LFE6-.Ltext0
 4384 0032 0100     		.2byte	0x1
 4385 0034 51       		.byte	0x51
 4386 0035 00000000 		.4byte	0x0
 4387 0039 00000000 		.4byte	0x0
 4388              	.LLST2:
 4389 003d 00000000 		.4byte	.LVL0-.Ltext0
 4390 0041 0C000000 		.4byte	.LVL1-.Ltext0
 4391 0045 0100     		.2byte	0x1
 4392 0047 51       		.byte	0x51
 4393 0048 0C000000 		.4byte	.LVL1-.Ltext0
 4394 004c 58000000 		.4byte	.LFE6-.Ltext0
 4395 0050 0100     		.2byte	0x1
 4396 0052 54       		.byte	0x54
 4397 0053 00000000 		.4byte	0x0
ARM GAS  C:\DOCUME~1\TECHCO~1\LOCALS~1\Temp/ccQdbaaa.s 			page 98


 4398 0057 00000000 		.4byte	0x0
 4399              	.LLST3:
 4400 005b 18000000 		.4byte	.LVL3-.Ltext0
 4401 005f 44000000 		.4byte	.LVL4-.Ltext0
 4402 0063 0100     		.2byte	0x1
 4403 0065 5E       		.byte	0x5e
 4404 0066 4C000000 		.4byte	.LVL5-.Ltext0
 4405 006a 58000000 		.4byte	.LFE6-.Ltext0
 4406 006e 0100     		.2byte	0x1
 4407 0070 5E       		.byte	0x5e
 4408 0071 00000000 		.4byte	0x0
 4409 0075 00000000 		.4byte	0x0
 4410              	.LLST5:
 4411 0079 58000000 		.4byte	.LVL6-.Ltext0
 4412 007d 74000000 		.4byte	.LVL7-.Ltext0
 4413 0081 0100     		.2byte	0x1
 4414 0083 50       		.byte	0x50
 4415 0084 78000000 		.4byte	.LVL8-.Ltext0
 4416 0088 90000000 		.4byte	.LVL9-.Ltext0
 4417 008c 0100     		.2byte	0x1
 4418 008e 50       		.byte	0x50
 4419 008f 94000000 		.4byte	.LVL10-.Ltext0
 4420 0093 B4000000 		.4byte	.LVL11-.Ltext0
 4421 0097 0100     		.2byte	0x1
 4422 0099 50       		.byte	0x50
 4423 009a B8000000 		.4byte	.LVL12-.Ltext0
 4424 009e D0000000 		.4byte	.LVL13-.Ltext0
 4425 00a2 0100     		.2byte	0x1
 4426 00a4 50       		.byte	0x50
 4427 00a5 D4000000 		.4byte	.LVL14-.Ltext0
 4428 00a9 F4000000 		.4byte	.LVL15-.Ltext0
 4429 00ad 0100     		.2byte	0x1
 4430 00af 50       		.byte	0x50
 4431 00b0 F8000000 		.4byte	.LVL16-.Ltext0
 4432 00b4 00010000 		.4byte	.LVL17-.Ltext0
 4433 00b8 0100     		.2byte	0x1
 4434 00ba 50       		.byte	0x50
 4435 00bb 00000000 		.4byte	0x0
 4436 00bf 00000000 		.4byte	0x0
 4437              	.LLST6:
 4438 00c3 74000000 		.4byte	.LVL7-.Ltext0
 4439 00c7 78000000 		.4byte	.LVL8-.Ltext0
 4440 00cb 0100     		.2byte	0x1
 4441 00cd 50       		.byte	0x50
 4442 00ce 90000000 		.4byte	.LVL9-.Ltext0
 4443 00d2 94000000 		.4byte	.LVL10-.Ltext0
 4444 00d6 0100     		.2byte	0x1
 4445 00d8 50       		.byte	0x50
 4446 00d9 B4000000 		.4byte	.LVL11-.Ltext0
 4447 00dd B8000000 		.4byte	.LVL12-.Ltext0
 4448 00e1 0100     		.2byte	0x1
 4449 00e3 50       		.byte	0x50
 4450 00e4 D0000000 		.4byte	.LVL13-.Ltext0
 4451 00e8 D4000000 		.4byte	.LVL14-.Ltext0
 4452 00ec 0100     		.2byte	0x1
 4453 00ee 50       		.byte	0x50
 4454 00ef F4000000 		.4byte	.LVL15-.Ltext0
ARM GAS  C:\DOCUME~1\TECHCO~1\LOCALS~1\Temp/ccQdbaaa.s 			page 99


 4455 00f3 F8000000 		.4byte	.LVL16-.Ltext0
 4456 00f7 0100     		.2byte	0x1
 4457 00f9 50       		.byte	0x50
 4458 00fa 14010000 		.4byte	.LVL18-.Ltext0
 4459 00fe 14010000 		.4byte	.LVL19-.Ltext0
 4460 0102 0100     		.2byte	0x1
 4461 0104 50       		.byte	0x50
 4462 0105 00000000 		.4byte	0x0
 4463 0109 00000000 		.4byte	0x0
 4464              	.LLST7:
 4465 010d 64010000 		.4byte	.LFB18-.Ltext0
 4466 0111 68010000 		.4byte	.LCFI1-.Ltext0
 4467 0115 0100     		.2byte	0x1
 4468 0117 5D       		.byte	0x5d
 4469 0118 68010000 		.4byte	.LCFI1-.Ltext0
 4470 011c E0010000 		.4byte	.LFE18-.Ltext0
 4471 0120 0200     		.2byte	0x2
 4472 0122 7D       		.byte	0x7d
 4473 0123 08       		.sleb128 8
 4474 0124 00000000 		.4byte	0x0
 4475 0128 00000000 		.4byte	0x0
 4476              	.LLST8:
 4477 012c 64010000 		.4byte	.LVL20-.Ltext0
 4478 0130 98010000 		.4byte	.LVL23-.Ltext0
 4479 0134 0100     		.2byte	0x1
 4480 0136 50       		.byte	0x50
 4481 0137 D8010000 		.4byte	.LVL25-.Ltext0
 4482 013b DC010000 		.4byte	.LVL26-.Ltext0
 4483 013f 0100     		.2byte	0x1
 4484 0141 50       		.byte	0x50
 4485 0142 00000000 		.4byte	0x0
 4486 0146 00000000 		.4byte	0x0
 4487              	.LLST9:
 4488 014a 64010000 		.4byte	.LVL20-.Ltext0
 4489 014e 78010000 		.4byte	.LVL21-.Ltext0
 4490 0152 0100     		.2byte	0x1
 4491 0154 52       		.byte	0x52
 4492 0155 78010000 		.4byte	.LVL21-.Ltext0
 4493 0159 E0010000 		.4byte	.LFE18-.Ltext0
 4494 015d 0100     		.2byte	0x1
 4495 015f 5E       		.byte	0x5e
 4496 0160 00000000 		.4byte	0x0
 4497 0164 00000000 		.4byte	0x0
 4498              	.LLST10:
 4499 0168 64010000 		.4byte	.LVL20-.Ltext0
 4500 016c 7C010000 		.4byte	.LVL22-.Ltext0
 4501 0170 0100     		.2byte	0x1
 4502 0172 53       		.byte	0x53
 4503 0173 7C010000 		.4byte	.LVL22-.Ltext0
 4504 0177 E0010000 		.4byte	.LFE18-.Ltext0
 4505 017b 0100     		.2byte	0x1
 4506 017d 54       		.byte	0x54
 4507 017e 00000000 		.4byte	0x0
 4508 0182 00000000 		.4byte	0x0
 4509              	.LLST11:
 4510 0186 E0010000 		.4byte	.LFB19-.Ltext0
 4511 018a E4010000 		.4byte	.LCFI2-.Ltext0
ARM GAS  C:\DOCUME~1\TECHCO~1\LOCALS~1\Temp/ccQdbaaa.s 			page 100


 4512 018e 0100     		.2byte	0x1
 4513 0190 5D       		.byte	0x5d
 4514 0191 E4010000 		.4byte	.LCFI2-.Ltext0
 4515 0195 44020000 		.4byte	.LFE19-.Ltext0
 4516 0199 0200     		.2byte	0x2
 4517 019b 7D       		.byte	0x7d
 4518 019c 04       		.sleb128 4
 4519 019d 00000000 		.4byte	0x0
 4520 01a1 00000000 		.4byte	0x0
 4521              	.LLST12:
 4522 01a5 E0010000 		.4byte	.LVL27-.Ltext0
 4523 01a9 04020000 		.4byte	.LVL28-.Ltext0
 4524 01ad 0100     		.2byte	0x1
 4525 01af 50       		.byte	0x50
 4526 01b0 3C020000 		.4byte	.LVL30-.Ltext0
 4527 01b4 40020000 		.4byte	.LVL31-.Ltext0
 4528 01b8 0100     		.2byte	0x1
 4529 01ba 50       		.byte	0x50
 4530 01bb 00000000 		.4byte	0x0
 4531 01bf 00000000 		.4byte	0x0
 4532              	.LLST13:
 4533 01c3 44020000 		.4byte	.LFB20-.Ltext0
 4534 01c7 48020000 		.4byte	.LCFI3-.Ltext0
 4535 01cb 0100     		.2byte	0x1
 4536 01cd 5D       		.byte	0x5d
 4537 01ce 48020000 		.4byte	.LCFI3-.Ltext0
 4538 01d2 AC020000 		.4byte	.LFE20-.Ltext0
 4539 01d6 0200     		.2byte	0x2
 4540 01d8 7D       		.byte	0x7d
 4541 01d9 08       		.sleb128 8
 4542 01da 00000000 		.4byte	0x0
 4543 01de 00000000 		.4byte	0x0
 4544              	.LLST14:
 4545 01e2 44020000 		.4byte	.LVL32-.Ltext0
 4546 01e6 7C020000 		.4byte	.LVL36-.Ltext0
 4547 01ea 0100     		.2byte	0x1
 4548 01ec 50       		.byte	0x50
 4549 01ed A4020000 		.4byte	.LVL37-.Ltext0
 4550 01f1 A8020000 		.4byte	.LVL38-.Ltext0
 4551 01f5 0100     		.2byte	0x1
 4552 01f7 50       		.byte	0x50
 4553 01f8 00000000 		.4byte	0x0
 4554 01fc 00000000 		.4byte	0x0
 4555              	.LLST15:
 4556 0200 44020000 		.4byte	.LVL32-.Ltext0
 4557 0204 64020000 		.4byte	.LVL34-.Ltext0
 4558 0208 0100     		.2byte	0x1
 4559 020a 51       		.byte	0x51
 4560 020b A4020000 		.4byte	.LVL37-.Ltext0
 4561 020f AC020000 		.4byte	.LFE20-.Ltext0
 4562 0213 0100     		.2byte	0x1
 4563 0215 51       		.byte	0x51
 4564 0216 00000000 		.4byte	0x0
 4565 021a 00000000 		.4byte	0x0
 4566              	.LLST16:
 4567 021e 44020000 		.4byte	.LVL32-.Ltext0
 4568 0222 50020000 		.4byte	.LVL33-.Ltext0
ARM GAS  C:\DOCUME~1\TECHCO~1\LOCALS~1\Temp/ccQdbaaa.s 			page 101


 4569 0226 0100     		.2byte	0x1
 4570 0228 52       		.byte	0x52
 4571 0229 50020000 		.4byte	.LVL33-.Ltext0
 4572 022d AC020000 		.4byte	.LFE20-.Ltext0
 4573 0231 0100     		.2byte	0x1
 4574 0233 54       		.byte	0x54
 4575 0234 00000000 		.4byte	0x0
 4576 0238 00000000 		.4byte	0x0
 4577              	.LLST17:
 4578 023c AC020000 		.4byte	.LFB21-.Ltext0
 4579 0240 B0020000 		.4byte	.LCFI4-.Ltext0
 4580 0244 0100     		.2byte	0x1
 4581 0246 5D       		.byte	0x5d
 4582 0247 B0020000 		.4byte	.LCFI4-.Ltext0
 4583 024b 0C030000 		.4byte	.LFE21-.Ltext0
 4584 024f 0200     		.2byte	0x2
 4585 0251 7D       		.byte	0x7d
 4586 0252 04       		.sleb128 4
 4587 0253 00000000 		.4byte	0x0
 4588 0257 00000000 		.4byte	0x0
 4589              	.LLST18:
 4590 025b AC020000 		.4byte	.LVL39-.Ltext0
 4591 025f CC020000 		.4byte	.LVL40-.Ltext0
 4592 0263 0100     		.2byte	0x1
 4593 0265 50       		.byte	0x50
 4594 0266 04030000 		.4byte	.LVL42-.Ltext0
 4595 026a 08030000 		.4byte	.LVL43-.Ltext0
 4596 026e 0100     		.2byte	0x1
 4597 0270 50       		.byte	0x50
 4598 0271 00000000 		.4byte	0x0
 4599 0275 00000000 		.4byte	0x0
 4600              	.LLST19:
 4601 0279 0C030000 		.4byte	.LFB24-.Ltext0
 4602 027d 10030000 		.4byte	.LCFI5-.Ltext0
 4603 0281 0100     		.2byte	0x1
 4604 0283 5D       		.byte	0x5d
 4605 0284 10030000 		.4byte	.LCFI5-.Ltext0
 4606 0288 34040000 		.4byte	.LFE24-.Ltext0
 4607 028c 0200     		.2byte	0x2
 4608 028e 7D       		.byte	0x7d
 4609 028f 18       		.sleb128 24
 4610 0290 00000000 		.4byte	0x0
 4611 0294 00000000 		.4byte	0x0
 4612              	.LLST20:
 4613 0298 0C030000 		.4byte	.LVL44-.Ltext0
 4614 029c 9C030000 		.4byte	.LVL45-.Ltext0
 4615 02a0 0100     		.2byte	0x1
 4616 02a2 50       		.byte	0x50
 4617 02a3 A0030000 		.4byte	.LVL46-.Ltext0
 4618 02a7 CC030000 		.4byte	.LVL47-.Ltext0
 4619 02ab 0100     		.2byte	0x1
 4620 02ad 50       		.byte	0x50
 4621 02ae D0030000 		.4byte	.LVL48-.Ltext0
 4622 02b2 FC030000 		.4byte	.LVL49-.Ltext0
 4623 02b6 0100     		.2byte	0x1
 4624 02b8 50       		.byte	0x50
 4625 02b9 00040000 		.4byte	.LVL50-.Ltext0
ARM GAS  C:\DOCUME~1\TECHCO~1\LOCALS~1\Temp/ccQdbaaa.s 			page 102


 4626 02bd 04040000 		.4byte	.LVL51-.Ltext0
 4627 02c1 0100     		.2byte	0x1
 4628 02c3 50       		.byte	0x50
 4629 02c4 00000000 		.4byte	0x0
 4630 02c8 00000000 		.4byte	0x0
 4631              	.LLST22:
 4632 02cc 34040000 		.4byte	.LVL52-.Ltext0
 4633 02d0 4C040000 		.4byte	.LVL56-.Ltext0
 4634 02d4 0100     		.2byte	0x1
 4635 02d6 50       		.byte	0x50
 4636 02d7 64040000 		.4byte	.LVL57-.Ltext0
 4637 02db 68040000 		.4byte	.LVL58-.Ltext0
 4638 02df 0100     		.2byte	0x1
 4639 02e1 50       		.byte	0x50
 4640 02e2 00000000 		.4byte	0x0
 4641 02e6 00000000 		.4byte	0x0
 4642              	.LLST23:
 4643 02ea 34040000 		.4byte	.LVL52-.Ltext0
 4644 02ee 38040000 		.4byte	.LVL53-.Ltext0
 4645 02f2 0100     		.2byte	0x1
 4646 02f4 51       		.byte	0x51
 4647 02f5 00000000 		.4byte	0x0
 4648 02f9 00000000 		.4byte	0x0
 4649              	.LLST24:
 4650 02fd 4C040000 		.4byte	.LVL56-.Ltext0
 4651 0301 68040000 		.4byte	.LVL58-.Ltext0
 4652 0305 0100     		.2byte	0x1
 4653 0307 50       		.byte	0x50
 4654 0308 00000000 		.4byte	0x0
 4655 030c 00000000 		.4byte	0x0
 4656              	.LLST25:
 4657 0310 6C040000 		.4byte	.LFB30-.Ltext0
 4658 0314 70040000 		.4byte	.LCFI6-.Ltext0
 4659 0318 0100     		.2byte	0x1
 4660 031a 5D       		.byte	0x5d
 4661 031b 70040000 		.4byte	.LCFI6-.Ltext0
 4662 031f 50050000 		.4byte	.LFE30-.Ltext0
 4663 0323 0200     		.2byte	0x2
 4664 0325 7D       		.byte	0x7d
 4665 0326 1C       		.sleb128 28
 4666 0327 00000000 		.4byte	0x0
 4667 032b 00000000 		.4byte	0x0
 4668              	.LLST26:
 4669 032f 50050000 		.4byte	.LFB31-.Ltext0
 4670 0333 54050000 		.4byte	.LCFI7-.Ltext0
 4671 0337 0100     		.2byte	0x1
 4672 0339 5D       		.byte	0x5d
 4673 033a 54050000 		.4byte	.LCFI7-.Ltext0
 4674 033e E0050000 		.4byte	.LFE31-.Ltext0
 4675 0342 0200     		.2byte	0x2
 4676 0344 7D       		.byte	0x7d
 4677 0345 10       		.sleb128 16
 4678 0346 00000000 		.4byte	0x0
 4679 034a 00000000 		.4byte	0x0
 4680              	.LLST27:
 4681 034e E0050000 		.4byte	.LFB32-.Ltext0
 4682 0352 E4050000 		.4byte	.LCFI8-.Ltext0
ARM GAS  C:\DOCUME~1\TECHCO~1\LOCALS~1\Temp/ccQdbaaa.s 			page 103


 4683 0356 0100     		.2byte	0x1
 4684 0358 5D       		.byte	0x5d
 4685 0359 E4050000 		.4byte	.LCFI8-.Ltext0
 4686 035d 9C070000 		.4byte	.LFE32-.Ltext0
 4687 0361 0200     		.2byte	0x2
 4688 0363 7D       		.byte	0x7d
 4689 0364 04       		.sleb128 4
 4690 0365 00000000 		.4byte	0x0
 4691 0369 00000000 		.4byte	0x0
 4692              	.LLST28:
 4693 036d E0050000 		.4byte	.LVL64-.Ltext0
 4694 0371 38060000 		.4byte	.LVL65-.Ltext0
 4695 0375 0100     		.2byte	0x1
 4696 0377 50       		.byte	0x50
 4697 0378 44060000 		.4byte	.LVL66-.Ltext0
 4698 037c 48060000 		.4byte	.LVL67-.Ltext0
 4699 0380 0100     		.2byte	0x1
 4700 0382 50       		.byte	0x50
 4701 0383 54060000 		.4byte	.LVL68-.Ltext0
 4702 0387 58060000 		.4byte	.LVL69-.Ltext0
 4703 038b 0100     		.2byte	0x1
 4704 038d 50       		.byte	0x50
 4705 038e 64060000 		.4byte	.LVL70-.Ltext0
 4706 0392 68060000 		.4byte	.LVL71-.Ltext0
 4707 0396 0100     		.2byte	0x1
 4708 0398 50       		.byte	0x50
 4709 0399 74060000 		.4byte	.LVL72-.Ltext0
 4710 039d 78060000 		.4byte	.LVL73-.Ltext0
 4711 03a1 0100     		.2byte	0x1
 4712 03a3 50       		.byte	0x50
 4713 03a4 84060000 		.4byte	.LVL74-.Ltext0
 4714 03a8 88060000 		.4byte	.LVL75-.Ltext0
 4715 03ac 0100     		.2byte	0x1
 4716 03ae 50       		.byte	0x50
 4717 03af 94060000 		.4byte	.LVL76-.Ltext0
 4718 03b3 98060000 		.4byte	.LVL77-.Ltext0
 4719 03b7 0100     		.2byte	0x1
 4720 03b9 50       		.byte	0x50
 4721 03ba A4060000 		.4byte	.LVL78-.Ltext0
 4722 03be A8060000 		.4byte	.LVL79-.Ltext0
 4723 03c2 0100     		.2byte	0x1
 4724 03c4 50       		.byte	0x50
 4725 03c5 B4060000 		.4byte	.LVL80-.Ltext0
 4726 03c9 B8060000 		.4byte	.LVL81-.Ltext0
 4727 03cd 0100     		.2byte	0x1
 4728 03cf 50       		.byte	0x50
 4729 03d0 C4060000 		.4byte	.LVL82-.Ltext0
 4730 03d4 C8060000 		.4byte	.LVL83-.Ltext0
 4731 03d8 0100     		.2byte	0x1
 4732 03da 50       		.byte	0x50
 4733 03db D4060000 		.4byte	.LVL84-.Ltext0
 4734 03df D8060000 		.4byte	.LVL85-.Ltext0
 4735 03e3 0100     		.2byte	0x1
 4736 03e5 50       		.byte	0x50
 4737 03e6 E4060000 		.4byte	.LVL86-.Ltext0
 4738 03ea E8060000 		.4byte	.LVL87-.Ltext0
 4739 03ee 0100     		.2byte	0x1
ARM GAS  C:\DOCUME~1\TECHCO~1\LOCALS~1\Temp/ccQdbaaa.s 			page 104


 4740 03f0 50       		.byte	0x50
 4741 03f1 F4060000 		.4byte	.LVL88-.Ltext0
 4742 03f5 F8060000 		.4byte	.LVL89-.Ltext0
 4743 03f9 0100     		.2byte	0x1
 4744 03fb 50       		.byte	0x50
 4745 03fc 04070000 		.4byte	.LVL90-.Ltext0
 4746 0400 08070000 		.4byte	.LVL91-.Ltext0
 4747 0404 0100     		.2byte	0x1
 4748 0406 50       		.byte	0x50
 4749 0407 14070000 		.4byte	.LVL92-.Ltext0
 4750 040b 18070000 		.4byte	.LVL93-.Ltext0
 4751 040f 0100     		.2byte	0x1
 4752 0411 50       		.byte	0x50
 4753 0412 24070000 		.4byte	.LVL94-.Ltext0
 4754 0416 28070000 		.4byte	.LVL95-.Ltext0
 4755 041a 0100     		.2byte	0x1
 4756 041c 50       		.byte	0x50
 4757 041d 34070000 		.4byte	.LVL96-.Ltext0
 4758 0421 38070000 		.4byte	.LVL97-.Ltext0
 4759 0425 0100     		.2byte	0x1
 4760 0427 50       		.byte	0x50
 4761 0428 44070000 		.4byte	.LVL98-.Ltext0
 4762 042c 48070000 		.4byte	.LVL99-.Ltext0
 4763 0430 0100     		.2byte	0x1
 4764 0432 50       		.byte	0x50
 4765 0433 00000000 		.4byte	0x0
 4766 0437 00000000 		.4byte	0x0
 4767              	.LLST29:
 4768 043b 9C070000 		.4byte	.LFB28-.Ltext0
 4769 043f A0070000 		.4byte	.LCFI9-.Ltext0
 4770 0443 0100     		.2byte	0x1
 4771 0445 5D       		.byte	0x5d
 4772 0446 A0070000 		.4byte	.LCFI9-.Ltext0
 4773 044a 34080000 		.4byte	.LFE28-.Ltext0
 4774 044e 0200     		.2byte	0x2
 4775 0450 7D       		.byte	0x7d
 4776 0451 0C       		.sleb128 12
 4777 0452 00000000 		.4byte	0x0
 4778 0456 00000000 		.4byte	0x0
 4779              	.LLST30:
 4780 045a B4070000 		.4byte	.LVL100-.Ltext0
 4781 045e F0070000 		.4byte	.LVL101-.Ltext0
 4782 0462 0100     		.2byte	0x1
 4783 0464 54       		.byte	0x54
 4784 0465 00000000 		.4byte	0x0
 4785 0469 00000000 		.4byte	0x0
 4786              	.LLST31:
 4787 046d 34080000 		.4byte	.LFB27-.Ltext0
 4788 0471 38080000 		.4byte	.LCFI10-.Ltext0
 4789 0475 0100     		.2byte	0x1
 4790 0477 5D       		.byte	0x5d
 4791 0478 38080000 		.4byte	.LCFI10-.Ltext0
 4792 047c 3C080000 		.4byte	.LCFI11-.Ltext0
 4793 0480 0200     		.2byte	0x2
 4794 0482 7D       		.byte	0x7d
 4795 0483 24       		.sleb128 36
 4796 0484 3C080000 		.4byte	.LCFI11-.Ltext0
ARM GAS  C:\DOCUME~1\TECHCO~1\LOCALS~1\Temp/ccQdbaaa.s 			page 105


 4797 0488 700D0000 		.4byte	.LFE27-.Ltext0
 4798 048c 0200     		.2byte	0x2
 4799 048e 7D       		.byte	0x7d
 4800 048f 28       		.sleb128 40
 4801 0490 00000000 		.4byte	0x0
 4802 0494 00000000 		.4byte	0x0
 4803              	.LLST32:
 4804 0498 34080000 		.4byte	.LVL102-.Ltext0
 4805 049c 44080000 		.4byte	.LVL103-.Ltext0
 4806 04a0 0100     		.2byte	0x1
 4807 04a2 50       		.byte	0x50
 4808 04a3 44080000 		.4byte	.LVL103-.Ltext0
 4809 04a7 68080000 		.4byte	.LVL104-.Ltext0
 4810 04ab 0100     		.2byte	0x1
 4811 04ad 54       		.byte	0x54
 4812 04ae 580D0000 		.4byte	.LVL119-.Ltext0
 4813 04b2 700D0000 		.4byte	.LFE27-.Ltext0
 4814 04b6 0100     		.2byte	0x1
 4815 04b8 54       		.byte	0x54
 4816 04b9 00000000 		.4byte	0x0
 4817 04bd 00000000 		.4byte	0x0
 4818              	.LLST33:
 4819 04c1 B0080000 		.4byte	.LVL105-.Ltext0
 4820 04c5 E40B0000 		.4byte	.LVL107-.Ltext0
 4821 04c9 0100     		.2byte	0x1
 4822 04cb 5B       		.byte	0x5b
 4823 04cc E40B0000 		.4byte	.LVL107-.Ltext0
 4824 04d0 440D0000 		.4byte	.LVL117-.Ltext0
 4825 04d4 0100     		.2byte	0x1
 4826 04d6 5A       		.byte	0x5a
 4827 04d7 540D0000 		.4byte	.LVL118-.Ltext0
 4828 04db 700D0000 		.4byte	.LFE27-.Ltext0
 4829 04df 0100     		.2byte	0x1
 4830 04e1 5A       		.byte	0x5a
 4831 04e2 00000000 		.4byte	0x0
 4832 04e6 00000000 		.4byte	0x0
 4833              	.LLST34:
 4834 04ea B8080000 		.4byte	.LVL106-.Ltext0
 4835 04ee EC0B0000 		.4byte	.LVL108-.Ltext0
 4836 04f2 0100     		.2byte	0x1
 4837 04f4 58       		.byte	0x58
 4838 04f5 EC0C0000 		.4byte	.LVL109-.Ltext0
 4839 04f9 540D0000 		.4byte	.LVL118-.Ltext0
 4840 04fd 0100     		.2byte	0x1
 4841 04ff 58       		.byte	0x58
 4842 0500 580D0000 		.4byte	.LVL119-.Ltext0
 4843 0504 700D0000 		.4byte	.LFE27-.Ltext0
 4844 0508 0100     		.2byte	0x1
 4845 050a 58       		.byte	0x58
 4846 050b 00000000 		.4byte	0x0
 4847 050f 00000000 		.4byte	0x0
 4848              	.LLST35:
 4849 0513 0C0D0000 		.4byte	.LVL110-.Ltext0
 4850 0517 180D0000 		.4byte	.LVL111-.Ltext0
 4851 051b 0200     		.2byte	0x2
 4852 051d 91       		.byte	0x91
 4853 051e 77       		.sleb128 -9
ARM GAS  C:\DOCUME~1\TECHCO~1\LOCALS~1\Temp/ccQdbaaa.s 			page 106


 4854 051f 180D0000 		.4byte	.LVL111-.Ltext0
 4855 0523 1C0D0000 		.4byte	.LVL112-.Ltext0
 4856 0527 0100     		.2byte	0x1
 4857 0529 53       		.byte	0x53
 4858 052a 1C0D0000 		.4byte	.LVL112-.Ltext0
 4859 052e 440D0000 		.4byte	.LVL117-.Ltext0
 4860 0532 0200     		.2byte	0x2
 4861 0534 91       		.byte	0x91
 4862 0535 77       		.sleb128 -9
 4863 0536 580D0000 		.4byte	.LVL119-.Ltext0
 4864 053a 700D0000 		.4byte	.LFE27-.Ltext0
 4865 053e 0200     		.2byte	0x2
 4866 0540 91       		.byte	0x91
 4867 0541 77       		.sleb128 -9
 4868 0542 00000000 		.4byte	0x0
 4869 0546 00000000 		.4byte	0x0
 4870              	.LLST36:
 4871 054a 1C0D0000 		.4byte	.LVL112-.Ltext0
 4872 054e 280D0000 		.4byte	.LVL113-.Ltext0
 4873 0552 0200     		.2byte	0x2
 4874 0554 91       		.byte	0x91
 4875 0555 76       		.sleb128 -10
 4876 0556 280D0000 		.4byte	.LVL113-.Ltext0
 4877 055a 2C0D0000 		.4byte	.LVL114-.Ltext0
 4878 055e 0100     		.2byte	0x1
 4879 0560 53       		.byte	0x53
 4880 0561 2C0D0000 		.4byte	.LVL114-.Ltext0
 4881 0565 340D0000 		.4byte	.LVL115-.Ltext0
 4882 0569 0200     		.2byte	0x2
 4883 056b 91       		.byte	0x91
 4884 056c 76       		.sleb128 -10
 4885 056d 340D0000 		.4byte	.LVL115-.Ltext0
 4886 0571 3C0D0000 		.4byte	.LVL116-.Ltext0
 4887 0575 0100     		.2byte	0x1
 4888 0577 53       		.byte	0x53
 4889 0578 3C0D0000 		.4byte	.LVL116-.Ltext0
 4890 057c 440D0000 		.4byte	.LVL117-.Ltext0
 4891 0580 0200     		.2byte	0x2
 4892 0582 91       		.byte	0x91
 4893 0583 76       		.sleb128 -10
 4894 0584 580D0000 		.4byte	.LVL119-.Ltext0
 4895 0588 700D0000 		.4byte	.LFE27-.Ltext0
 4896 058c 0200     		.2byte	0x2
 4897 058e 91       		.byte	0x91
 4898 058f 76       		.sleb128 -10
 4899 0590 00000000 		.4byte	0x0
 4900 0594 00000000 		.4byte	0x0
 4901              	.LLST37:
 4902 0598 700D0000 		.4byte	.LFB26-.Ltext0
 4903 059c 740D0000 		.4byte	.LCFI12-.Ltext0
 4904 05a0 0100     		.2byte	0x1
 4905 05a2 5D       		.byte	0x5d
 4906 05a3 740D0000 		.4byte	.LCFI12-.Ltext0
 4907 05a7 780D0000 		.4byte	.LCFI13-.Ltext0
 4908 05ab 0200     		.2byte	0x2
 4909 05ad 7D       		.byte	0x7d
 4910 05ae 24       		.sleb128 36
ARM GAS  C:\DOCUME~1\TECHCO~1\LOCALS~1\Temp/ccQdbaaa.s 			page 107


 4911 05af 780D0000 		.4byte	.LCFI13-.Ltext0
 4912 05b3 18120000 		.4byte	.LFE26-.Ltext0
 4913 05b7 0200     		.2byte	0x2
 4914 05b9 7D       		.byte	0x7d
 4915 05ba 28       		.sleb128 40
 4916 05bb 00000000 		.4byte	0x0
 4917 05bf 00000000 		.4byte	0x0
 4918              	.LLST38:
 4919 05c3 700D0000 		.4byte	.LVL120-.Ltext0
 4920 05c7 800D0000 		.4byte	.LVL121-.Ltext0
 4921 05cb 0100     		.2byte	0x1
 4922 05cd 50       		.byte	0x50
 4923 05ce 800D0000 		.4byte	.LVL121-.Ltext0
 4924 05d2 B40D0000 		.4byte	.LVL125-.Ltext0
 4925 05d6 0100     		.2byte	0x1
 4926 05d8 54       		.byte	0x54
 4927 05d9 00120000 		.4byte	.LVL143-.Ltext0
 4928 05dd 18120000 		.4byte	.LFE26-.Ltext0
 4929 05e1 0100     		.2byte	0x1
 4930 05e3 54       		.byte	0x54
 4931 05e4 00000000 		.4byte	0x0
 4932 05e8 00000000 		.4byte	0x0
 4933              	.LLST39:
 4934 05ec DC0D0000 		.4byte	.LVL127-.Ltext0
 4935 05f0 AC100000 		.4byte	.LVL130-.Ltext0
 4936 05f4 0100     		.2byte	0x1
 4937 05f6 5B       		.byte	0x5b
 4938 05f7 AC100000 		.4byte	.LVL130-.Ltext0
 4939 05fb E4110000 		.4byte	.LVL136-.Ltext0
 4940 05ff 0100     		.2byte	0x1
 4941 0601 5A       		.byte	0x5a
 4942 0602 F4110000 		.4byte	.LVL140-.Ltext0
 4943 0606 18120000 		.4byte	.LFE26-.Ltext0
 4944 060a 0100     		.2byte	0x1
 4945 060c 5A       		.byte	0x5a
 4946 060d 00000000 		.4byte	0x0
 4947 0611 00000000 		.4byte	0x0
 4948              	.LLST40:
 4949 0615 E40D0000 		.4byte	.LVL128-.Ltext0
 4950 0619 B4100000 		.4byte	.LVL131-.Ltext0
 4951 061d 0100     		.2byte	0x1
 4952 061f 58       		.byte	0x58
 4953 0620 B8110000 		.4byte	.LVL133-.Ltext0
 4954 0624 FC110000 		.4byte	.LVL142-.Ltext0
 4955 0628 0100     		.2byte	0x1
 4956 062a 58       		.byte	0x58
 4957 062b 00120000 		.4byte	.LVL143-.Ltext0
 4958 062f 18120000 		.4byte	.LFE26-.Ltext0
 4959 0633 0100     		.2byte	0x1
 4960 0635 58       		.byte	0x58
 4961 0636 00000000 		.4byte	0x0
 4962 063a 00000000 		.4byte	0x0
 4963              	.LLST41:
 4964 063e AC0D0000 		.4byte	.LVL124-.Ltext0
 4965 0642 B80D0000 		.4byte	.LVL126-.Ltext0
 4966 0646 0100     		.2byte	0x1
 4967 0648 50       		.byte	0x50
ARM GAS  C:\DOCUME~1\TECHCO~1\LOCALS~1\Temp/ccQdbaaa.s 			page 108


 4968 0649 8C100000 		.4byte	.LVL129-.Ltext0
 4969 064d CC100000 		.4byte	.LVL132-.Ltext0
 4970 0651 0100     		.2byte	0x1
 4971 0653 50       		.byte	0x50
 4972 0654 B8110000 		.4byte	.LVL133-.Ltext0
 4973 0658 C0110000 		.4byte	.LVL134-.Ltext0
 4974 065c 0100     		.2byte	0x1
 4975 065e 50       		.byte	0x50
 4976 065f E0110000 		.4byte	.LVL135-.Ltext0
 4977 0663 E4110000 		.4byte	.LVL136-.Ltext0
 4978 0667 0100     		.2byte	0x1
 4979 0669 50       		.byte	0x50
 4980 066a E8110000 		.4byte	.LVL137-.Ltext0
 4981 066e EC110000 		.4byte	.LVL138-.Ltext0
 4982 0672 0100     		.2byte	0x1
 4983 0674 50       		.byte	0x50
 4984 0675 F0110000 		.4byte	.LVL139-.Ltext0
 4985 0679 F4110000 		.4byte	.LVL140-.Ltext0
 4986 067d 0100     		.2byte	0x1
 4987 067f 50       		.byte	0x50
 4988 0680 F8110000 		.4byte	.LVL141-.Ltext0
 4989 0684 FC110000 		.4byte	.LVL142-.Ltext0
 4990 0688 0100     		.2byte	0x1
 4991 068a 50       		.byte	0x50
 4992 068b 00120000 		.4byte	.LVL143-.Ltext0
 4993 068f 00120000 		.4byte	.LVL144-.Ltext0
 4994 0693 0100     		.2byte	0x1
 4995 0695 50       		.byte	0x50
 4996 0696 00000000 		.4byte	0x0
 4997 069a 00000000 		.4byte	0x0
 4998              	.LLST42:
 4999 069e 18120000 		.4byte	.LFB25-.Ltext0
 5000 06a2 1C120000 		.4byte	.LCFI14-.Ltext0
 5001 06a6 0100     		.2byte	0x1
 5002 06a8 5D       		.byte	0x5d
 5003 06a9 1C120000 		.4byte	.LCFI14-.Ltext0
 5004 06ad 0C130000 		.4byte	.LFE25-.Ltext0
 5005 06b1 0200     		.2byte	0x2
 5006 06b3 7D       		.byte	0x7d
 5007 06b4 10       		.sleb128 16
 5008 06b5 00000000 		.4byte	0x0
 5009 06b9 00000000 		.4byte	0x0
 5010              	.LLST43:
 5011 06bd 18120000 		.4byte	.LVL145-.Ltext0
 5012 06c1 54120000 		.4byte	.LVL147-.Ltext0
 5013 06c5 0100     		.2byte	0x1
 5014 06c7 50       		.byte	0x50
 5015 06c8 54120000 		.4byte	.LVL147-.Ltext0
 5016 06cc 04130000 		.4byte	.LVL153-.Ltext0
 5017 06d0 0100     		.2byte	0x1
 5018 06d2 54       		.byte	0x54
 5019 06d3 04130000 		.4byte	.LVL153-.Ltext0
 5020 06d7 08130000 		.4byte	.LVL154-.Ltext0
 5021 06db 0100     		.2byte	0x1
 5022 06dd 50       		.byte	0x50
 5023 06de 08130000 		.4byte	.LVL154-.Ltext0
 5024 06e2 0C130000 		.4byte	.LFE25-.Ltext0
ARM GAS  C:\DOCUME~1\TECHCO~1\LOCALS~1\Temp/ccQdbaaa.s 			page 109


 5025 06e6 0100     		.2byte	0x1
 5026 06e8 54       		.byte	0x54
 5027 06e9 00000000 		.4byte	0x0
 5028 06ed 00000000 		.4byte	0x0
 5029              	.LLST44:
 5030 06f1 64120000 		.4byte	.LVL148-.Ltext0
 5031 06f5 6C120000 		.4byte	.LVL149-.Ltext0
 5032 06f9 0100     		.2byte	0x1
 5033 06fb 50       		.byte	0x50
 5034 06fc 70120000 		.4byte	.LVL150-.Ltext0
 5035 0700 98120000 		.4byte	.LVL151-.Ltext0
 5036 0704 0100     		.2byte	0x1
 5037 0706 50       		.byte	0x50
 5038 0707 00000000 		.4byte	0x0
 5039 070b 00000000 		.4byte	0x0
 5040              	.LLST45:
 5041 070f 0C130000 		.4byte	.LFB23-.Ltext0
 5042 0713 10130000 		.4byte	.LCFI15-.Ltext0
 5043 0717 0100     		.2byte	0x1
 5044 0719 5D       		.byte	0x5d
 5045 071a 10130000 		.4byte	.LCFI15-.Ltext0
 5046 071e 14130000 		.4byte	.LCFI16-.Ltext0
 5047 0722 0200     		.2byte	0x2
 5048 0724 7D       		.byte	0x7d
 5049 0725 24       		.sleb128 36
 5050 0726 14130000 		.4byte	.LCFI16-.Ltext0
 5051 072a 7C150000 		.4byte	.LFE23-.Ltext0
 5052 072e 0200     		.2byte	0x2
 5053 0730 7D       		.byte	0x7d
 5054 0731 2C       		.sleb128 44
 5055 0732 00000000 		.4byte	0x0
 5056 0736 00000000 		.4byte	0x0
 5057              	.LLST46:
 5058 073a 0C130000 		.4byte	.LVL155-.Ltext0
 5059 073e 34130000 		.4byte	.LVL156-.Ltext0
 5060 0742 0100     		.2byte	0x1
 5061 0744 50       		.byte	0x50
 5062 0745 34130000 		.4byte	.LVL156-.Ltext0
 5063 0749 70130000 		.4byte	.LVL162-.Ltext0
 5064 074d 0100     		.2byte	0x1
 5065 074f 55       		.byte	0x55
 5066 0750 60150000 		.4byte	.LVL166-.Ltext0
 5067 0754 68150000 		.4byte	.LVL167-.Ltext0
 5068 0758 0100     		.2byte	0x1
 5069 075a 55       		.byte	0x55
 5070 075b 74150000 		.4byte	.LVL168-.Ltext0
 5071 075f 7C150000 		.4byte	.LFE23-.Ltext0
 5072 0763 0100     		.2byte	0x1
 5073 0765 55       		.byte	0x55
 5074 0766 00000000 		.4byte	0x0
 5075 076a 00000000 		.4byte	0x0
 5076              	.LLST47:
 5077 076e 0C130000 		.4byte	.LVL155-.Ltext0
 5078 0772 38130000 		.4byte	.LVL157-.Ltext0
 5079 0776 0100     		.2byte	0x1
 5080 0778 51       		.byte	0x51
 5081 0779 38130000 		.4byte	.LVL157-.Ltext0
ARM GAS  C:\DOCUME~1\TECHCO~1\LOCALS~1\Temp/ccQdbaaa.s 			page 110


 5082 077d 7C150000 		.4byte	.LFE23-.Ltext0
 5083 0781 0100     		.2byte	0x1
 5084 0783 58       		.byte	0x58
 5085 0784 00000000 		.4byte	0x0
 5086 0788 00000000 		.4byte	0x0
 5087              	.LLST48:
 5088 078c 0C130000 		.4byte	.LVL155-.Ltext0
 5089 0790 3C130000 		.4byte	.LVL158-.Ltext0
 5090 0794 0100     		.2byte	0x1
 5091 0796 52       		.byte	0x52
 5092 0797 3C130000 		.4byte	.LVL158-.Ltext0
 5093 079b 7C150000 		.4byte	.LFE23-.Ltext0
 5094 079f 0100     		.2byte	0x1
 5095 07a1 5B       		.byte	0x5b
 5096 07a2 00000000 		.4byte	0x0
 5097 07a6 00000000 		.4byte	0x0
 5098              	.LLST49:
 5099 07aa 0C130000 		.4byte	.LVL155-.Ltext0
 5100 07ae 40130000 		.4byte	.LVL159-.Ltext0
 5101 07b2 0100     		.2byte	0x1
 5102 07b4 53       		.byte	0x53
 5103 07b5 40130000 		.4byte	.LVL159-.Ltext0
 5104 07b9 7C150000 		.4byte	.LFE23-.Ltext0
 5105 07bd 0100     		.2byte	0x1
 5106 07bf 5A       		.byte	0x5a
 5107 07c0 00000000 		.4byte	0x0
 5108 07c4 00000000 		.4byte	0x0
 5109              	.LLST50:
 5110 07c8 0C130000 		.4byte	.LVL155-.Ltext0
 5111 07cc 4C130000 		.4byte	.LVL160-.Ltext0
 5112 07d0 0200     		.2byte	0x2
 5113 07d2 91       		.byte	0x91
 5114 07d3 00       		.sleb128 0
 5115 07d4 4C130000 		.4byte	.LVL160-.Ltext0
 5116 07d8 7C150000 		.4byte	.LFE23-.Ltext0
 5117 07dc 0200     		.2byte	0x2
 5118 07de 91       		.byte	0x91
 5119 07df 1C       		.sleb128 28
 5120 07e0 00000000 		.4byte	0x0
 5121 07e4 00000000 		.4byte	0x0
 5122              	.LLST51:
 5123 07e8 0C130000 		.4byte	.LVL155-.Ltext0
 5124 07ec 4C130000 		.4byte	.LVL160-.Ltext0
 5125 07f0 0200     		.2byte	0x2
 5126 07f2 91       		.byte	0x91
 5127 07f3 04       		.sleb128 4
 5128 07f4 4C130000 		.4byte	.LVL160-.Ltext0
 5129 07f8 7C150000 		.4byte	.LFE23-.Ltext0
 5130 07fc 0100     		.2byte	0x1
 5131 07fe 56       		.byte	0x56
 5132 07ff 00000000 		.4byte	0x0
 5133 0803 00000000 		.4byte	0x0
 5134              	.LLST52:
 5135 0807 0C130000 		.4byte	.LVL155-.Ltext0
 5136 080b 4C130000 		.4byte	.LVL160-.Ltext0
 5137 080f 0200     		.2byte	0x2
 5138 0811 91       		.byte	0x91
ARM GAS  C:\DOCUME~1\TECHCO~1\LOCALS~1\Temp/ccQdbaaa.s 			page 111


 5139 0812 08       		.sleb128 8
 5140 0813 4C130000 		.4byte	.LVL160-.Ltext0
 5141 0817 7C150000 		.4byte	.LFE23-.Ltext0
 5142 081b 0100     		.2byte	0x1
 5143 081d 59       		.byte	0x59
 5144 081e 00000000 		.4byte	0x0
 5145 0822 00000000 		.4byte	0x0
 5146              	.LLST53:
 5147 0826 0C130000 		.4byte	.LVL155-.Ltext0
 5148 082a 4C130000 		.4byte	.LVL160-.Ltext0
 5149 082e 0200     		.2byte	0x2
 5150 0830 91       		.byte	0x91
 5151 0831 0C       		.sleb128 12
 5152 0832 4C130000 		.4byte	.LVL160-.Ltext0
 5153 0836 7C150000 		.4byte	.LFE23-.Ltext0
 5154 083a 0100     		.2byte	0x1
 5155 083c 57       		.byte	0x57
 5156 083d 00000000 		.4byte	0x0
 5157 0841 00000000 		.4byte	0x0
 5158              	.LLST54:
 5159 0845 0C130000 		.4byte	.LVL155-.Ltext0
 5160 0849 4C130000 		.4byte	.LVL160-.Ltext0
 5161 084d 0200     		.2byte	0x2
 5162 084f 91       		.byte	0x91
 5163 0850 10       		.sleb128 16
 5164 0851 4C130000 		.4byte	.LVL160-.Ltext0
 5165 0855 7C150000 		.4byte	.LFE23-.Ltext0
 5166 0859 0200     		.2byte	0x2
 5167 085b 91       		.byte	0x91
 5168 085c 2C       		.sleb128 44
 5169 085d 00000000 		.4byte	0x0
 5170 0861 00000000 		.4byte	0x0
 5171              	.LLST55:
 5172 0865 84140000 		.4byte	.LVL164-.Ltext0
 5173 0869 60150000 		.4byte	.LVL166-.Ltext0
 5174 086d 0200     		.2byte	0x2
 5175 086f 91       		.byte	0x91
 5176 0870 77       		.sleb128 -9
 5177 0871 74150000 		.4byte	.LVL168-.Ltext0
 5178 0875 7C150000 		.4byte	.LFE23-.Ltext0
 5179 0879 0200     		.2byte	0x2
 5180 087b 91       		.byte	0x91
 5181 087c 77       		.sleb128 -9
 5182 087d 00000000 		.4byte	0x0
 5183 0881 00000000 		.4byte	0x0
 5184              	.LLST56:
 5185 0885 2C140000 		.4byte	.LVL163-.Ltext0
 5186 0889 CC140000 		.4byte	.LVL165-.Ltext0
 5187 088d 0100     		.2byte	0x1
 5188 088f 50       		.byte	0x50
 5189 0890 00000000 		.4byte	0x0
 5190 0894 00000000 		.4byte	0x0
 5191              	.LLST57:
 5192 0898 7C150000 		.4byte	.LFB22-.Ltext0
 5193 089c 80150000 		.4byte	.LCFI17-.Ltext0
 5194 08a0 0100     		.2byte	0x1
 5195 08a2 5D       		.byte	0x5d
ARM GAS  C:\DOCUME~1\TECHCO~1\LOCALS~1\Temp/ccQdbaaa.s 			page 112


 5196 08a3 80150000 		.4byte	.LCFI17-.Ltext0
 5197 08a7 1C160000 		.4byte	.LFE22-.Ltext0
 5198 08ab 0200     		.2byte	0x2
 5199 08ad 7D       		.byte	0x7d
 5200 08ae 10       		.sleb128 16
 5201 08af 00000000 		.4byte	0x0
 5202 08b3 00000000 		.4byte	0x0
 5203              	.LLST58:
 5204 08b7 7C150000 		.4byte	.LVL169-.Ltext0
 5205 08bb 94150000 		.4byte	.LVL170-.Ltext0
 5206 08bf 0100     		.2byte	0x1
 5207 08c1 50       		.byte	0x50
 5208 08c2 94150000 		.4byte	.LVL170-.Ltext0
 5209 08c6 1C160000 		.4byte	.LFE22-.Ltext0
 5210 08ca 0100     		.2byte	0x1
 5211 08cc 54       		.byte	0x54
 5212 08cd 00000000 		.4byte	0x0
 5213 08d1 00000000 		.4byte	0x0
 5214              	.LLST59:
 5215 08d5 7C150000 		.4byte	.LVL169-.Ltext0
 5216 08d9 94150000 		.4byte	.LVL170-.Ltext0
 5217 08dd 0100     		.2byte	0x1
 5218 08df 51       		.byte	0x51
 5219 08e0 94150000 		.4byte	.LVL170-.Ltext0
 5220 08e4 1C160000 		.4byte	.LFE22-.Ltext0
 5221 08e8 0100     		.2byte	0x1
 5222 08ea 55       		.byte	0x55
 5223 08eb 00000000 		.4byte	0x0
 5224 08ef 00000000 		.4byte	0x0
 5225              	.LLST60:
 5226 08f3 7C150000 		.4byte	.LVL169-.Ltext0
 5227 08f7 94150000 		.4byte	.LVL170-.Ltext0
 5228 08fb 0100     		.2byte	0x1
 5229 08fd 52       		.byte	0x52
 5230 08fe 94150000 		.4byte	.LVL170-.Ltext0
 5231 0902 1C160000 		.4byte	.LFE22-.Ltext0
 5232 0906 0100     		.2byte	0x1
 5233 0908 56       		.byte	0x56
 5234 0909 00000000 		.4byte	0x0
 5235 090d 00000000 		.4byte	0x0
 5236              	.LLST61:
 5237 0911 1C160000 		.4byte	.LFB17-.Ltext0
 5238 0915 20160000 		.4byte	.LCFI18-.Ltext0
 5239 0919 0100     		.2byte	0x1
 5240 091b 5D       		.byte	0x5d
 5241 091c 20160000 		.4byte	.LCFI18-.Ltext0
 5242 0920 24160000 		.4byte	.LCFI19-.Ltext0
 5243 0924 0200     		.2byte	0x2
 5244 0926 7D       		.byte	0x7d
 5245 0927 18       		.sleb128 24
 5246 0928 24160000 		.4byte	.LCFI19-.Ltext0
 5247 092c 14170000 		.4byte	.LFE17-.Ltext0
 5248 0930 0200     		.2byte	0x2
 5249 0932 7D       		.byte	0x7d
 5250 0933 1C       		.sleb128 28
 5251 0934 00000000 		.4byte	0x0
 5252 0938 00000000 		.4byte	0x0
ARM GAS  C:\DOCUME~1\TECHCO~1\LOCALS~1\Temp/ccQdbaaa.s 			page 113


 5253              	.LLST62:
 5254 093c 1C160000 		.4byte	.LVL172-.Ltext0
 5255 0940 50160000 		.4byte	.LVL174-.Ltext0
 5256 0944 0100     		.2byte	0x1
 5257 0946 50       		.byte	0x50
 5258 0947 50160000 		.4byte	.LVL174-.Ltext0
 5259 094b 14170000 		.4byte	.LFE17-.Ltext0
 5260 094f 0100     		.2byte	0x1
 5261 0951 54       		.byte	0x54
 5262 0952 00000000 		.4byte	0x0
 5263 0956 00000000 		.4byte	0x0
 5264              	.LLST63:
 5265 095a 1C160000 		.4byte	.LVL172-.Ltext0
 5266 095e 50160000 		.4byte	.LVL174-.Ltext0
 5267 0962 0100     		.2byte	0x1
 5268 0964 51       		.byte	0x51
 5269 0965 50160000 		.4byte	.LVL174-.Ltext0
 5270 0969 14170000 		.4byte	.LFE17-.Ltext0
 5271 096d 0100     		.2byte	0x1
 5272 096f 55       		.byte	0x55
 5273 0970 00000000 		.4byte	0x0
 5274 0974 00000000 		.4byte	0x0
 5275              	.LLST64:
 5276 0978 1C160000 		.4byte	.LVL172-.Ltext0
 5277 097c 50160000 		.4byte	.LVL174-.Ltext0
 5278 0980 0100     		.2byte	0x1
 5279 0982 52       		.byte	0x52
 5280 0983 50160000 		.4byte	.LVL174-.Ltext0
 5281 0987 14170000 		.4byte	.LFE17-.Ltext0
 5282 098b 0100     		.2byte	0x1
 5283 098d 56       		.byte	0x56
 5284 098e 00000000 		.4byte	0x0
 5285 0992 00000000 		.4byte	0x0
 5286              	.LLST65:
 5287 0996 1C160000 		.4byte	.LVL172-.Ltext0
 5288 099a 3C160000 		.4byte	.LVL173-.Ltext0
 5289 099e 0100     		.2byte	0x1
 5290 09a0 53       		.byte	0x53
 5291 09a1 3C160000 		.4byte	.LVL173-.Ltext0
 5292 09a5 14170000 		.4byte	.LFE17-.Ltext0
 5293 09a9 0100     		.2byte	0x1
 5294 09ab 57       		.byte	0x57
 5295 09ac 00000000 		.4byte	0x0
 5296 09b0 00000000 		.4byte	0x0
 5297              	.LLST66:
 5298 09b4 1C160000 		.4byte	.LVL172-.Ltext0
 5299 09b8 5C160000 		.4byte	.LVL175-.Ltext0
 5300 09bc 0200     		.2byte	0x2
 5301 09be 91       		.byte	0x91
 5302 09bf 00       		.sleb128 0
 5303 09c0 5C160000 		.4byte	.LVL175-.Ltext0
 5304 09c4 14170000 		.4byte	.LFE17-.Ltext0
 5305 09c8 0100     		.2byte	0x1
 5306 09ca 58       		.byte	0x58
 5307 09cb 00000000 		.4byte	0x0
 5308 09cf 00000000 		.4byte	0x0
 5309              	.LLST67:
ARM GAS  C:\DOCUME~1\TECHCO~1\LOCALS~1\Temp/ccQdbaaa.s 			page 114


 5310 09d3 14170000 		.4byte	.LFB15-.Ltext0
 5311 09d7 18170000 		.4byte	.LCFI20-.Ltext0
 5312 09db 0100     		.2byte	0x1
 5313 09dd 5D       		.byte	0x5d
 5314 09de 18170000 		.4byte	.LCFI20-.Ltext0
 5315 09e2 C8170000 		.4byte	.LFE15-.Ltext0
 5316 09e6 0200     		.2byte	0x2
 5317 09e8 7D       		.byte	0x7d
 5318 09e9 0C       		.sleb128 12
 5319 09ea 00000000 		.4byte	0x0
 5320 09ee 00000000 		.4byte	0x0
 5321              	.LLST68:
 5322 09f2 C8170000 		.4byte	.LFB14-.Ltext0
 5323 09f6 CC170000 		.4byte	.LCFI21-.Ltext0
 5324 09fa 0100     		.2byte	0x1
 5325 09fc 5D       		.byte	0x5d
 5326 09fd CC170000 		.4byte	.LCFI21-.Ltext0
 5327 0a01 D0170000 		.4byte	.LCFI22-.Ltext0
 5328 0a05 0200     		.2byte	0x2
 5329 0a07 7D       		.byte	0x7d
 5330 0a08 14       		.sleb128 20
 5331 0a09 D0170000 		.4byte	.LCFI22-.Ltext0
 5332 0a0d FC180000 		.4byte	.LFE14-.Ltext0
 5333 0a11 0200     		.2byte	0x2
 5334 0a13 7D       		.byte	0x7d
 5335 0a14 1C       		.sleb128 28
 5336 0a15 00000000 		.4byte	0x0
 5337 0a19 00000000 		.4byte	0x0
 5338              	.LLST69:
 5339 0a1d C8170000 		.4byte	.LVL178-.Ltext0
 5340 0a21 E0170000 		.4byte	.LVL179-.Ltext0
 5341 0a25 0100     		.2byte	0x1
 5342 0a27 50       		.byte	0x50
 5343 0a28 E0170000 		.4byte	.LVL179-.Ltext0
 5344 0a2c 30180000 		.4byte	.LVL184-.Ltext0
 5345 0a30 0100     		.2byte	0x1
 5346 0a32 57       		.byte	0x57
 5347 0a33 DC180000 		.4byte	.LVL187-.Ltext0
 5348 0a37 E4180000 		.4byte	.LVL189-.Ltext0
 5349 0a3b 0100     		.2byte	0x1
 5350 0a3d 57       		.byte	0x57
 5351 0a3e F0180000 		.4byte	.LVL190-.Ltext0
 5352 0a42 FC180000 		.4byte	.LFE14-.Ltext0
 5353 0a46 0100     		.2byte	0x1
 5354 0a48 57       		.byte	0x57
 5355 0a49 00000000 		.4byte	0x0
 5356 0a4d 00000000 		.4byte	0x0
 5357              	.LLST70:
 5358 0a51 C8170000 		.4byte	.LVL178-.Ltext0
 5359 0a55 F4170000 		.4byte	.LVL181-.Ltext0
 5360 0a59 0100     		.2byte	0x1
 5361 0a5b 51       		.byte	0x51
 5362 0a5c F4170000 		.4byte	.LVL181-.Ltext0
 5363 0a60 40180000 		.4byte	.LVL185-.Ltext0
 5364 0a64 0100     		.2byte	0x1
 5365 0a66 50       		.byte	0x50
 5366 0a67 DC180000 		.4byte	.LVL187-.Ltext0
ARM GAS  C:\DOCUME~1\TECHCO~1\LOCALS~1\Temp/ccQdbaaa.s 			page 115


 5367 0a6b E0180000 		.4byte	.LVL188-.Ltext0
 5368 0a6f 0100     		.2byte	0x1
 5369 0a71 50       		.byte	0x50
 5370 0a72 E0180000 		.4byte	.LVL188-.Ltext0
 5371 0a76 E4180000 		.4byte	.LVL189-.Ltext0
 5372 0a7a 0100     		.2byte	0x1
 5373 0a7c 51       		.byte	0x51
 5374 0a7d F0180000 		.4byte	.LVL190-.Ltext0
 5375 0a81 FC180000 		.4byte	.LFE14-.Ltext0
 5376 0a85 0100     		.2byte	0x1
 5377 0a87 51       		.byte	0x51
 5378 0a88 00000000 		.4byte	0x0
 5379 0a8c 00000000 		.4byte	0x0
 5380              	.LLST71:
 5381 0a90 C8170000 		.4byte	.LVL178-.Ltext0
 5382 0a94 F4170000 		.4byte	.LVL181-.Ltext0
 5383 0a98 0100     		.2byte	0x1
 5384 0a9a 52       		.byte	0x52
 5385 0a9b F4170000 		.4byte	.LVL181-.Ltext0
 5386 0a9f 0C180000 		.4byte	.LVL182-.Ltext0
 5387 0aa3 0100     		.2byte	0x1
 5388 0aa5 53       		.byte	0x53
 5389 0aa6 DC180000 		.4byte	.LVL187-.Ltext0
 5390 0aaa E4180000 		.4byte	.LVL189-.Ltext0
 5391 0aae 0100     		.2byte	0x1
 5392 0ab0 53       		.byte	0x53
 5393 0ab1 F0180000 		.4byte	.LVL190-.Ltext0
 5394 0ab5 FC180000 		.4byte	.LFE14-.Ltext0
 5395 0ab9 0100     		.2byte	0x1
 5396 0abb 53       		.byte	0x53
 5397 0abc 00000000 		.4byte	0x0
 5398 0ac0 00000000 		.4byte	0x0
 5399              	.LLST72:
 5400 0ac4 C8170000 		.4byte	.LVL178-.Ltext0
 5401 0ac8 E4170000 		.4byte	.LVL180-.Ltext0
 5402 0acc 0100     		.2byte	0x1
 5403 0ace 53       		.byte	0x53
 5404 0acf E4170000 		.4byte	.LVL180-.Ltext0
 5405 0ad3 F4170000 		.4byte	.LVL181-.Ltext0
 5406 0ad7 0100     		.2byte	0x1
 5407 0ad9 54       		.byte	0x54
 5408 0ada F4170000 		.4byte	.LVL181-.Ltext0
 5409 0ade 40180000 		.4byte	.LVL185-.Ltext0
 5410 0ae2 0100     		.2byte	0x1
 5411 0ae4 5C       		.byte	0x5c
 5412 0ae5 40180000 		.4byte	.LVL185-.Ltext0
 5413 0ae9 4C180000 		.4byte	.LVL186-.Ltext0
 5414 0aed 0100     		.2byte	0x1
 5415 0aef 54       		.byte	0x54
 5416 0af0 DC180000 		.4byte	.LVL187-.Ltext0
 5417 0af4 E4180000 		.4byte	.LVL189-.Ltext0
 5418 0af8 0100     		.2byte	0x1
 5419 0afa 5C       		.byte	0x5c
 5420 0afb F0180000 		.4byte	.LVL190-.Ltext0
 5421 0aff FC180000 		.4byte	.LFE14-.Ltext0
 5422 0b03 0100     		.2byte	0x1
 5423 0b05 5C       		.byte	0x5c
ARM GAS  C:\DOCUME~1\TECHCO~1\LOCALS~1\Temp/ccQdbaaa.s 			page 116


 5424 0b06 00000000 		.4byte	0x0
 5425 0b0a 00000000 		.4byte	0x0
 5426              	.LLST73:
 5427 0b0e C8170000 		.4byte	.LVL178-.Ltext0
 5428 0b12 F4170000 		.4byte	.LVL181-.Ltext0
 5429 0b16 0200     		.2byte	0x2
 5430 0b18 91       		.byte	0x91
 5431 0b19 00       		.sleb128 0
 5432 0b1a F4170000 		.4byte	.LVL181-.Ltext0
 5433 0b1e 40180000 		.4byte	.LVL185-.Ltext0
 5434 0b22 0100     		.2byte	0x1
 5435 0b24 5E       		.byte	0x5e
 5436 0b25 40180000 		.4byte	.LVL185-.Ltext0
 5437 0b29 DC180000 		.4byte	.LVL187-.Ltext0
 5438 0b2d 0200     		.2byte	0x2
 5439 0b2f 91       		.byte	0x91
 5440 0b30 0C       		.sleb128 12
 5441 0b31 DC180000 		.4byte	.LVL187-.Ltext0
 5442 0b35 E4180000 		.4byte	.LVL189-.Ltext0
 5443 0b39 0100     		.2byte	0x1
 5444 0b3b 5E       		.byte	0x5e
 5445 0b3c E4180000 		.4byte	.LVL189-.Ltext0
 5446 0b40 FC180000 		.4byte	.LFE14-.Ltext0
 5447 0b44 0200     		.2byte	0x2
 5448 0b46 91       		.byte	0x91
 5449 0b47 0C       		.sleb128 12
 5450 0b48 00000000 		.4byte	0x0
 5451 0b4c 00000000 		.4byte	0x0
 5452              	.LLST74:
 5453 0b50 24180000 		.4byte	.LVL183-.Ltext0
 5454 0b54 DC180000 		.4byte	.LVL187-.Ltext0
 5455 0b58 0200     		.2byte	0x2
 5456 0b5a 72       		.byte	0x72
 5457 0b5b 7F       		.sleb128 -1
 5458 0b5c E4180000 		.4byte	.LVL189-.Ltext0
 5459 0b60 FC180000 		.4byte	.LFE14-.Ltext0
 5460 0b64 0200     		.2byte	0x2
 5461 0b66 72       		.byte	0x72
 5462 0b67 7F       		.sleb128 -1
 5463 0b68 00000000 		.4byte	0x0
 5464 0b6c 00000000 		.4byte	0x0
 5465              	.LLST75:
 5466 0b70 4C180000 		.4byte	.LVL186-.Ltext0
 5467 0b74 DC180000 		.4byte	.LVL187-.Ltext0
 5468 0b78 0100     		.2byte	0x1
 5469 0b7a 54       		.byte	0x54
 5470 0b7b E4180000 		.4byte	.LVL189-.Ltext0
 5471 0b7f FC180000 		.4byte	.LFE14-.Ltext0
 5472 0b83 0100     		.2byte	0x1
 5473 0b85 54       		.byte	0x54
 5474 0b86 00000000 		.4byte	0x0
 5475 0b8a 00000000 		.4byte	0x0
 5476              	.LLST76:
 5477 0b8e FC180000 		.4byte	.LFB13-.Ltext0
 5478 0b92 00190000 		.4byte	.LCFI23-.Ltext0
 5479 0b96 0100     		.2byte	0x1
 5480 0b98 5D       		.byte	0x5d
ARM GAS  C:\DOCUME~1\TECHCO~1\LOCALS~1\Temp/ccQdbaaa.s 			page 117


 5481 0b99 00190000 		.4byte	.LCFI23-.Ltext0
 5482 0b9d 04190000 		.4byte	.LCFI24-.Ltext0
 5483 0ba1 0200     		.2byte	0x2
 5484 0ba3 7D       		.byte	0x7d
 5485 0ba4 20       		.sleb128 32
 5486 0ba5 04190000 		.4byte	.LCFI24-.Ltext0
 5487 0ba9 60190000 		.4byte	.LFE13-.Ltext0
 5488 0bad 0200     		.2byte	0x2
 5489 0baf 7D       		.byte	0x7d
 5490 0bb0 24       		.sleb128 36
 5491 0bb1 00000000 		.4byte	0x0
 5492 0bb5 00000000 		.4byte	0x0
 5493              	.LLST77:
 5494 0bb9 FC180000 		.4byte	.LVL191-.Ltext0
 5495 0bbd 20190000 		.4byte	.LVL192-.Ltext0
 5496 0bc1 0100     		.2byte	0x1
 5497 0bc3 50       		.byte	0x50
 5498 0bc4 20190000 		.4byte	.LVL192-.Ltext0
 5499 0bc8 60190000 		.4byte	.LFE13-.Ltext0
 5500 0bcc 0100     		.2byte	0x1
 5501 0bce 55       		.byte	0x55
 5502 0bcf 00000000 		.4byte	0x0
 5503 0bd3 00000000 		.4byte	0x0
 5504              	.LLST78:
 5505 0bd7 FC180000 		.4byte	.LVL191-.Ltext0
 5506 0bdb 24190000 		.4byte	.LVL193-.Ltext0
 5507 0bdf 0100     		.2byte	0x1
 5508 0be1 51       		.byte	0x51
 5509 0be2 24190000 		.4byte	.LVL193-.Ltext0
 5510 0be6 60190000 		.4byte	.LFE13-.Ltext0
 5511 0bea 0100     		.2byte	0x1
 5512 0bec 59       		.byte	0x59
 5513 0bed 00000000 		.4byte	0x0
 5514 0bf1 00000000 		.4byte	0x0
 5515              	.LLST79:
 5516 0bf5 FC180000 		.4byte	.LVL191-.Ltext0
 5517 0bf9 24190000 		.4byte	.LVL193-.Ltext0
 5518 0bfd 0100     		.2byte	0x1
 5519 0bff 52       		.byte	0x52
 5520 0c00 24190000 		.4byte	.LVL193-.Ltext0
 5521 0c04 60190000 		.4byte	.LFE13-.Ltext0
 5522 0c08 0100     		.2byte	0x1
 5523 0c0a 5A       		.byte	0x5a
 5524 0c0b 00000000 		.4byte	0x0
 5525 0c0f 00000000 		.4byte	0x0
 5526              	.LLST80:
 5527 0c13 FC180000 		.4byte	.LVL191-.Ltext0
 5528 0c17 24190000 		.4byte	.LVL193-.Ltext0
 5529 0c1b 0100     		.2byte	0x1
 5530 0c1d 53       		.byte	0x53
 5531 0c1e 24190000 		.4byte	.LVL193-.Ltext0
 5532 0c22 60190000 		.4byte	.LFE13-.Ltext0
 5533 0c26 0100     		.2byte	0x1
 5534 0c28 58       		.byte	0x58
 5535 0c29 00000000 		.4byte	0x0
 5536 0c2d 00000000 		.4byte	0x0
 5537              	.LLST81:
ARM GAS  C:\DOCUME~1\TECHCO~1\LOCALS~1\Temp/ccQdbaaa.s 			page 118


 5538 0c31 FC180000 		.4byte	.LVL191-.Ltext0
 5539 0c35 24190000 		.4byte	.LVL193-.Ltext0
 5540 0c39 0200     		.2byte	0x2
 5541 0c3b 91       		.byte	0x91
 5542 0c3c 00       		.sleb128 0
 5543 0c3d 24190000 		.4byte	.LVL193-.Ltext0
 5544 0c41 60190000 		.4byte	.LFE13-.Ltext0
 5545 0c45 0100     		.2byte	0x1
 5546 0c47 57       		.byte	0x57
 5547 0c48 00000000 		.4byte	0x0
 5548 0c4c 00000000 		.4byte	0x0
 5549              	.LLST82:
 5550 0c50 FC180000 		.4byte	.LVL191-.Ltext0
 5551 0c54 24190000 		.4byte	.LVL193-.Ltext0
 5552 0c58 0200     		.2byte	0x2
 5553 0c5a 91       		.byte	0x91
 5554 0c5b 04       		.sleb128 4
 5555 0c5c 24190000 		.4byte	.LVL193-.Ltext0
 5556 0c60 60190000 		.4byte	.LFE13-.Ltext0
 5557 0c64 0100     		.2byte	0x1
 5558 0c66 56       		.byte	0x56
 5559 0c67 00000000 		.4byte	0x0
 5560 0c6b 00000000 		.4byte	0x0
 5561              	.LLST83:
 5562 0c6f 20190000 		.4byte	.LVL192-.Ltext0
 5563 0c73 30190000 		.4byte	.LVL195-.Ltext0
 5564 0c77 0100     		.2byte	0x1
 5565 0c79 50       		.byte	0x50
 5566 0c7a 40190000 		.4byte	.LVL196-.Ltext0
 5567 0c7e 58190000 		.4byte	.LVL198-.Ltext0
 5568 0c82 0100     		.2byte	0x1
 5569 0c84 50       		.byte	0x50
 5570 0c85 00000000 		.4byte	0x0
 5571 0c89 00000000 		.4byte	0x0
 5572              	.LLST84:
 5573 0c8d 60190000 		.4byte	.LFB12-.Ltext0
 5574 0c91 64190000 		.4byte	.LCFI25-.Ltext0
 5575 0c95 0100     		.2byte	0x1
 5576 0c97 5D       		.byte	0x5d
 5577 0c98 64190000 		.4byte	.LCFI25-.Ltext0
 5578 0c9c 68190000 		.4byte	.LCFI26-.Ltext0
 5579 0ca0 0200     		.2byte	0x2
 5580 0ca2 7D       		.byte	0x7d
 5581 0ca3 18       		.sleb128 24
 5582 0ca4 68190000 		.4byte	.LCFI26-.Ltext0
 5583 0ca8 441A0000 		.4byte	.LFE12-.Ltext0
 5584 0cac 0200     		.2byte	0x2
 5585 0cae 7D       		.byte	0x7d
 5586 0caf 1C       		.sleb128 28
 5587 0cb0 00000000 		.4byte	0x0
 5588 0cb4 00000000 		.4byte	0x0
 5589              	.LLST85:
 5590 0cb8 60190000 		.4byte	.LVL199-.Ltext0
 5591 0cbc 84190000 		.4byte	.LVL200-.Ltext0
 5592 0cc0 0100     		.2byte	0x1
 5593 0cc2 50       		.byte	0x50
 5594 0cc3 00000000 		.4byte	0x0
ARM GAS  C:\DOCUME~1\TECHCO~1\LOCALS~1\Temp/ccQdbaaa.s 			page 119


 5595 0cc7 00000000 		.4byte	0x0
 5596              	.LLST86:
 5597 0ccb 60190000 		.4byte	.LVL199-.Ltext0
 5598 0ccf 88190000 		.4byte	.LVL201-.Ltext0
 5599 0cd3 0100     		.2byte	0x1
 5600 0cd5 51       		.byte	0x51
 5601 0cd6 00000000 		.4byte	0x0
 5602 0cda 00000000 		.4byte	0x0
 5603              	.LLST87:
 5604 0cde 60190000 		.4byte	.LVL199-.Ltext0
 5605 0ce2 8C190000 		.4byte	.LVL202-.Ltext0
 5606 0ce6 0100     		.2byte	0x1
 5607 0ce8 52       		.byte	0x52
 5608 0ce9 8C190000 		.4byte	.LVL202-.Ltext0
 5609 0ced 441A0000 		.4byte	.LFE12-.Ltext0
 5610 0cf1 0100     		.2byte	0x1
 5611 0cf3 58       		.byte	0x58
 5612 0cf4 00000000 		.4byte	0x0
 5613 0cf8 00000000 		.4byte	0x0
 5614              	.LLST88:
 5615 0cfc 441A0000 		.4byte	.LFB11-.Ltext0
 5616 0d00 481A0000 		.4byte	.LCFI27-.Ltext0
 5617 0d04 0100     		.2byte	0x1
 5618 0d06 5D       		.byte	0x5d
 5619 0d07 481A0000 		.4byte	.LCFI27-.Ltext0
 5620 0d0b 901A0000 		.4byte	.LFE11-.Ltext0
 5621 0d0f 0200     		.2byte	0x2
 5622 0d11 7D       		.byte	0x7d
 5623 0d12 18       		.sleb128 24
 5624 0d13 00000000 		.4byte	0x0
 5625 0d17 00000000 		.4byte	0x0
 5626              	.LLST89:
 5627 0d1b 441A0000 		.4byte	.LVL204-.Ltext0
 5628 0d1f 5C1A0000 		.4byte	.LVL205-.Ltext0
 5629 0d23 0100     		.2byte	0x1
 5630 0d25 50       		.byte	0x50
 5631 0d26 5C1A0000 		.4byte	.LVL205-.Ltext0
 5632 0d2a 901A0000 		.4byte	.LFE11-.Ltext0
 5633 0d2e 0100     		.2byte	0x1
 5634 0d30 55       		.byte	0x55
 5635 0d31 00000000 		.4byte	0x0
 5636 0d35 00000000 		.4byte	0x0
 5637              	.LLST90:
 5638 0d39 441A0000 		.4byte	.LVL204-.Ltext0
 5639 0d3d 601A0000 		.4byte	.LVL206-.Ltext0
 5640 0d41 0100     		.2byte	0x1
 5641 0d43 51       		.byte	0x51
 5642 0d44 601A0000 		.4byte	.LVL206-.Ltext0
 5643 0d48 901A0000 		.4byte	.LFE11-.Ltext0
 5644 0d4c 0100     		.2byte	0x1
 5645 0d4e 57       		.byte	0x57
 5646 0d4f 00000000 		.4byte	0x0
 5647 0d53 00000000 		.4byte	0x0
 5648              	.LLST91:
 5649 0d57 441A0000 		.4byte	.LVL204-.Ltext0
 5650 0d5b 601A0000 		.4byte	.LVL206-.Ltext0
 5651 0d5f 0100     		.2byte	0x1
ARM GAS  C:\DOCUME~1\TECHCO~1\LOCALS~1\Temp/ccQdbaaa.s 			page 120


 5652 0d61 52       		.byte	0x52
 5653 0d62 601A0000 		.4byte	.LVL206-.Ltext0
 5654 0d66 901A0000 		.4byte	.LFE11-.Ltext0
 5655 0d6a 0100     		.2byte	0x1
 5656 0d6c 56       		.byte	0x56
 5657 0d6d 00000000 		.4byte	0x0
 5658 0d71 00000000 		.4byte	0x0
 5659              	.LLST92:
 5660 0d75 441A0000 		.4byte	.LVL204-.Ltext0
 5661 0d79 601A0000 		.4byte	.LVL206-.Ltext0
 5662 0d7d 0100     		.2byte	0x1
 5663 0d7f 53       		.byte	0x53
 5664 0d80 601A0000 		.4byte	.LVL206-.Ltext0
 5665 0d84 901A0000 		.4byte	.LFE11-.Ltext0
 5666 0d88 0100     		.2byte	0x1
 5667 0d8a 58       		.byte	0x58
 5668 0d8b 00000000 		.4byte	0x0
 5669 0d8f 00000000 		.4byte	0x0
 5670              	.LLST93:
 5671 0d93 5C1A0000 		.4byte	.LVL205-.Ltext0
 5672 0d97 681A0000 		.4byte	.LVL208-.Ltext0
 5673 0d9b 0100     		.2byte	0x1
 5674 0d9d 50       		.byte	0x50
 5675 0d9e 741A0000 		.4byte	.LVL209-.Ltext0
 5676 0da2 8C1A0000 		.4byte	.LVL210-.Ltext0
 5677 0da6 0100     		.2byte	0x1
 5678 0da8 50       		.byte	0x50
 5679 0da9 00000000 		.4byte	0x0
 5680 0dad 00000000 		.4byte	0x0
 5681              	.LLST94:
 5682 0db1 901A0000 		.4byte	.LFB16-.Ltext0
 5683 0db5 941A0000 		.4byte	.LCFI28-.Ltext0
 5684 0db9 0100     		.2byte	0x1
 5685 0dbb 5D       		.byte	0x5d
 5686 0dbc 941A0000 		.4byte	.LCFI28-.Ltext0
 5687 0dc0 981A0000 		.4byte	.LCFI29-.Ltext0
 5688 0dc4 0200     		.2byte	0x2
 5689 0dc6 7D       		.byte	0x7d
 5690 0dc7 0C       		.sleb128 12
 5691 0dc8 981A0000 		.4byte	.LCFI29-.Ltext0
 5692 0dcc 001B0000 		.4byte	.LFE16-.Ltext0
 5693 0dd0 0200     		.2byte	0x2
 5694 0dd2 7D       		.byte	0x7d
 5695 0dd3 14       		.sleb128 20
 5696 0dd4 00000000 		.4byte	0x0
 5697 0dd8 00000000 		.4byte	0x0
 5698              	.LLST95:
 5699 0ddc 901A0000 		.4byte	.LVL211-.Ltext0
 5700 0de0 AC1A0000 		.4byte	.LVL212-.Ltext0
 5701 0de4 0100     		.2byte	0x1
 5702 0de6 50       		.byte	0x50
 5703 0de7 AC1A0000 		.4byte	.LVL212-.Ltext0
 5704 0deb 001B0000 		.4byte	.LFE16-.Ltext0
 5705 0def 0100     		.2byte	0x1
 5706 0df1 55       		.byte	0x55
 5707 0df2 00000000 		.4byte	0x0
 5708 0df6 00000000 		.4byte	0x0
ARM GAS  C:\DOCUME~1\TECHCO~1\LOCALS~1\Temp/ccQdbaaa.s 			page 121


 5709              	.LLST96:
 5710 0dfa 901A0000 		.4byte	.LVL211-.Ltext0
 5711 0dfe C41A0000 		.4byte	.LVL214-.Ltext0
 5712 0e02 0100     		.2byte	0x1
 5713 0e04 51       		.byte	0x51
 5714 0e05 F81A0000 		.4byte	.LVL216-.Ltext0
 5715 0e09 001B0000 		.4byte	.LFE16-.Ltext0
 5716 0e0d 0100     		.2byte	0x1
 5717 0e0f 51       		.byte	0x51
 5718 0e10 00000000 		.4byte	0x0
 5719 0e14 00000000 		.4byte	0x0
 5720              	.LLST97:
 5721 0e18 901A0000 		.4byte	.LVL211-.Ltext0
 5722 0e1c BC1A0000 		.4byte	.LVL213-.Ltext0
 5723 0e20 0100     		.2byte	0x1
 5724 0e22 52       		.byte	0x52
 5725 0e23 F81A0000 		.4byte	.LVL216-.Ltext0
 5726 0e27 001B0000 		.4byte	.LFE16-.Ltext0
 5727 0e2b 0100     		.2byte	0x1
 5728 0e2d 52       		.byte	0x52
 5729 0e2e 00000000 		.4byte	0x0
 5730 0e32 00000000 		.4byte	0x0
 5731              	.LLST98:
 5732 0e36 001B0000 		.4byte	.LFB7-.Ltext0
 5733 0e3a 041B0000 		.4byte	.LCFI30-.Ltext0
 5734 0e3e 0100     		.2byte	0x1
 5735 0e40 5D       		.byte	0x5d
 5736 0e41 041B0000 		.4byte	.LCFI30-.Ltext0
 5737 0e45 081B0000 		.4byte	.LCFI31-.Ltext0
 5738 0e49 0200     		.2byte	0x2
 5739 0e4b 7D       		.byte	0x7d
 5740 0e4c 1C       		.sleb128 28
 5741 0e4d 081B0000 		.4byte	.LCFI31-.Ltext0
 5742 0e51 081C0000 		.4byte	.LFE7-.Ltext0
 5743 0e55 0200     		.2byte	0x2
 5744 0e57 7D       		.byte	0x7d
 5745 0e58 20       		.sleb128 32
 5746 0e59 00000000 		.4byte	0x0
 5747 0e5d 00000000 		.4byte	0x0
 5748              	.LLST99:
 5749 0e61 001B0000 		.4byte	.LVL217-.Ltext0
 5750 0e65 281B0000 		.4byte	.LVL218-.Ltext0
 5751 0e69 0100     		.2byte	0x1
 5752 0e6b 50       		.byte	0x50
 5753 0e6c 00000000 		.4byte	0x0
 5754 0e70 00000000 		.4byte	0x0
 5755              	.LLST100:
 5756 0e74 001B0000 		.4byte	.LVL217-.Ltext0
 5757 0e78 2C1B0000 		.4byte	.LVL219-.Ltext0
 5758 0e7c 0100     		.2byte	0x1
 5759 0e7e 51       		.byte	0x51
 5760 0e7f 00000000 		.4byte	0x0
 5761 0e83 00000000 		.4byte	0x0
 5762              	.LLST101:
 5763 0e87 001B0000 		.4byte	.LVL217-.Ltext0
 5764 0e8b 301B0000 		.4byte	.LVL220-.Ltext0
 5765 0e8f 0100     		.2byte	0x1
ARM GAS  C:\DOCUME~1\TECHCO~1\LOCALS~1\Temp/ccQdbaaa.s 			page 122


 5766 0e91 52       		.byte	0x52
 5767 0e92 301B0000 		.4byte	.LVL220-.Ltext0
 5768 0e96 081C0000 		.4byte	.LFE7-.Ltext0
 5769 0e9a 0100     		.2byte	0x1
 5770 0e9c 58       		.byte	0x58
 5771 0e9d 00000000 		.4byte	0x0
 5772 0ea1 00000000 		.4byte	0x0
 5773              	.LLST102:
 5774 0ea5 001B0000 		.4byte	.LVL217-.Ltext0
 5775 0ea9 341B0000 		.4byte	.LVL221-.Ltext0
 5776 0ead 0100     		.2byte	0x1
 5777 0eaf 53       		.byte	0x53
 5778 0eb0 341B0000 		.4byte	.LVL221-.Ltext0
 5779 0eb4 081C0000 		.4byte	.LFE7-.Ltext0
 5780 0eb8 0100     		.2byte	0x1
 5781 0eba 5A       		.byte	0x5a
 5782 0ebb 00000000 		.4byte	0x0
 5783 0ebf 00000000 		.4byte	0x0
 5784              	.LLST103:
 5785 0ec3 B81B0000 		.4byte	.LVL223-.Ltext0
 5786 0ec7 C41B0000 		.4byte	.LVL224-.Ltext0
 5787 0ecb 0100     		.2byte	0x1
 5788 0ecd 50       		.byte	0x50
 5789 0ece E41B0000 		.4byte	.LVL225-.Ltext0
 5790 0ed2 E81B0000 		.4byte	.LVL226-.Ltext0
 5791 0ed6 0100     		.2byte	0x1
 5792 0ed8 50       		.byte	0x50
 5793 0ed9 00000000 		.4byte	0x0
 5794 0edd 00000000 		.4byte	0x0
 5795              	.LLST104:
 5796 0ee1 081C0000 		.4byte	.LFB5-.Ltext0
 5797 0ee5 0C1C0000 		.4byte	.LCFI32-.Ltext0
 5798 0ee9 0100     		.2byte	0x1
 5799 0eeb 5D       		.byte	0x5d
 5800 0eec 0C1C0000 		.4byte	.LCFI32-.Ltext0
 5801 0ef0 5C1C0000 		.4byte	.LFE5-.Ltext0
 5802 0ef4 0200     		.2byte	0x2
 5803 0ef6 7D       		.byte	0x7d
 5804 0ef7 1C       		.sleb128 28
 5805 0ef8 00000000 		.4byte	0x0
 5806 0efc 00000000 		.4byte	0x0
 5807              	.LLST105:
 5808 0f00 081C0000 		.4byte	.LVL227-.Ltext0
 5809 0f04 241C0000 		.4byte	.LVL228-.Ltext0
 5810 0f08 0100     		.2byte	0x1
 5811 0f0a 50       		.byte	0x50
 5812 0f0b 241C0000 		.4byte	.LVL228-.Ltext0
 5813 0f0f 5C1C0000 		.4byte	.LFE5-.Ltext0
 5814 0f13 0100     		.2byte	0x1
 5815 0f15 55       		.byte	0x55
 5816 0f16 00000000 		.4byte	0x0
 5817 0f1a 00000000 		.4byte	0x0
 5818              	.LLST106:
 5819 0f1e 081C0000 		.4byte	.LVL227-.Ltext0
 5820 0f22 281C0000 		.4byte	.LVL229-.Ltext0
 5821 0f26 0100     		.2byte	0x1
 5822 0f28 51       		.byte	0x51
ARM GAS  C:\DOCUME~1\TECHCO~1\LOCALS~1\Temp/ccQdbaaa.s 			page 123


 5823 0f29 281C0000 		.4byte	.LVL229-.Ltext0
 5824 0f2d 5C1C0000 		.4byte	.LFE5-.Ltext0
 5825 0f31 0100     		.2byte	0x1
 5826 0f33 57       		.byte	0x57
 5827 0f34 00000000 		.4byte	0x0
 5828 0f38 00000000 		.4byte	0x0
 5829              	.LLST107:
 5830 0f3c 081C0000 		.4byte	.LVL227-.Ltext0
 5831 0f40 281C0000 		.4byte	.LVL229-.Ltext0
 5832 0f44 0100     		.2byte	0x1
 5833 0f46 52       		.byte	0x52
 5834 0f47 281C0000 		.4byte	.LVL229-.Ltext0
 5835 0f4b 5C1C0000 		.4byte	.LFE5-.Ltext0
 5836 0f4f 0100     		.2byte	0x1
 5837 0f51 56       		.byte	0x56
 5838 0f52 00000000 		.4byte	0x0
 5839 0f56 00000000 		.4byte	0x0
 5840              	.LLST108:
 5841 0f5a 081C0000 		.4byte	.LVL227-.Ltext0
 5842 0f5e 281C0000 		.4byte	.LVL229-.Ltext0
 5843 0f62 0100     		.2byte	0x1
 5844 0f64 53       		.byte	0x53
 5845 0f65 281C0000 		.4byte	.LVL229-.Ltext0
 5846 0f69 5C1C0000 		.4byte	.LFE5-.Ltext0
 5847 0f6d 0100     		.2byte	0x1
 5848 0f6f 58       		.byte	0x58
 5849 0f70 00000000 		.4byte	0x0
 5850 0f74 00000000 		.4byte	0x0
 5851              	.LLST109:
 5852 0f78 081C0000 		.4byte	.LVL227-.Ltext0
 5853 0f7c 281C0000 		.4byte	.LVL229-.Ltext0
 5854 0f80 0200     		.2byte	0x2
 5855 0f82 91       		.byte	0x91
 5856 0f83 00       		.sleb128 0
 5857 0f84 281C0000 		.4byte	.LVL229-.Ltext0
 5858 0f88 5C1C0000 		.4byte	.LFE5-.Ltext0
 5859 0f8c 0100     		.2byte	0x1
 5860 0f8e 5A       		.byte	0x5a
 5861 0f8f 00000000 		.4byte	0x0
 5862 0f93 00000000 		.4byte	0x0
 5863              	.LLST110:
 5864 0f97 241C0000 		.4byte	.LVL228-.Ltext0
 5865 0f9b 301C0000 		.4byte	.LVL231-.Ltext0
 5866 0f9f 0100     		.2byte	0x1
 5867 0fa1 50       		.byte	0x50
 5868 0fa2 401C0000 		.4byte	.LVL232-.Ltext0
 5869 0fa6 581C0000 		.4byte	.LVL233-.Ltext0
 5870 0faa 0100     		.2byte	0x1
 5871 0fac 50       		.byte	0x50
 5872 0fad 00000000 		.4byte	0x0
 5873 0fb1 00000000 		.4byte	0x0
 5874              	.LLST111:
 5875 0fb5 5C1C0000 		.4byte	.LFB10-.Ltext0
 5876 0fb9 601C0000 		.4byte	.LCFI33-.Ltext0
 5877 0fbd 0100     		.2byte	0x1
 5878 0fbf 5D       		.byte	0x5d
 5879 0fc0 601C0000 		.4byte	.LCFI33-.Ltext0
ARM GAS  C:\DOCUME~1\TECHCO~1\LOCALS~1\Temp/ccQdbaaa.s 			page 124


 5880 0fc4 641C0000 		.4byte	.LCFI34-.Ltext0
 5881 0fc8 0200     		.2byte	0x2
 5882 0fca 7D       		.byte	0x7d
 5883 0fcb 0C       		.sleb128 12
 5884 0fcc 641C0000 		.4byte	.LCFI34-.Ltext0
 5885 0fd0 0C1D0000 		.4byte	.LFE10-.Ltext0
 5886 0fd4 0200     		.2byte	0x2
 5887 0fd6 7D       		.byte	0x7d
 5888 0fd7 14       		.sleb128 20
 5889 0fd8 00000000 		.4byte	0x0
 5890 0fdc 00000000 		.4byte	0x0
 5891              	.LLST112:
 5892 0fe0 5C1C0000 		.4byte	.LVL234-.Ltext0
 5893 0fe4 781C0000 		.4byte	.LVL236-.Ltext0
 5894 0fe8 0100     		.2byte	0x1
 5895 0fea 50       		.byte	0x50
 5896 0feb 781C0000 		.4byte	.LVL236-.Ltext0
 5897 0fef 841C0000 		.4byte	.LVL237-.Ltext0
 5898 0ff3 0100     		.2byte	0x1
 5899 0ff5 51       		.byte	0x51
 5900 0ff6 00000000 		.4byte	0x0
 5901 0ffa 00000000 		.4byte	0x0
 5902              	.LLST113:
 5903 0ffe 0C1D0000 		.4byte	.LFB9-.Ltext0
 5904 1002 101D0000 		.4byte	.LCFI35-.Ltext0
 5905 1006 0100     		.2byte	0x1
 5906 1008 5D       		.byte	0x5d
 5907 1009 101D0000 		.4byte	.LCFI35-.Ltext0
 5908 100d 481D0000 		.4byte	.LFE9-.Ltext0
 5909 1011 0200     		.2byte	0x2
 5910 1013 7D       		.byte	0x7d
 5911 1014 10       		.sleb128 16
 5912 1015 00000000 		.4byte	0x0
 5913 1019 00000000 		.4byte	0x0
 5914              	.LLST114:
 5915 101d 0C1D0000 		.4byte	.LVL239-.Ltext0
 5916 1021 1C1D0000 		.4byte	.LVL240-.Ltext0
 5917 1025 0100     		.2byte	0x1
 5918 1027 50       		.byte	0x50
 5919 1028 1C1D0000 		.4byte	.LVL240-.Ltext0
 5920 102c 481D0000 		.4byte	.LFE9-.Ltext0
 5921 1030 0100     		.2byte	0x1
 5922 1032 55       		.byte	0x55
 5923 1033 00000000 		.4byte	0x0
 5924 1037 00000000 		.4byte	0x0
 5925              	.LLST115:
 5926 103b 0C1D0000 		.4byte	.LVL239-.Ltext0
 5927 103f 201D0000 		.4byte	.LVL241-.Ltext0
 5928 1043 0100     		.2byte	0x1
 5929 1045 51       		.byte	0x51
 5930 1046 201D0000 		.4byte	.LVL241-.Ltext0
 5931 104a 481D0000 		.4byte	.LFE9-.Ltext0
 5932 104e 0100     		.2byte	0x1
 5933 1050 56       		.byte	0x56
 5934 1051 00000000 		.4byte	0x0
 5935 1055 00000000 		.4byte	0x0
 5936              	.LLST116:
ARM GAS  C:\DOCUME~1\TECHCO~1\LOCALS~1\Temp/ccQdbaaa.s 			page 125


 5937 1059 1C1D0000 		.4byte	.LVL240-.Ltext0
 5938 105d 281D0000 		.4byte	.LVL243-.Ltext0
 5939 1061 0100     		.2byte	0x1
 5940 1063 50       		.byte	0x50
 5941 1064 2C1D0000 		.4byte	.LVL244-.Ltext0
 5942 1068 441D0000 		.4byte	.LVL245-.Ltext0
 5943 106c 0100     		.2byte	0x1
 5944 106e 50       		.byte	0x50
 5945 106f 00000000 		.4byte	0x0
 5946 1073 00000000 		.4byte	0x0
 5947              	.LLST117:
 5948 1077 481D0000 		.4byte	.LFB4-.Ltext0
 5949 107b 4C1D0000 		.4byte	.LCFI36-.Ltext0
 5950 107f 0100     		.2byte	0x1
 5951 1081 5D       		.byte	0x5d
 5952 1082 4C1D0000 		.4byte	.LCFI36-.Ltext0
 5953 1086 501D0000 		.4byte	.LCFI37-.Ltext0
 5954 108a 0200     		.2byte	0x2
 5955 108c 7D       		.byte	0x7d
 5956 108d 14       		.sleb128 20
 5957 108e 501D0000 		.4byte	.LCFI37-.Ltext0
 5958 1092 441E0000 		.4byte	.LFE4-.Ltext0
 5959 1096 0200     		.2byte	0x2
 5960 1098 7D       		.byte	0x7d
 5961 1099 18       		.sleb128 24
 5962 109a 00000000 		.4byte	0x0
 5963 109e 00000000 		.4byte	0x0
 5964              	.LLST118:
 5965 10a2 481D0000 		.4byte	.LVL246-.Ltext0
 5966 10a6 641D0000 		.4byte	.LVL247-.Ltext0
 5967 10aa 0100     		.2byte	0x1
 5968 10ac 50       		.byte	0x50
 5969 10ad 641D0000 		.4byte	.LVL247-.Ltext0
 5970 10b1 441E0000 		.4byte	.LFE4-.Ltext0
 5971 10b5 0100     		.2byte	0x1
 5972 10b7 56       		.byte	0x56
 5973 10b8 00000000 		.4byte	0x0
 5974 10bc 00000000 		.4byte	0x0
 5975              	.LLST119:
 5976 10c0 481D0000 		.4byte	.LVL246-.Ltext0
 5977 10c4 681D0000 		.4byte	.LVL248-.Ltext0
 5978 10c8 0100     		.2byte	0x1
 5979 10ca 51       		.byte	0x51
 5980 10cb 681D0000 		.4byte	.LVL248-.Ltext0
 5981 10cf 441E0000 		.4byte	.LFE4-.Ltext0
 5982 10d3 0100     		.2byte	0x1
 5983 10d5 57       		.byte	0x57
 5984 10d6 00000000 		.4byte	0x0
 5985 10da 00000000 		.4byte	0x0
 5986              	.LLST120:
 5987 10de EC1D0000 		.4byte	.LVL250-.Ltext0
 5988 10e2 F81D0000 		.4byte	.LVL251-.Ltext0
 5989 10e6 0100     		.2byte	0x1
 5990 10e8 50       		.byte	0x50
 5991 10e9 281E0000 		.4byte	.LVL252-.Ltext0
 5992 10ed 2C1E0000 		.4byte	.LVL253-.Ltext0
 5993 10f1 0100     		.2byte	0x1
ARM GAS  C:\DOCUME~1\TECHCO~1\LOCALS~1\Temp/ccQdbaaa.s 			page 126


 5994 10f3 50       		.byte	0x50
 5995 10f4 00000000 		.4byte	0x0
 5996 10f8 00000000 		.4byte	0x0
 5997              	.LLST121:
 5998 10fc 441E0000 		.4byte	.LFB3-.Ltext0
 5999 1100 481E0000 		.4byte	.LCFI38-.Ltext0
 6000 1104 0100     		.2byte	0x1
 6001 1106 5D       		.byte	0x5d
 6002 1107 481E0000 		.4byte	.LCFI38-.Ltext0
 6003 110b 881E0000 		.4byte	.LFE3-.Ltext0
 6004 110f 0200     		.2byte	0x2
 6005 1111 7D       		.byte	0x7d
 6006 1112 14       		.sleb128 20
 6007 1113 00000000 		.4byte	0x0
 6008 1117 00000000 		.4byte	0x0
 6009              	.LLST122:
 6010 111b 441E0000 		.4byte	.LVL254-.Ltext0
 6011 111f 581E0000 		.4byte	.LVL255-.Ltext0
 6012 1123 0100     		.2byte	0x1
 6013 1125 50       		.byte	0x50
 6014 1126 581E0000 		.4byte	.LVL255-.Ltext0
 6015 112a 881E0000 		.4byte	.LFE3-.Ltext0
 6016 112e 0100     		.2byte	0x1
 6017 1130 55       		.byte	0x55
 6018 1131 00000000 		.4byte	0x0
 6019 1135 00000000 		.4byte	0x0
 6020              	.LLST123:
 6021 1139 441E0000 		.4byte	.LVL254-.Ltext0
 6022 113d 5C1E0000 		.4byte	.LVL256-.Ltext0
 6023 1141 0100     		.2byte	0x1
 6024 1143 51       		.byte	0x51
 6025 1144 5C1E0000 		.4byte	.LVL256-.Ltext0
 6026 1148 881E0000 		.4byte	.LFE3-.Ltext0
 6027 114c 0100     		.2byte	0x1
 6028 114e 57       		.byte	0x57
 6029 114f 00000000 		.4byte	0x0
 6030 1153 00000000 		.4byte	0x0
 6031              	.LLST124:
 6032 1157 441E0000 		.4byte	.LVL254-.Ltext0
 6033 115b 5C1E0000 		.4byte	.LVL256-.Ltext0
 6034 115f 0100     		.2byte	0x1
 6035 1161 52       		.byte	0x52
 6036 1162 5C1E0000 		.4byte	.LVL256-.Ltext0
 6037 1166 881E0000 		.4byte	.LFE3-.Ltext0
 6038 116a 0100     		.2byte	0x1
 6039 116c 56       		.byte	0x56
 6040 116d 00000000 		.4byte	0x0
 6041 1171 00000000 		.4byte	0x0
 6042              	.LLST125:
 6043 1175 581E0000 		.4byte	.LVL255-.Ltext0
 6044 1179 641E0000 		.4byte	.LVL258-.Ltext0
 6045 117d 0100     		.2byte	0x1
 6046 117f 50       		.byte	0x50
 6047 1180 6C1E0000 		.4byte	.LVL259-.Ltext0
 6048 1184 841E0000 		.4byte	.LVL260-.Ltext0
 6049 1188 0100     		.2byte	0x1
 6050 118a 50       		.byte	0x50
ARM GAS  C:\DOCUME~1\TECHCO~1\LOCALS~1\Temp/ccQdbaaa.s 			page 127


 6051 118b 00000000 		.4byte	0x0
 6052 118f 00000000 		.4byte	0x0
 6053              	.LLST126:
 6054 1193 881E0000 		.4byte	.LFB2-.Ltext0
 6055 1197 8C1E0000 		.4byte	.LCFI39-.Ltext0
 6056 119b 0100     		.2byte	0x1
 6057 119d 5D       		.byte	0x5d
 6058 119e 8C1E0000 		.4byte	.LCFI39-.Ltext0
 6059 11a2 901E0000 		.4byte	.LCFI40-.Ltext0
 6060 11a6 0200     		.2byte	0x2
 6061 11a8 7D       		.byte	0x7d
 6062 11a9 24       		.sleb128 36
 6063 11aa 901E0000 		.4byte	.LCFI40-.Ltext0
 6064 11ae F0220000 		.4byte	.LFE2-.Ltext0
 6065 11b2 0300     		.2byte	0x3
 6066 11b4 7D       		.byte	0x7d
 6067 11b5 C800     		.sleb128 72
 6068 11b7 00000000 		.4byte	0x0
 6069 11bb 00000000 		.4byte	0x0
 6070              	.LLST127:
 6071 11bf 881E0000 		.4byte	.LVL261-.Ltext0
 6072 11c3 B81E0000 		.4byte	.LVL262-.Ltext0
 6073 11c7 0100     		.2byte	0x1
 6074 11c9 50       		.byte	0x50
 6075 11ca B81E0000 		.4byte	.LVL262-.Ltext0
 6076 11ce F0220000 		.4byte	.LFE2-.Ltext0
 6077 11d2 0100     		.2byte	0x1
 6078 11d4 57       		.byte	0x57
 6079 11d5 00000000 		.4byte	0x0
 6080 11d9 00000000 		.4byte	0x0
 6081              	.LLST128:
 6082 11dd C81E0000 		.4byte	.LVL265-.Ltext0
 6083 11e1 C81E0000 		.4byte	.LVL265-.Ltext0
 6084 11e5 0100     		.2byte	0x1
 6085 11e7 54       		.byte	0x54
 6086 11e8 C81E0000 		.4byte	.LVL265-.Ltext0
 6087 11ec C81E0000 		.4byte	.LVL265-.Ltext0
 6088 11f0 0200     		.2byte	0x2
 6089 11f2 91       		.byte	0x91
 6090 11f3 70       		.sleb128 -16
 6091 11f4 C81E0000 		.4byte	.LVL265-.Ltext0
 6092 11f8 541F0000 		.4byte	.LVL268-.Ltext0
 6093 11fc 0100     		.2byte	0x1
 6094 11fe 54       		.byte	0x54
 6095 11ff 841F0000 		.4byte	.LVL269-.Ltext0
 6096 1203 C41F0000 		.4byte	.LVL270-.Ltext0
 6097 1207 0100     		.2byte	0x1
 6098 1209 54       		.byte	0x54
 6099 120a C41F0000 		.4byte	.LVL270-.Ltext0
 6100 120e 44200000 		.4byte	.LVL271-.Ltext0
 6101 1212 0100     		.2byte	0x1
 6102 1214 54       		.byte	0x54
 6103 1215 44200000 		.4byte	.LVL271-.Ltext0
 6104 1219 4C200000 		.4byte	.LVL272-.Ltext0
 6105 121d 0100     		.2byte	0x1
 6106 121f 50       		.byte	0x50
 6107 1220 8C200000 		.4byte	.LVL273-.Ltext0
ARM GAS  C:\DOCUME~1\TECHCO~1\LOCALS~1\Temp/ccQdbaaa.s 			page 128


 6108 1224 9C200000 		.4byte	.LVL274-.Ltext0
 6109 1228 0100     		.2byte	0x1
 6110 122a 50       		.byte	0x50
 6111 122b 3C210000 		.4byte	.LVL276-.Ltext0
 6112 122f 44210000 		.4byte	.LVL277-.Ltext0
 6113 1233 0100     		.2byte	0x1
 6114 1235 50       		.byte	0x50
 6115 1236 60210000 		.4byte	.LVL278-.Ltext0
 6116 123a 70210000 		.4byte	.LVL279-.Ltext0
 6117 123e 0100     		.2byte	0x1
 6118 1240 50       		.byte	0x50
 6119 1241 B0210000 		.4byte	.LVL280-.Ltext0
 6120 1245 F0210000 		.4byte	.LVL281-.Ltext0
 6121 1249 0100     		.2byte	0x1
 6122 124b 54       		.byte	0x54
 6123 124c F8210000 		.4byte	.LVL282-.Ltext0
 6124 1250 00220000 		.4byte	.LVL284-.Ltext0
 6125 1254 0100     		.2byte	0x1
 6126 1256 54       		.byte	0x54
 6127 1257 14220000 		.4byte	.LVL285-.Ltext0
 6128 125b 14220000 		.4byte	.LVL285-.Ltext0
 6129 125f 0100     		.2byte	0x1
 6130 1261 54       		.byte	0x54
 6131 1262 28220000 		.4byte	.LVL286-.Ltext0
 6132 1266 2C220000 		.4byte	.LVL287-.Ltext0
 6133 126a 0100     		.2byte	0x1
 6134 126c 50       		.byte	0x50
 6135 126d 7C220000 		.4byte	.LVL289-.Ltext0
 6136 1271 80220000 		.4byte	.LVL290-.Ltext0
 6137 1275 0100     		.2byte	0x1
 6138 1277 50       		.byte	0x50
 6139 1278 8C220000 		.4byte	.LVL291-.Ltext0
 6140 127c 90220000 		.4byte	.LVL292-.Ltext0
 6141 1280 0100     		.2byte	0x1
 6142 1282 50       		.byte	0x50
 6143 1283 9C220000 		.4byte	.LVL293-.Ltext0
 6144 1287 F0220000 		.4byte	.LFE2-.Ltext0
 6145 128b 0100     		.2byte	0x1
 6146 128d 54       		.byte	0x54
 6147 128e 00000000 		.4byte	0x0
 6148 1292 00000000 		.4byte	0x0
 6149              	.LLST129:
 6150 1296 DC1E0000 		.4byte	.LVL266-.Ltext0
 6151 129a EC1E0000 		.4byte	.LVL267-.Ltext0
 6152 129e 0100     		.2byte	0x1
 6153 12a0 50       		.byte	0x50
 6154 12a1 F8210000 		.4byte	.LVL282-.Ltext0
 6155 12a5 FC210000 		.4byte	.LVL283-.Ltext0
 6156 12a9 0100     		.2byte	0x1
 6157 12ab 50       		.byte	0x50
 6158 12ac 00000000 		.4byte	0x0
 6159 12b0 00000000 		.4byte	0x0
 6160              	.LLST130:
 6161 12b4 C81E0000 		.4byte	.LVL265-.Ltext0
 6162 12b8 841F0000 		.4byte	.LVL269-.Ltext0
 6163 12bc 0100     		.2byte	0x1
 6164 12be 54       		.byte	0x54
ARM GAS  C:\DOCUME~1\TECHCO~1\LOCALS~1\Temp/ccQdbaaa.s 			page 129


 6165 12bf B0210000 		.4byte	.LVL280-.Ltext0
 6166 12c3 F0210000 		.4byte	.LVL281-.Ltext0
 6167 12c7 0100     		.2byte	0x1
 6168 12c9 54       		.byte	0x54
 6169 12ca F8210000 		.4byte	.LVL282-.Ltext0
 6170 12ce 00220000 		.4byte	.LVL284-.Ltext0
 6171 12d2 0100     		.2byte	0x1
 6172 12d4 54       		.byte	0x54
 6173 12d5 A0220000 		.4byte	.LVL294-.Ltext0
 6174 12d9 F0220000 		.4byte	.LFE2-.Ltext0
 6175 12dd 0100     		.2byte	0x1
 6176 12df 54       		.byte	0x54
 6177 12e0 00000000 		.4byte	0x0
 6178 12e4 00000000 		.4byte	0x0
 6179              		.section	.debug_info
 6180 0000 7B180000 		.4byte	0x187b
 6181 0004 0200     		.2byte	0x2
 6182 0006 00000000 		.4byte	.Ldebug_abbrev0
 6183 000a 04       		.byte	0x4
 6184 000b 01       		.uleb128 0x1
 6185 000c 00000000 		.4byte	.Ldebug_line0
 6186 0010 F0220000 		.4byte	.Letext0
 6187 0014 00000000 		.4byte	.Ltext0
 6188 0018 BE040000 		.4byte	.LASF237
 6189 001c 01       		.byte	0x1
 6190 001d 7F020000 		.4byte	.LASF238
 6191 0021 F1010000 		.4byte	.LASF239
 6192 0025 02       		.uleb128 0x2
 6193 0026 4A080000 		.4byte	.LASF0
 6194 002a 04       		.byte	0x4
 6195 002b 07       		.byte	0x7
 6196 002c 03       		.uleb128 0x3
 6197 002d 696E7400 		.ascii	"int\000"
 6198 0031 04       		.byte	0x4
 6199 0032 05       		.byte	0x5
 6200 0033 02       		.uleb128 0x2
 6201 0034 D2060000 		.4byte	.LASF1
 6202 0038 04       		.byte	0x4
 6203 0039 05       		.byte	0x5
 6204 003a 02       		.uleb128 0x2
 6205 003b 3A050000 		.4byte	.LASF2
 6206 003f 08       		.byte	0x8
 6207 0040 05       		.byte	0x5
 6208 0041 02       		.uleb128 0x2
 6209 0042 D7000000 		.4byte	.LASF3
 6210 0046 04       		.byte	0x4
 6211 0047 07       		.byte	0x7
 6212 0048 02       		.uleb128 0x2
 6213 0049 4A080000 		.4byte	.LASF0
 6214 004d 04       		.byte	0x4
 6215 004e 07       		.byte	0x7
 6216 004f 02       		.uleb128 0x2
 6217 0050 D2080000 		.4byte	.LASF4
 6218 0054 01       		.byte	0x1
 6219 0055 08       		.byte	0x8
 6220 0056 04       		.uleb128 0x4
 6221 0057 04       		.byte	0x4
ARM GAS  C:\DOCUME~1\TECHCO~1\LOCALS~1\Temp/ccQdbaaa.s 			page 130


 6222 0058 05       		.uleb128 0x5
 6223 0059 04       		.byte	0x4
 6224 005a 4F000000 		.4byte	0x4f
 6225 005e 02       		.uleb128 0x2
 6226 005f BD060000 		.4byte	.LASF5
 6227 0063 02       		.byte	0x2
 6228 0064 05       		.byte	0x5
 6229 0065 05       		.uleb128 0x5
 6230 0066 04       		.byte	0x4
 6231 0067 6B000000 		.4byte	0x6b
 6232 006b 02       		.uleb128 0x2
 6233 006c 8A000000 		.4byte	.LASF6
 6234 0070 01       		.byte	0x1
 6235 0071 08       		.byte	0x8
 6236 0072 02       		.uleb128 0x2
 6237 0073 CA090000 		.4byte	.LASF7
 6238 0077 02       		.byte	0x2
 6239 0078 07       		.byte	0x7
 6240 0079 02       		.uleb128 0x2
 6241 007a AF020000 		.4byte	.LASF8
 6242 007e 08       		.byte	0x8
 6243 007f 07       		.byte	0x7
 6244 0080 02       		.uleb128 0x2
 6245 0081 BE090000 		.4byte	.LASF9
 6246 0085 01       		.byte	0x1
 6247 0086 06       		.byte	0x6
 6248 0087 06       		.uleb128 0x6
 6249 0088 75303800 		.ascii	"u08\000"
 6250 008c 02       		.byte	0x2
 6251 008d 20       		.byte	0x20
 6252 008e 4F000000 		.4byte	0x4f
 6253 0092 06       		.uleb128 0x6
 6254 0093 75313600 		.ascii	"u16\000"
 6255 0097 02       		.byte	0x2
 6256 0098 22       		.byte	0x22
 6257 0099 72000000 		.4byte	0x72
 6258 009d 06       		.uleb128 0x6
 6259 009e 75333200 		.ascii	"u32\000"
 6260 00a2 02       		.byte	0x2
 6261 00a3 24       		.byte	0x24
 6262 00a4 25000000 		.4byte	0x25
 6263 00a8 07       		.uleb128 0x7
 6264 00a9 DF000000 		.4byte	0xdf
 6265 00ad CB000000 		.4byte	.LASF13
 6266 00b1 0C       		.byte	0xc
 6267 00b2 05       		.byte	0x5
 6268 00b3 06       		.byte	0x6
 6269 00b4 08       		.uleb128 0x8
 6270 00b5 70747200 		.ascii	"ptr\000"
 6271 00b9 05       		.byte	0x5
 6272 00ba 07       		.byte	0x7
 6273 00bb 56000000 		.4byte	0x56
 6274 00bf 02       		.byte	0x2
 6275 00c0 23       		.byte	0x23
 6276 00c1 00       		.uleb128 0x0
 6277 00c2 09       		.uleb128 0x9
 6278 00c3 E4000000 		.4byte	.LASF10
ARM GAS  C:\DOCUME~1\TECHCO~1\LOCALS~1\Temp/ccQdbaaa.s 			page 131


 6279 00c7 05       		.byte	0x5
 6280 00c8 08       		.byte	0x8
 6281 00c9 DF000000 		.4byte	0xdf
 6282 00cd 02       		.byte	0x2
 6283 00ce 23       		.byte	0x23
 6284 00cf 04       		.uleb128 0x4
 6285 00d0 09       		.uleb128 0x9
 6286 00d1 71010000 		.4byte	.LASF11
 6287 00d5 05       		.byte	0x5
 6288 00d6 09       		.byte	0x9
 6289 00d7 DF000000 		.4byte	0xdf
 6290 00db 02       		.byte	0x2
 6291 00dc 23       		.byte	0x23
 6292 00dd 08       		.uleb128 0x8
 6293 00de 00       		.byte	0x0
 6294 00df 05       		.uleb128 0x5
 6295 00e0 04       		.byte	0x4
 6296 00e1 A8000000 		.4byte	0xa8
 6297 00e5 0A       		.uleb128 0xa
 6298 00e6 9E040000 		.4byte	.LASF12
 6299 00ea 05       		.byte	0x5
 6300 00eb 0A       		.byte	0xa
 6301 00ec A8000000 		.4byte	0xa8
 6302 00f0 07       		.uleb128 0x7
 6303 00f1 34010000 		.4byte	0x134
 6304 00f5 7C080000 		.4byte	.LASF14
 6305 00f9 10       		.byte	0x10
 6306 00fa 05       		.byte	0x5
 6307 00fb 0C       		.byte	0xc
 6308 00fc 08       		.uleb128 0x8
 6309 00fd 696400   		.ascii	"id\000"
 6310 0100 05       		.byte	0x5
 6311 0101 0D       		.byte	0xd
 6312 0102 87000000 		.4byte	0x87
 6313 0106 02       		.byte	0x2
 6314 0107 23       		.byte	0x23
 6315 0108 00       		.uleb128 0x0
 6316 0109 09       		.uleb128 0x9
 6317 010a A0020000 		.4byte	.LASF15
 6318 010e 05       		.byte	0x5
 6319 010f 0E       		.byte	0xe
 6320 0110 2C000000 		.4byte	0x2c
 6321 0114 02       		.byte	0x2
 6322 0115 23       		.byte	0x23
 6323 0116 04       		.uleb128 0x4
 6324 0117 09       		.uleb128 0x9
 6325 0118 17010000 		.4byte	.LASF16
 6326 011c 05       		.byte	0x5
 6327 011d 0F       		.byte	0xf
 6328 011e 34010000 		.4byte	0x134
 6329 0122 02       		.byte	0x2
 6330 0123 23       		.byte	0x23
 6331 0124 08       		.uleb128 0x8
 6332 0125 09       		.uleb128 0x9
 6333 0126 0A090000 		.4byte	.LASF17
 6334 012a 05       		.byte	0x5
 6335 012b 10       		.byte	0x10
ARM GAS  C:\DOCUME~1\TECHCO~1\LOCALS~1\Temp/ccQdbaaa.s 			page 132


 6336 012c 34010000 		.4byte	0x134
 6337 0130 02       		.byte	0x2
 6338 0131 23       		.byte	0x23
 6339 0132 0C       		.uleb128 0xc
 6340 0133 00       		.byte	0x0
 6341 0134 05       		.uleb128 0x5
 6342 0135 04       		.byte	0x4
 6343 0136 E5000000 		.4byte	0xe5
 6344 013a 0A       		.uleb128 0xa
 6345 013b 2B080000 		.4byte	.LASF18
 6346 013f 05       		.byte	0x5
 6347 0140 11       		.byte	0x11
 6348 0141 F0000000 		.4byte	0xf0
 6349 0145 0A       		.uleb128 0xa
 6350 0146 27040000 		.4byte	.LASF19
 6351 014a 08       		.byte	0x8
 6352 014b 60       		.byte	0x60
 6353 014c 80000000 		.4byte	0x80
 6354 0150 0A       		.uleb128 0xa
 6355 0151 EF060000 		.4byte	.LASF20
 6356 0155 08       		.byte	0x8
 6357 0156 61       		.byte	0x61
 6358 0157 4F000000 		.4byte	0x4f
 6359 015b 0A       		.uleb128 0xa
 6360 015c 23080000 		.4byte	.LASF21
 6361 0160 08       		.byte	0x8
 6362 0161 64       		.byte	0x64
 6363 0162 72000000 		.4byte	0x72
 6364 0166 0A       		.uleb128 0xa
 6365 0167 73090000 		.4byte	.LASF22
 6366 016b 08       		.byte	0x8
 6367 016c 65       		.byte	0x65
 6368 016d 33000000 		.4byte	0x33
 6369 0171 0A       		.uleb128 0xa
 6370 0172 A5070000 		.4byte	.LASF23
 6371 0176 08       		.byte	0x8
 6372 0177 66       		.byte	0x66
 6373 0178 33000000 		.4byte	0x33
 6374 017c 0A       		.uleb128 0xa
 6375 017d B6090000 		.4byte	.LASF24
 6376 0181 08       		.byte	0x8
 6377 0182 67       		.byte	0x67
 6378 0183 25000000 		.4byte	0x25
 6379 0187 07       		.uleb128 0x7
 6380 0188 A2010000 		.4byte	0x1a2
 6381 018c FA090000 		.4byte	.LASF25
 6382 0190 04       		.byte	0x4
 6383 0191 07       		.byte	0x7
 6384 0192 32       		.byte	0x32
 6385 0193 09       		.uleb128 0x9
 6386 0194 31080000 		.4byte	.LASF26
 6387 0198 07       		.byte	0x7
 6388 0199 34       		.byte	0x34
 6389 019a 66010000 		.4byte	0x166
 6390 019e 02       		.byte	0x2
 6391 019f 23       		.byte	0x23
 6392 01a0 00       		.uleb128 0x0
ARM GAS  C:\DOCUME~1\TECHCO~1\LOCALS~1\Temp/ccQdbaaa.s 			page 133


 6393 01a1 00       		.byte	0x0
 6394 01a2 0A       		.uleb128 0xa
 6395 01a3 FA090000 		.4byte	.LASF25
 6396 01a7 07       		.byte	0x7
 6397 01a8 36       		.byte	0x36
 6398 01a9 87010000 		.4byte	0x187
 6399 01ad 07       		.uleb128 0x7
 6400 01ae E4010000 		.4byte	0x1e4
 6401 01b2 1F0A0000 		.4byte	.LASF27
 6402 01b6 08       		.byte	0x8
 6403 01b7 09       		.byte	0x9
 6404 01b8 35       		.byte	0x35
 6405 01b9 09       		.uleb128 0x9
 6406 01ba B7040000 		.4byte	.LASF28
 6407 01be 09       		.byte	0x9
 6408 01bf 36       		.byte	0x36
 6409 01c0 7C010000 		.4byte	0x17c
 6410 01c4 02       		.byte	0x2
 6411 01c5 23       		.byte	0x23
 6412 01c6 00       		.uleb128 0x0
 6413 01c7 09       		.uleb128 0x9
 6414 01c8 DD040000 		.4byte	.LASF29
 6415 01cc 09       		.byte	0x9
 6416 01cd 37       		.byte	0x37
 6417 01ce 50010000 		.4byte	0x150
 6418 01d2 02       		.byte	0x2
 6419 01d3 23       		.byte	0x23
 6420 01d4 04       		.uleb128 0x4
 6421 01d5 09       		.uleb128 0x9
 6422 01d6 D6070000 		.4byte	.LASF30
 6423 01da 09       		.byte	0x9
 6424 01db 38       		.byte	0x38
 6425 01dc 50010000 		.4byte	0x150
 6426 01e0 02       		.byte	0x2
 6427 01e1 23       		.byte	0x23
 6428 01e2 05       		.uleb128 0x5
 6429 01e3 00       		.byte	0x0
 6430 01e4 0A       		.uleb128 0xa
 6431 01e5 1F0A0000 		.4byte	.LASF27
 6432 01e9 09       		.byte	0x9
 6433 01ea 3A       		.byte	0x3a
 6434 01eb AD010000 		.4byte	0x1ad
 6435 01ef 0B       		.uleb128 0xb
 6436 01f0 A5020000 		.4byte	0x2a5
 6437 01f4 79050000 		.4byte	.LASF31
 6438 01f8 3002     		.2byte	0x230
 6439 01fa 09       		.byte	0x9
 6440 01fb 3C       		.byte	0x3c
 6441 01fc 09       		.uleb128 0x9
 6442 01fd D1020000 		.4byte	.LASF32
 6443 0201 09       		.byte	0x9
 6444 0202 3D       		.byte	0x3d
 6445 0203 A5020000 		.4byte	0x2a5
 6446 0207 02       		.byte	0x2
 6447 0208 23       		.byte	0x23
 6448 0209 00       		.uleb128 0x0
 6449 020a 09       		.uleb128 0x9
ARM GAS  C:\DOCUME~1\TECHCO~1\LOCALS~1\Temp/ccQdbaaa.s 			page 134


 6450 020b 40000000 		.4byte	.LASF33
 6451 020f 09       		.byte	0x9
 6452 0210 3F       		.byte	0x3f
 6453 0211 AB020000 		.4byte	0x2ab
 6454 0215 02       		.byte	0x2
 6455 0216 23       		.byte	0x23
 6456 0217 04       		.uleb128 0x4
 6457 0218 09       		.uleb128 0x9
 6458 0219 5C080000 		.4byte	.LASF34
 6459 021d 09       		.byte	0x9
 6460 021e 40       		.byte	0x40
 6461 021f 5B010000 		.4byte	0x15b
 6462 0223 02       		.byte	0x2
 6463 0224 23       		.byte	0x23
 6464 0225 08       		.uleb128 0x8
 6465 0226 09       		.uleb128 0x9
 6466 0227 72030000 		.4byte	.LASF35
 6467 022b 09       		.byte	0x9
 6468 022c 41       		.byte	0x41
 6469 022d 5B010000 		.4byte	0x15b
 6470 0231 02       		.byte	0x2
 6471 0232 23       		.byte	0x23
 6472 0233 0A       		.uleb128 0xa
 6473 0234 09       		.uleb128 0x9
 6474 0235 33060000 		.4byte	.LASF36
 6475 0239 09       		.byte	0x9
 6476 023a 43       		.byte	0x43
 6477 023b 50010000 		.4byte	0x150
 6478 023f 02       		.byte	0x2
 6479 0240 23       		.byte	0x23
 6480 0241 0C       		.uleb128 0xc
 6481 0242 09       		.uleb128 0x9
 6482 0243 B1050000 		.4byte	.LASF37
 6483 0247 09       		.byte	0x9
 6484 0248 45       		.byte	0x45
 6485 0249 B1020000 		.4byte	0x2b1
 6486 024d 02       		.byte	0x2
 6487 024e 23       		.byte	0x23
 6488 024f 10       		.uleb128 0x10
 6489 0250 09       		.uleb128 0x9
 6490 0251 B7040000 		.4byte	.LASF28
 6491 0255 09       		.byte	0x9
 6492 0256 47       		.byte	0x47
 6493 0257 C7020000 		.4byte	0x2c7
 6494 025b 02       		.byte	0x2
 6495 025c 23       		.byte	0x23
 6496 025d 28       		.uleb128 0x28
 6497 025e 09       		.uleb128 0x9
 6498 025f DD040000 		.4byte	.LASF29
 6499 0263 09       		.byte	0x9
 6500 0264 48       		.byte	0x48
 6501 0265 D7020000 		.4byte	0x2d7
 6502 0269 02       		.byte	0x2
 6503 026a 23       		.byte	0x23
 6504 026b 2C       		.uleb128 0x2c
 6505 026c 09       		.uleb128 0x9
 6506 026d D6070000 		.4byte	.LASF30
ARM GAS  C:\DOCUME~1\TECHCO~1\LOCALS~1\Temp/ccQdbaaa.s 			page 135


 6507 0271 09       		.byte	0x9
 6508 0272 49       		.byte	0x49
 6509 0273 D7020000 		.4byte	0x2d7
 6510 0277 02       		.byte	0x2
 6511 0278 23       		.byte	0x23
 6512 0279 2D       		.uleb128 0x2d
 6513 027a 09       		.uleb128 0x9
 6514 027b A9010000 		.4byte	.LASF38
 6515 027f 09       		.byte	0x9
 6516 0280 4A       		.byte	0x4a
 6517 0281 D7020000 		.4byte	0x2d7
 6518 0285 02       		.byte	0x2
 6519 0286 23       		.byte	0x23
 6520 0287 2E       		.uleb128 0x2e
 6521 0288 09       		.uleb128 0x9
 6522 0289 90040000 		.4byte	.LASF39
 6523 028d 09       		.byte	0x9
 6524 028e 4B       		.byte	0x4b
 6525 028f D7020000 		.4byte	0x2d7
 6526 0293 02       		.byte	0x2
 6527 0294 23       		.byte	0x23
 6528 0295 2F       		.uleb128 0x2f
 6529 0296 09       		.uleb128 0x9
 6530 0297 FB030000 		.4byte	.LASF40
 6531 029b 09       		.byte	0x9
 6532 029c 4D       		.byte	0x4d
 6533 029d E7020000 		.4byte	0x2e7
 6534 02a1 02       		.byte	0x2
 6535 02a2 23       		.byte	0x23
 6536 02a3 30       		.uleb128 0x30
 6537 02a4 00       		.byte	0x0
 6538 02a5 05       		.uleb128 0x5
 6539 02a6 04       		.byte	0x4
 6540 02a7 A2010000 		.4byte	0x1a2
 6541 02ab 05       		.uleb128 0x5
 6542 02ac 04       		.byte	0x4
 6543 02ad 50010000 		.4byte	0x150
 6544 02b1 0C       		.uleb128 0xc
 6545 02b2 C7020000 		.4byte	0x2c7
 6546 02b6 E4010000 		.4byte	0x1e4
 6547 02ba 0D       		.uleb128 0xd
 6548 02bb 48000000 		.4byte	0x48
 6549 02bf 00       		.byte	0x0
 6550 02c0 0D       		.uleb128 0xd
 6551 02c1 48000000 		.4byte	0x48
 6552 02c5 02       		.byte	0x2
 6553 02c6 00       		.byte	0x0
 6554 02c7 0C       		.uleb128 0xc
 6555 02c8 D7020000 		.4byte	0x2d7
 6556 02cc 7C010000 		.4byte	0x17c
 6557 02d0 0D       		.uleb128 0xd
 6558 02d1 48000000 		.4byte	0x48
 6559 02d5 00       		.byte	0x0
 6560 02d6 00       		.byte	0x0
 6561 02d7 0C       		.uleb128 0xc
 6562 02d8 E7020000 		.4byte	0x2e7
 6563 02dc 50010000 		.4byte	0x150
ARM GAS  C:\DOCUME~1\TECHCO~1\LOCALS~1\Temp/ccQdbaaa.s 			page 136


 6564 02e0 0D       		.uleb128 0xd
 6565 02e1 48000000 		.4byte	0x48
 6566 02e5 00       		.byte	0x0
 6567 02e6 00       		.byte	0x0
 6568 02e7 0C       		.uleb128 0xc
 6569 02e8 F8020000 		.4byte	0x2f8
 6570 02ec 50010000 		.4byte	0x150
 6571 02f0 0E       		.uleb128 0xe
 6572 02f1 48000000 		.4byte	0x48
 6573 02f5 FF01     		.2byte	0x1ff
 6574 02f7 00       		.byte	0x0
 6575 02f8 0A       		.uleb128 0xa
 6576 02f9 79050000 		.4byte	.LASF31
 6577 02fd 09       		.byte	0x9
 6578 02fe 50       		.byte	0x50
 6579 02ff EF010000 		.4byte	0x1ef
 6580 0303 07       		.uleb128 0x7
 6581 0304 64030000 		.4byte	0x364
 6582 0308 EB090000 		.4byte	.LASF41
 6583 030c 10       		.byte	0x10
 6584 030d 0A       		.byte	0xa
 6585 030e 3A       		.byte	0x3a
 6586 030f 09       		.uleb128 0x9
 6587 0310 F2030000 		.4byte	.LASF42
 6588 0314 0A       		.byte	0xa
 6589 0315 3B       		.byte	0x3b
 6590 0316 50010000 		.4byte	0x150
 6591 031a 02       		.byte	0x2
 6592 031b 23       		.byte	0x23
 6593 031c 00       		.uleb128 0x0
 6594 031d 09       		.uleb128 0x9
 6595 031e 22020000 		.4byte	.LASF43
 6596 0322 0A       		.byte	0xa
 6597 0323 3C       		.byte	0x3c
 6598 0324 64030000 		.4byte	0x364
 6599 0328 02       		.byte	0x2
 6600 0329 23       		.byte	0x23
 6601 032a 01       		.uleb128 0x1
 6602 032b 09       		.uleb128 0x9
 6603 032c CD080000 		.4byte	.LASF44
 6604 0330 0A       		.byte	0xa
 6605 0331 3D       		.byte	0x3d
 6606 0332 50010000 		.4byte	0x150
 6607 0336 02       		.byte	0x2
 6608 0337 23       		.byte	0x23
 6609 0338 04       		.uleb128 0x4
 6610 0339 09       		.uleb128 0x9
 6611 033a 8E060000 		.4byte	.LASF45
 6612 033e 0A       		.byte	0xa
 6613 033f 3E       		.byte	0x3e
 6614 0340 64030000 		.4byte	0x364
 6615 0344 02       		.byte	0x2
 6616 0345 23       		.byte	0x23
 6617 0346 05       		.uleb128 0x5
 6618 0347 09       		.uleb128 0x9
 6619 0348 83050000 		.4byte	.LASF46
 6620 034c 0A       		.byte	0xa
ARM GAS  C:\DOCUME~1\TECHCO~1\LOCALS~1\Temp/ccQdbaaa.s 			page 137


 6621 034d 3F       		.byte	0x3f
 6622 034e 7C010000 		.4byte	0x17c
 6623 0352 02       		.byte	0x2
 6624 0353 23       		.byte	0x23
 6625 0354 08       		.uleb128 0x8
 6626 0355 09       		.uleb128 0x9
 6627 0356 AB090000 		.4byte	.LASF47
 6628 035a 0A       		.byte	0xa
 6629 035b 40       		.byte	0x40
 6630 035c 7C010000 		.4byte	0x17c
 6631 0360 02       		.byte	0x2
 6632 0361 23       		.byte	0x23
 6633 0362 0C       		.uleb128 0xc
 6634 0363 00       		.byte	0x0
 6635 0364 0C       		.uleb128 0xc
 6636 0365 74030000 		.4byte	0x374
 6637 0369 50010000 		.4byte	0x150
 6638 036d 0D       		.uleb128 0xd
 6639 036e 48000000 		.4byte	0x48
 6640 0372 02       		.byte	0x2
 6641 0373 00       		.byte	0x0
 6642 0374 0A       		.uleb128 0xa
 6643 0375 EB090000 		.4byte	.LASF41
 6644 0379 0A       		.byte	0xa
 6645 037a 42       		.byte	0x42
 6646 037b 03030000 		.4byte	0x303
 6647 037f 07       		.uleb128 0x7
 6648 0380 B6030000 		.4byte	0x3b6
 6649 0384 12010000 		.4byte	.LASF48
 6650 0388 48       		.byte	0x48
 6651 0389 0A       		.byte	0xa
 6652 038a 4C       		.byte	0x4c
 6653 038b 09       		.uleb128 0x9
 6654 038c 27010000 		.4byte	.LASF49
 6655 0390 0A       		.byte	0xa
 6656 0391 4D       		.byte	0x4d
 6657 0392 B6030000 		.4byte	0x3b6
 6658 0396 02       		.byte	0x2
 6659 0397 23       		.byte	0x23
 6660 0398 00       		.uleb128 0x0
 6661 0399 09       		.uleb128 0x9
 6662 039a 33060000 		.4byte	.LASF36
 6663 039e 0A       		.byte	0xa
 6664 039f 4E       		.byte	0x4e
 6665 03a0 50010000 		.4byte	0x150
 6666 03a4 02       		.byte	0x2
 6667 03a5 23       		.byte	0x23
 6668 03a6 04       		.uleb128 0x4
 6669 03a7 09       		.uleb128 0x9
 6670 03a8 92080000 		.4byte	.LASF50
 6671 03ac 0A       		.byte	0xa
 6672 03ad 4F       		.byte	0x4f
 6673 03ae BC030000 		.4byte	0x3bc
 6674 03b2 02       		.byte	0x2
 6675 03b3 23       		.byte	0x23
 6676 03b4 08       		.uleb128 0x8
 6677 03b5 00       		.byte	0x0
ARM GAS  C:\DOCUME~1\TECHCO~1\LOCALS~1\Temp/ccQdbaaa.s 			page 138


 6678 03b6 05       		.uleb128 0x5
 6679 03b7 04       		.byte	0x4
 6680 03b8 F8020000 		.4byte	0x2f8
 6681 03bc 0C       		.uleb128 0xc
 6682 03bd CC030000 		.4byte	0x3cc
 6683 03c1 74030000 		.4byte	0x374
 6684 03c5 0D       		.uleb128 0xd
 6685 03c6 48000000 		.4byte	0x48
 6686 03ca 03       		.byte	0x3
 6687 03cb 00       		.byte	0x0
 6688 03cc 0A       		.uleb128 0xa
 6689 03cd 12010000 		.4byte	.LASF48
 6690 03d1 0A       		.byte	0xa
 6691 03d2 51       		.byte	0x51
 6692 03d3 7F030000 		.4byte	0x37f
 6693 03d7 07       		.uleb128 0x7
 6694 03d8 00040000 		.4byte	0x400
 6695 03dc 68030000 		.4byte	.LASF51
 6696 03e0 08       		.byte	0x8
 6697 03e1 0B       		.byte	0xb
 6698 03e2 39       		.byte	0x39
 6699 03e3 09       		.uleb128 0x9
 6700 03e4 C6020000 		.4byte	.LASF52
 6701 03e8 0B       		.byte	0xb
 6702 03e9 3A       		.byte	0x3a
 6703 03ea 00040000 		.4byte	0x400
 6704 03ee 02       		.byte	0x2
 6705 03ef 23       		.byte	0x23
 6706 03f0 00       		.uleb128 0x0
 6707 03f1 09       		.uleb128 0x9
 6708 03f2 09050000 		.4byte	.LASF53
 6709 03f6 0B       		.byte	0xb
 6710 03f7 3B       		.byte	0x3b
 6711 03f8 45010000 		.4byte	0x145
 6712 03fc 02       		.byte	0x2
 6713 03fd 23       		.byte	0x23
 6714 03fe 04       		.uleb128 0x4
 6715 03ff 00       		.byte	0x0
 6716 0400 05       		.uleb128 0x5
 6717 0401 04       		.byte	0x4
 6718 0402 CC030000 		.4byte	0x3cc
 6719 0406 0A       		.uleb128 0xa
 6720 0407 68030000 		.4byte	.LASF51
 6721 040b 0B       		.byte	0xb
 6722 040c 3D       		.byte	0x3d
 6723 040d D7030000 		.4byte	0x3d7
 6724 0411 07       		.uleb128 0x7
 6725 0412 AA040000 		.4byte	0x4aa
 6726 0416 6E0A0000 		.4byte	.LASF54
 6727 041a 1C       		.byte	0x1c
 6728 041b 0C       		.byte	0xc
 6729 041c 43       		.byte	0x43
 6730 041d 09       		.uleb128 0x9
 6731 041e AC000000 		.4byte	.LASF55
 6732 0422 0C       		.byte	0xc
 6733 0423 44       		.byte	0x44
 6734 0424 5B010000 		.4byte	0x15b
ARM GAS  C:\DOCUME~1\TECHCO~1\LOCALS~1\Temp/ccQdbaaa.s 			page 139


 6735 0428 02       		.byte	0x2
 6736 0429 23       		.byte	0x23
 6737 042a 00       		.uleb128 0x0
 6738 042b 09       		.uleb128 0x9
 6739 042c 47000000 		.4byte	.LASF56
 6740 0430 0C       		.byte	0xc
 6741 0431 45       		.byte	0x45
 6742 0432 50010000 		.4byte	0x150
 6743 0436 02       		.byte	0x2
 6744 0437 23       		.byte	0x23
 6745 0438 02       		.uleb128 0x2
 6746 0439 09       		.uleb128 0x9
 6747 043a 41010000 		.4byte	.LASF57
 6748 043e 0C       		.byte	0xc
 6749 043f 46       		.byte	0x46
 6750 0440 5B010000 		.4byte	0x15b
 6751 0444 02       		.byte	0x2
 6752 0445 23       		.byte	0x23
 6753 0446 04       		.uleb128 0x4
 6754 0447 09       		.uleb128 0x9
 6755 0448 78030000 		.4byte	.LASF58
 6756 044c 0C       		.byte	0xc
 6757 044d 47       		.byte	0x47
 6758 044e 50010000 		.4byte	0x150
 6759 0452 02       		.byte	0x2
 6760 0453 23       		.byte	0x23
 6761 0454 06       		.uleb128 0x6
 6762 0455 09       		.uleb128 0x9
 6763 0456 DC070000 		.4byte	.LASF59
 6764 045a 0C       		.byte	0xc
 6765 045b 48       		.byte	0x48
 6766 045c 5B010000 		.4byte	0x15b
 6767 0460 02       		.byte	0x2
 6768 0461 23       		.byte	0x23
 6769 0462 08       		.uleb128 0x8
 6770 0463 09       		.uleb128 0x9
 6771 0464 980A0000 		.4byte	.LASF60
 6772 0468 0C       		.byte	0xc
 6773 0469 49       		.byte	0x49
 6774 046a 5B010000 		.4byte	0x15b
 6775 046e 02       		.byte	0x2
 6776 046f 23       		.byte	0x23
 6777 0470 0A       		.uleb128 0xa
 6778 0471 09       		.uleb128 0x9
 6779 0472 490A0000 		.4byte	.LASF61
 6780 0476 0C       		.byte	0xc
 6781 0477 4A       		.byte	0x4a
 6782 0478 5B010000 		.4byte	0x15b
 6783 047c 02       		.byte	0x2
 6784 047d 23       		.byte	0x23
 6785 047e 0C       		.uleb128 0xc
 6786 047f 09       		.uleb128 0x9
 6787 0480 55010000 		.4byte	.LASF62
 6788 0484 0C       		.byte	0xc
 6789 0485 4B       		.byte	0x4b
 6790 0486 7C010000 		.4byte	0x17c
 6791 048a 02       		.byte	0x2
ARM GAS  C:\DOCUME~1\TECHCO~1\LOCALS~1\Temp/ccQdbaaa.s 			page 140


 6792 048b 23       		.byte	0x23
 6793 048c 10       		.uleb128 0x10
 6794 048d 09       		.uleb128 0x9
 6795 048e 16040000 		.4byte	.LASF63
 6796 0492 0C       		.byte	0xc
 6797 0493 4C       		.byte	0x4c
 6798 0494 7C010000 		.4byte	0x17c
 6799 0498 02       		.byte	0x2
 6800 0499 23       		.byte	0x23
 6801 049a 14       		.uleb128 0x14
 6802 049b 09       		.uleb128 0x9
 6803 049c 41020000 		.4byte	.LASF64
 6804 04a0 0C       		.byte	0xc
 6805 04a1 4D       		.byte	0x4d
 6806 04a2 7C010000 		.4byte	0x17c
 6807 04a6 02       		.byte	0x2
 6808 04a7 23       		.byte	0x23
 6809 04a8 18       		.uleb128 0x18
 6810 04a9 00       		.byte	0x0
 6811 04aa 0A       		.uleb128 0xa
 6812 04ab 6E0A0000 		.4byte	.LASF54
 6813 04af 0C       		.byte	0xc
 6814 04b0 4F       		.byte	0x4f
 6815 04b1 11040000 		.4byte	0x411
 6816 04b5 07       		.uleb128 0x7
 6817 04b6 4E050000 		.4byte	0x54e
 6818 04ba CB070000 		.4byte	.LASF65
 6819 04be 40       		.byte	0x40
 6820 04bf 0C       		.byte	0xc
 6821 04c0 5D       		.byte	0x5d
 6822 04c1 09       		.uleb128 0x9
 6823 04c2 CD010000 		.4byte	.LASF66
 6824 04c6 0C       		.byte	0xc
 6825 04c7 5E       		.byte	0x5e
 6826 04c8 4E050000 		.4byte	0x54e
 6827 04cc 02       		.byte	0x2
 6828 04cd 23       		.byte	0x23
 6829 04ce 00       		.uleb128 0x0
 6830 04cf 09       		.uleb128 0x9
 6831 04d0 A2090000 		.4byte	.LASF67
 6832 04d4 0C       		.byte	0xc
 6833 04d5 5F       		.byte	0x5f
 6834 04d6 AA040000 		.4byte	0x4aa
 6835 04da 02       		.byte	0x2
 6836 04db 23       		.byte	0x23
 6837 04dc 04       		.uleb128 0x4
 6838 04dd 09       		.uleb128 0x9
 6839 04de 33090000 		.4byte	.LASF68
 6840 04e2 0C       		.byte	0xc
 6841 04e3 60       		.byte	0x60
 6842 04e4 7C010000 		.4byte	0x17c
 6843 04e8 02       		.byte	0x2
 6844 04e9 23       		.byte	0x23
 6845 04ea 20       		.uleb128 0x20
 6846 04eb 09       		.uleb128 0x9
 6847 04ec 7F010000 		.4byte	.LASF69
 6848 04f0 0C       		.byte	0xc
ARM GAS  C:\DOCUME~1\TECHCO~1\LOCALS~1\Temp/ccQdbaaa.s 			page 141


 6849 04f1 61       		.byte	0x61
 6850 04f2 7C010000 		.4byte	0x17c
 6851 04f6 02       		.byte	0x2
 6852 04f7 23       		.byte	0x23
 6853 04f8 24       		.uleb128 0x24
 6854 04f9 09       		.uleb128 0x9
 6855 04fa 0E070000 		.4byte	.LASF70
 6856 04fe 0C       		.byte	0xc
 6857 04ff 62       		.byte	0x62
 6858 0500 7C010000 		.4byte	0x17c
 6859 0504 02       		.byte	0x2
 6860 0505 23       		.byte	0x23
 6861 0506 28       		.uleb128 0x28
 6862 0507 09       		.uleb128 0x9
 6863 0508 77000000 		.4byte	.LASF71
 6864 050c 0C       		.byte	0xc
 6865 050d 63       		.byte	0x63
 6866 050e 7C010000 		.4byte	0x17c
 6867 0512 02       		.byte	0x2
 6868 0513 23       		.byte	0x23
 6869 0514 2C       		.uleb128 0x2c
 6870 0515 09       		.uleb128 0x9
 6871 0516 96060000 		.4byte	.LASF72
 6872 051a 0C       		.byte	0xc
 6873 051b 64       		.byte	0x64
 6874 051c 7C010000 		.4byte	0x17c
 6875 0520 02       		.byte	0x2
 6876 0521 23       		.byte	0x23
 6877 0522 30       		.uleb128 0x30
 6878 0523 09       		.uleb128 0x9
 6879 0524 98030000 		.4byte	.LASF73
 6880 0528 0C       		.byte	0xc
 6881 0529 65       		.byte	0x65
 6882 052a 7C010000 		.4byte	0x17c
 6883 052e 02       		.byte	0x2
 6884 052f 23       		.byte	0x23
 6885 0530 34       		.uleb128 0x34
 6886 0531 09       		.uleb128 0x9
 6887 0532 EB070000 		.4byte	.LASF74
 6888 0536 0C       		.byte	0xc
 6889 0537 66       		.byte	0x66
 6890 0538 7C010000 		.4byte	0x17c
 6891 053c 02       		.byte	0x2
 6892 053d 23       		.byte	0x23
 6893 053e 38       		.uleb128 0x38
 6894 053f 09       		.uleb128 0x9
 6895 0540 CD080000 		.4byte	.LASF44
 6896 0544 0C       		.byte	0xc
 6897 0545 67       		.byte	0x67
 6898 0546 50010000 		.4byte	0x150
 6899 054a 02       		.byte	0x2
 6900 054b 23       		.byte	0x23
 6901 054c 3C       		.uleb128 0x3c
 6902 054d 00       		.byte	0x0
 6903 054e 05       		.uleb128 0x5
 6904 054f 04       		.byte	0x4
 6905 0550 06040000 		.4byte	0x406
ARM GAS  C:\DOCUME~1\TECHCO~1\LOCALS~1\Temp/ccQdbaaa.s 			page 142


 6906 0554 0A       		.uleb128 0xa
 6907 0555 CB070000 		.4byte	.LASF65
 6908 0559 0C       		.byte	0xc
 6909 055a 69       		.byte	0x69
 6910 055b B5040000 		.4byte	0x4b5
 6911 055f 07       		.uleb128 0x7
 6912 0560 96050000 		.4byte	0x596
 6913 0564 0A080000 		.4byte	.LASF75
 6914 0568 08       		.byte	0x8
 6915 0569 0C       		.byte	0xc
 6916 056a 71       		.byte	0x71
 6917 056b 09       		.uleb128 0x9
 6918 056c D0000000 		.4byte	.LASF76
 6919 0570 0C       		.byte	0xc
 6920 0571 72       		.byte	0x72
 6921 0572 7C010000 		.4byte	0x17c
 6922 0576 02       		.byte	0x2
 6923 0577 23       		.byte	0x23
 6924 0578 00       		.uleb128 0x0
 6925 0579 09       		.uleb128 0x9
 6926 057a 63010000 		.4byte	.LASF77
 6927 057e 0C       		.byte	0xc
 6928 057f 73       		.byte	0x73
 6929 0580 50010000 		.4byte	0x150
 6930 0584 02       		.byte	0x2
 6931 0585 23       		.byte	0x23
 6932 0586 04       		.uleb128 0x4
 6933 0587 09       		.uleb128 0x9
 6934 0588 420A0000 		.4byte	.LASF78
 6935 058c 0C       		.byte	0xc
 6936 058d 74       		.byte	0x74
 6937 058e 50010000 		.4byte	0x150
 6938 0592 02       		.byte	0x2
 6939 0593 23       		.byte	0x23
 6940 0594 05       		.uleb128 0x5
 6941 0595 00       		.byte	0x0
 6942 0596 0A       		.uleb128 0xa
 6943 0597 0A080000 		.4byte	.LASF75
 6944 059b 0C       		.byte	0xc
 6945 059c 76       		.byte	0x76
 6946 059d 5F050000 		.4byte	0x55f
 6947 05a1 07       		.uleb128 0x7
 6948 05a2 02060000 		.4byte	0x602
 6949 05a6 D7020000 		.4byte	.LASF79
 6950 05aa 18       		.byte	0x18
 6951 05ab 0C       		.byte	0xc
 6952 05ac 87       		.byte	0x87
 6953 05ad 09       		.uleb128 0x9
 6954 05ae 91090000 		.4byte	.LASF80
 6955 05b2 0C       		.byte	0xc
 6956 05b3 88       		.byte	0x88
 6957 05b4 50010000 		.4byte	0x150
 6958 05b8 02       		.byte	0x2
 6959 05b9 23       		.byte	0x23
 6960 05ba 00       		.uleb128 0x0
 6961 05bb 09       		.uleb128 0x9
 6962 05bc 34020000 		.4byte	.LASF81
ARM GAS  C:\DOCUME~1\TECHCO~1\LOCALS~1\Temp/ccQdbaaa.s 			page 143


 6963 05c0 0C       		.byte	0xc
 6964 05c1 89       		.byte	0x89
 6965 05c2 71010000 		.4byte	0x171
 6966 05c6 02       		.byte	0x2
 6967 05c7 23       		.byte	0x23
 6968 05c8 04       		.uleb128 0x4
 6969 05c9 09       		.uleb128 0x9
 6970 05ca 8C0A0000 		.4byte	.LASF82
 6971 05ce 0C       		.byte	0xc
 6972 05cf 8A       		.byte	0x8a
 6973 05d0 7C010000 		.4byte	0x17c
 6974 05d4 02       		.byte	0x2
 6975 05d5 23       		.byte	0x23
 6976 05d6 08       		.uleb128 0x8
 6977 05d7 09       		.uleb128 0x9
 6978 05d8 01070000 		.4byte	.LASF83
 6979 05dc 0C       		.byte	0xc
 6980 05dd 8B       		.byte	0x8b
 6981 05de 7C010000 		.4byte	0x17c
 6982 05e2 02       		.byte	0x2
 6983 05e3 23       		.byte	0x23
 6984 05e4 0C       		.uleb128 0xc
 6985 05e5 09       		.uleb128 0x9
 6986 05e6 85090000 		.4byte	.LASF84
 6987 05ea 0C       		.byte	0xc
 6988 05eb 8C       		.byte	0x8c
 6989 05ec 7C010000 		.4byte	0x17c
 6990 05f0 02       		.byte	0x2
 6991 05f1 23       		.byte	0x23
 6992 05f2 10       		.uleb128 0x10
 6993 05f3 09       		.uleb128 0x9
 6994 05f4 8D050000 		.4byte	.LASF85
 6995 05f8 0C       		.byte	0xc
 6996 05f9 8D       		.byte	0x8d
 6997 05fa 7C010000 		.4byte	0x17c
 6998 05fe 02       		.byte	0x2
 6999 05ff 23       		.byte	0x23
 7000 0600 14       		.uleb128 0x14
 7001 0601 00       		.byte	0x0
 7002 0602 0A       		.uleb128 0xa
 7003 0603 D7020000 		.4byte	.LASF79
 7004 0607 0C       		.byte	0xc
 7005 0608 8F       		.byte	0x8f
 7006 0609 A1050000 		.4byte	0x5a1
 7007 060d 07       		.uleb128 0x7
 7008 060e C2060000 		.4byte	0x6c2
 7009 0612 F6060000 		.4byte	.LASF86
 7010 0616 20       		.byte	0x20
 7011 0617 0C       		.byte	0xc
 7012 0618 97       		.byte	0x97
 7013 0619 09       		.uleb128 0x9
 7014 061a D2030000 		.4byte	.LASF87
 7015 061e 0C       		.byte	0xc
 7016 061f 98       		.byte	0x98
 7017 0620 C2060000 		.4byte	0x6c2
 7018 0624 02       		.byte	0x2
 7019 0625 23       		.byte	0x23
ARM GAS  C:\DOCUME~1\TECHCO~1\LOCALS~1\Temp/ccQdbaaa.s 			page 144


 7020 0626 00       		.uleb128 0x0
 7021 0627 09       		.uleb128 0x9
 7022 0628 A7050000 		.4byte	.LASF88
 7023 062c 0C       		.byte	0xc
 7024 062d 99       		.byte	0x99
 7025 062e 50010000 		.4byte	0x150
 7026 0632 02       		.byte	0x2
 7027 0633 23       		.byte	0x23
 7028 0634 0B       		.uleb128 0xb
 7029 0635 09       		.uleb128 0x9
 7030 0636 39060000 		.4byte	.LASF89
 7031 063a 0C       		.byte	0xc
 7032 063b 9A       		.byte	0x9a
 7033 063c 50010000 		.4byte	0x150
 7034 0640 02       		.byte	0x2
 7035 0641 23       		.byte	0x23
 7036 0642 0C       		.uleb128 0xc
 7037 0643 09       		.uleb128 0x9
 7038 0644 44060000 		.4byte	.LASF90
 7039 0648 0C       		.byte	0xc
 7040 0649 9B       		.byte	0x9b
 7041 064a 50010000 		.4byte	0x150
 7042 064e 02       		.byte	0x2
 7043 064f 23       		.byte	0x23
 7044 0650 0D       		.uleb128 0xd
 7045 0651 09       		.uleb128 0x9
 7046 0652 17080000 		.4byte	.LASF91
 7047 0656 0C       		.byte	0xc
 7048 0657 9C       		.byte	0x9c
 7049 0658 5B010000 		.4byte	0x15b
 7050 065c 02       		.byte	0x2
 7051 065d 23       		.byte	0x23
 7052 065e 0E       		.uleb128 0xe
 7053 065f 09       		.uleb128 0x9
 7054 0660 C1080000 		.4byte	.LASF92
 7055 0664 0C       		.byte	0xc
 7056 0665 9D       		.byte	0x9d
 7057 0666 5B010000 		.4byte	0x15b
 7058 066a 02       		.byte	0x2
 7059 066b 23       		.byte	0x23
 7060 066c 10       		.uleb128 0x10
 7061 066d 09       		.uleb128 0x9
 7062 066e 21030000 		.4byte	.LASF93
 7063 0672 0C       		.byte	0xc
 7064 0673 9E       		.byte	0x9e
 7065 0674 5B010000 		.4byte	0x15b
 7066 0678 02       		.byte	0x2
 7067 0679 23       		.byte	0x23
 7068 067a 12       		.uleb128 0x12
 7069 067b 09       		.uleb128 0x9
 7070 067c C1030000 		.4byte	.LASF94
 7071 0680 0C       		.byte	0xc
 7072 0681 9F       		.byte	0x9f
 7073 0682 5B010000 		.4byte	0x15b
 7074 0686 02       		.byte	0x2
 7075 0687 23       		.byte	0x23
 7076 0688 14       		.uleb128 0x14
ARM GAS  C:\DOCUME~1\TECHCO~1\LOCALS~1\Temp/ccQdbaaa.s 			page 145


 7077 0689 09       		.uleb128 0x9
 7078 068a 53030000 		.4byte	.LASF95
 7079 068e 0C       		.byte	0xc
 7080 068f A0       		.byte	0xa0
 7081 0690 5B010000 		.4byte	0x15b
 7082 0694 02       		.byte	0x2
 7083 0695 23       		.byte	0x23
 7084 0696 16       		.uleb128 0x16
 7085 0697 09       		.uleb128 0x9
 7086 0698 B7030000 		.4byte	.LASF96
 7087 069c 0C       		.byte	0xc
 7088 069d A1       		.byte	0xa1
 7089 069e 5B010000 		.4byte	0x15b
 7090 06a2 02       		.byte	0x2
 7091 06a3 23       		.byte	0x23
 7092 06a4 18       		.uleb128 0x18
 7093 06a5 09       		.uleb128 0x9
 7094 06a6 F6020000 		.4byte	.LASF97
 7095 06aa 0C       		.byte	0xc
 7096 06ab A2       		.byte	0xa2
 7097 06ac 5B010000 		.4byte	0x15b
 7098 06b0 02       		.byte	0x2
 7099 06b1 23       		.byte	0x23
 7100 06b2 1A       		.uleb128 0x1a
 7101 06b3 09       		.uleb128 0x9
 7102 06b4 0D030000 		.4byte	.LASF98
 7103 06b8 0C       		.byte	0xc
 7104 06b9 A3       		.byte	0xa3
 7105 06ba 7C010000 		.4byte	0x17c
 7106 06be 02       		.byte	0x2
 7107 06bf 23       		.byte	0x23
 7108 06c0 1C       		.uleb128 0x1c
 7109 06c1 00       		.byte	0x0
 7110 06c2 0C       		.uleb128 0xc
 7111 06c3 D2060000 		.4byte	0x6d2
 7112 06c7 50010000 		.4byte	0x150
 7113 06cb 0D       		.uleb128 0xd
 7114 06cc 48000000 		.4byte	0x48
 7115 06d0 0A       		.byte	0xa
 7116 06d1 00       		.byte	0x0
 7117 06d2 0A       		.uleb128 0xa
 7118 06d3 F6060000 		.4byte	.LASF86
 7119 06d7 0C       		.byte	0xc
 7120 06d8 A5       		.byte	0xa5
 7121 06d9 0D060000 		.4byte	0x60d
 7122 06dd 07       		.uleb128 0x7
 7123 06de 4B070000 		.4byte	0x74b
 7124 06e2 45080000 		.4byte	.LASF99
 7125 06e6 50       		.byte	0x50
 7126 06e7 0D       		.byte	0xd
 7127 06e8 44       		.byte	0x44
 7128 06e9 09       		.uleb128 0x9
 7129 06ea E9030000 		.4byte	.LASF100
 7130 06ee 0D       		.byte	0xd
 7131 06ef 45       		.byte	0x45
 7132 06f0 D2060000 		.4byte	0x6d2
 7133 06f4 02       		.byte	0x2
ARM GAS  C:\DOCUME~1\TECHCO~1\LOCALS~1\Temp/ccQdbaaa.s 			page 146


 7134 06f5 23       		.byte	0x23
 7135 06f6 00       		.uleb128 0x0
 7136 06f7 09       		.uleb128 0x9
 7137 06f8 38010000 		.4byte	.LASF101
 7138 06fc 0D       		.byte	0xd
 7139 06fd 46       		.byte	0x46
 7140 06fe 96050000 		.4byte	0x596
 7141 0702 02       		.byte	0x2
 7142 0703 23       		.byte	0x23
 7143 0704 20       		.uleb128 0x20
 7144 0705 08       		.uleb128 0x8
 7145 0706 667300   		.ascii	"fs\000"
 7146 0709 0D       		.byte	0xd
 7147 070a 47       		.byte	0x47
 7148 070b 4B070000 		.4byte	0x74b
 7149 070f 02       		.byte	0x2
 7150 0710 23       		.byte	0x23
 7151 0711 28       		.uleb128 0x28
 7152 0712 09       		.uleb128 0x9
 7153 0713 FB070000 		.4byte	.LASF102
 7154 0717 0D       		.byte	0xd
 7155 0718 48       		.byte	0x48
 7156 0719 02060000 		.4byte	0x602
 7157 071d 02       		.byte	0x2
 7158 071e 23       		.byte	0x23
 7159 071f 2C       		.uleb128 0x2c
 7160 0720 09       		.uleb128 0x9
 7161 0721 93010000 		.4byte	.LASF103
 7162 0725 0D       		.byte	0xd
 7163 0726 49       		.byte	0x49
 7164 0727 50010000 		.4byte	0x150
 7165 072b 02       		.byte	0x2
 7166 072c 23       		.byte	0x23
 7167 072d 44       		.uleb128 0x44
 7168 072e 09       		.uleb128 0x9
 7169 072f 2C020000 		.4byte	.LASF104
 7170 0733 0D       		.byte	0xd
 7171 0734 4A       		.byte	0x4a
 7172 0735 7C010000 		.4byte	0x17c
 7173 0739 02       		.byte	0x2
 7174 073a 23       		.byte	0x23
 7175 073b 48       		.uleb128 0x48
 7176 073c 09       		.uleb128 0x9
 7177 073d 0D030000 		.4byte	.LASF98
 7178 0741 0D       		.byte	0xd
 7179 0742 4B       		.byte	0x4b
 7180 0743 7C010000 		.4byte	0x17c
 7181 0747 02       		.byte	0x2
 7182 0748 23       		.byte	0x23
 7183 0749 4C       		.uleb128 0x4c
 7184 074a 00       		.byte	0x0
 7185 074b 05       		.uleb128 0x5
 7186 074c 04       		.byte	0x4
 7187 074d 54050000 		.4byte	0x554
 7188 0751 0A       		.uleb128 0xa
 7189 0752 45080000 		.4byte	.LASF99
 7190 0756 0D       		.byte	0xd
ARM GAS  C:\DOCUME~1\TECHCO~1\LOCALS~1\Temp/ccQdbaaa.s 			page 147


 7191 0757 4D       		.byte	0x4d
 7192 0758 DD060000 		.4byte	0x6dd
 7193 075c 0A       		.uleb128 0xa
 7194 075d 85030000 		.4byte	.LASF105
 7195 0761 06       		.byte	0x6
 7196 0762 30       		.byte	0x30
 7197 0763 51070000 		.4byte	0x751
 7198 0767 0B       		.uleb128 0xb
 7199 0768 BE070000 		.4byte	0x7be
 7200 076c DE010000 		.4byte	.LASF106
 7201 0770 C402     		.2byte	0x2c4
 7202 0772 06       		.byte	0x6
 7203 0773 32       		.byte	0x32
 7204 0774 09       		.uleb128 0x9
 7205 0775 A5000000 		.4byte	.LASF107
 7206 0779 06       		.byte	0x6
 7207 077a 33       		.byte	0x33
 7208 077b A2010000 		.4byte	0x1a2
 7209 077f 02       		.byte	0x2
 7210 0780 23       		.byte	0x23
 7211 0781 00       		.uleb128 0x0
 7212 0782 09       		.uleb128 0x9
 7213 0783 96040000 		.4byte	.LASF108
 7214 0787 06       		.byte	0x6
 7215 0788 34       		.byte	0x34
 7216 0789 F8020000 		.4byte	0x2f8
 7217 078d 02       		.byte	0x2
 7218 078e 23       		.byte	0x23
 7219 078f 04       		.uleb128 0x4
 7220 0790 09       		.uleb128 0x9
 7221 0791 03090000 		.4byte	.LASF109
 7222 0795 06       		.byte	0x6
 7223 0796 35       		.byte	0x35
 7224 0797 CC030000 		.4byte	0x3cc
 7225 079b 03       		.byte	0x3
 7226 079c 23       		.byte	0x23
 7227 079d B404     		.uleb128 0x234
 7228 079f 09       		.uleb128 0x9
 7229 07a0 6D050000 		.4byte	.LASF110
 7230 07a4 06       		.byte	0x6
 7231 07a5 36       		.byte	0x36
 7232 07a6 06040000 		.4byte	0x406
 7233 07aa 03       		.byte	0x3
 7234 07ab 23       		.byte	0x23
 7235 07ac FC04     		.uleb128 0x27c
 7236 07ae 09       		.uleb128 0x9
 7237 07af 8E010000 		.4byte	.LASF111
 7238 07b3 06       		.byte	0x6
 7239 07b4 37       		.byte	0x37
 7240 07b5 54050000 		.4byte	0x554
 7241 07b9 03       		.byte	0x3
 7242 07ba 23       		.byte	0x23
 7243 07bb 8405     		.uleb128 0x284
 7244 07bd 00       		.byte	0x0
 7245 07be 0A       		.uleb128 0xa
 7246 07bf DE010000 		.4byte	.LASF106
 7247 07c3 06       		.byte	0x6
ARM GAS  C:\DOCUME~1\TECHCO~1\LOCALS~1\Temp/ccQdbaaa.s 			page 148


 7248 07c4 39       		.byte	0x39
 7249 07c5 67070000 		.4byte	0x767
 7250 07c9 07       		.uleb128 0x7
 7251 07ca 00080000 		.4byte	0x800
 7252 07ce 2D050000 		.4byte	.LASF112
 7253 07d2 14       		.byte	0x14
 7254 07d3 0E       		.byte	0xe
 7255 07d4 2B       		.byte	0x2b
 7256 07d5 09       		.uleb128 0x9
 7257 07d6 D2030000 		.4byte	.LASF87
 7258 07da 0E       		.byte	0xe
 7259 07db 2C       		.byte	0x2c
 7260 07dc 00080000 		.4byte	0x800
 7261 07e0 02       		.byte	0x2
 7262 07e1 23       		.byte	0x23
 7263 07e2 00       		.uleb128 0x0
 7264 07e3 09       		.uleb128 0x9
 7265 07e4 0D030000 		.4byte	.LASF98
 7266 07e8 0E       		.byte	0xe
 7267 07e9 2D       		.byte	0x2d
 7268 07ea 7C010000 		.4byte	0x17c
 7269 07ee 02       		.byte	0x2
 7270 07ef 23       		.byte	0x23
 7271 07f0 0C       		.uleb128 0xc
 7272 07f1 09       		.uleb128 0x9
 7273 07f2 A7050000 		.4byte	.LASF88
 7274 07f6 0E       		.byte	0xe
 7275 07f7 2E       		.byte	0x2e
 7276 07f8 50010000 		.4byte	0x150
 7277 07fc 02       		.byte	0x2
 7278 07fd 23       		.byte	0x23
 7279 07fe 10       		.uleb128 0x10
 7280 07ff 00       		.byte	0x0
 7281 0800 0C       		.uleb128 0xc
 7282 0801 10080000 		.4byte	0x810
 7283 0805 50010000 		.4byte	0x150
 7284 0809 0D       		.uleb128 0xd
 7285 080a 48000000 		.4byte	0x48
 7286 080e 0B       		.byte	0xb
 7287 080f 00       		.byte	0x0
 7288 0810 0A       		.uleb128 0xa
 7289 0811 2D050000 		.4byte	.LASF112
 7290 0815 0E       		.byte	0xe
 7291 0816 30       		.byte	0x30
 7292 0817 C9070000 		.4byte	0x7c9
 7293 081b 07       		.uleb128 0x7
 7294 081c 6D080000 		.4byte	0x86d
 7295 0820 49040000 		.4byte	.LASF113
 7296 0824 34       		.byte	0x34
 7297 0825 0E       		.byte	0xe
 7298 0826 32       		.byte	0x32
 7299 0827 08       		.uleb128 0x8
 7300 0828 667300   		.ascii	"fs\000"
 7301 082b 0E       		.byte	0xe
 7302 082c 33       		.byte	0x33
 7303 082d 4B070000 		.4byte	0x74b
 7304 0831 02       		.byte	0x2
ARM GAS  C:\DOCUME~1\TECHCO~1\LOCALS~1\Temp/ccQdbaaa.s 			page 149


 7305 0832 23       		.byte	0x23
 7306 0833 00       		.uleb128 0x0
 7307 0834 09       		.uleb128 0x9
 7308 0835 ED040000 		.4byte	.LASF114
 7309 0839 0E       		.byte	0xe
 7310 083a 34       		.byte	0x34
 7311 083b 5B010000 		.4byte	0x15b
 7312 083f 02       		.byte	0x2
 7313 0840 23       		.byte	0x23
 7314 0841 04       		.uleb128 0x4
 7315 0842 09       		.uleb128 0x9
 7316 0843 56050000 		.4byte	.LASF115
 7317 0847 0E       		.byte	0xe
 7318 0848 34       		.byte	0x34
 7319 0849 5B010000 		.4byte	0x15b
 7320 084d 02       		.byte	0x2
 7321 084e 23       		.byte	0x23
 7322 084f 06       		.uleb128 0x6
 7323 0850 09       		.uleb128 0x9
 7324 0851 F1050000 		.4byte	.LASF116
 7325 0855 0E       		.byte	0xe
 7326 0856 36       		.byte	0x36
 7327 0857 10080000 		.4byte	0x810
 7328 085b 02       		.byte	0x2
 7329 085c 23       		.byte	0x23
 7330 085d 08       		.uleb128 0x8
 7331 085e 09       		.uleb128 0x9
 7332 085f FB070000 		.4byte	.LASF102
 7333 0863 0E       		.byte	0xe
 7334 0864 37       		.byte	0x37
 7335 0865 02060000 		.4byte	0x602
 7336 0869 02       		.byte	0x2
 7337 086a 23       		.byte	0x23
 7338 086b 1C       		.uleb128 0x1c
 7339 086c 00       		.byte	0x0
 7340 086d 0A       		.uleb128 0xa
 7341 086e 49040000 		.4byte	.LASF113
 7342 0872 0E       		.byte	0xe
 7343 0873 39       		.byte	0x39
 7344 0874 1B080000 		.4byte	0x81b
 7345 0878 05       		.uleb128 0x5
 7346 0879 04       		.byte	0x4
 7347 087a 87000000 		.4byte	0x87
 7348 087e 07       		.uleb128 0x7
 7349 087f B5080000 		.4byte	0x8b5
 7350 0883 40040000 		.4byte	.LASF117
 7351 0887 0C       		.byte	0xc
 7352 0888 04       		.byte	0x4
 7353 0889 3B       		.byte	0x3b
 7354 088a 09       		.uleb128 0x9
 7355 088b 19050000 		.4byte	.LASF118
 7356 088f 04       		.byte	0x4
 7357 0890 3C       		.byte	0x3c
 7358 0891 9D000000 		.4byte	0x9d
 7359 0895 02       		.byte	0x2
 7360 0896 23       		.byte	0x23
 7361 0897 00       		.uleb128 0x0
ARM GAS  C:\DOCUME~1\TECHCO~1\LOCALS~1\Temp/ccQdbaaa.s 			page 150


 7362 0898 09       		.uleb128 0x9
 7363 0899 53020000 		.4byte	.LASF119
 7364 089d 04       		.byte	0x4
 7365 089e 3D       		.byte	0x3d
 7366 089f 9D000000 		.4byte	0x9d
 7367 08a3 02       		.byte	0x2
 7368 08a4 23       		.byte	0x23
 7369 08a5 04       		.uleb128 0x4
 7370 08a6 09       		.uleb128 0x9
 7371 08a7 26050000 		.4byte	.LASF120
 7372 08ab 04       		.byte	0x4
 7373 08ac 3E       		.byte	0x3e
 7374 08ad B5080000 		.4byte	0x8b5
 7375 08b1 02       		.byte	0x2
 7376 08b2 23       		.byte	0x23
 7377 08b3 08       		.uleb128 0x8
 7378 08b4 00       		.byte	0x0
 7379 08b5 05       		.uleb128 0x5
 7380 08b6 04       		.byte	0x4
 7381 08b7 3A010000 		.4byte	0x13a
 7382 08bb 0A       		.uleb128 0xa
 7383 08bc E4040000 		.4byte	.LASF121
 7384 08c0 04       		.byte	0x4
 7385 08c1 3F       		.byte	0x3f
 7386 08c2 7E080000 		.4byte	0x87e
 7387 08c6 07       		.uleb128 0x7
 7388 08c7 18090000 		.4byte	0x918
 7389 08cb FE050000 		.4byte	.LASF122
 7390 08cf 0C       		.byte	0xc
 7391 08d0 03       		.byte	0x3
 7392 08d1 23       		.byte	0x23
 7393 08d2 08       		.uleb128 0x8
 7394 08d3 696400   		.ascii	"id\000"
 7395 08d6 03       		.byte	0x3
 7396 08d7 24       		.byte	0x24
 7397 08d8 87000000 		.4byte	0x87
 7398 08dc 02       		.byte	0x2
 7399 08dd 23       		.byte	0x23
 7400 08de 00       		.uleb128 0x0
 7401 08df 09       		.uleb128 0x9
 7402 08e0 86040000 		.4byte	.LASF123
 7403 08e4 03       		.byte	0x3
 7404 08e5 25       		.byte	0x25
 7405 08e6 87000000 		.4byte	0x87
 7406 08ea 02       		.byte	0x2
 7407 08eb 23       		.byte	0x23
 7408 08ec 01       		.uleb128 0x1
 7409 08ed 09       		.uleb128 0x9
 7410 08ee 98090000 		.4byte	.LASF124
 7411 08f2 03       		.byte	0x3
 7412 08f3 26       		.byte	0x26
 7413 08f4 9D000000 		.4byte	0x9d
 7414 08f8 02       		.byte	0x2
 7415 08f9 23       		.byte	0x23
 7416 08fa 02       		.uleb128 0x2
 7417 08fb 09       		.uleb128 0x9
 7418 08fc 0F090000 		.4byte	.LASF125
ARM GAS  C:\DOCUME~1\TECHCO~1\LOCALS~1\Temp/ccQdbaaa.s 			page 151


 7419 0900 03       		.byte	0x3
 7420 0901 27       		.byte	0x27
 7421 0902 87000000 		.4byte	0x87
 7422 0906 02       		.byte	0x2
 7423 0907 23       		.byte	0x23
 7424 0908 06       		.uleb128 0x6
 7425 0909 09       		.uleb128 0x9
 7426 090a 16030000 		.4byte	.LASF126
 7427 090e 03       		.byte	0x3
 7428 090f 28       		.byte	0x28
 7429 0910 9D000000 		.4byte	0x9d
 7430 0914 02       		.byte	0x2
 7431 0915 23       		.byte	0x23
 7432 0916 07       		.uleb128 0x7
 7433 0917 00       		.byte	0x0
 7434 0918 0A       		.uleb128 0xa
 7435 0919 5A0A0000 		.4byte	.LASF127
 7436 091d 03       		.byte	0x3
 7437 091e 29       		.byte	0x29
 7438 091f C6080000 		.4byte	0x8c6
 7439 0923 07       		.uleb128 0x7
 7440 0924 92090000 		.4byte	0x992
 7441 0928 67070000 		.4byte	.LASF128
 7442 092c 08       		.byte	0x8
 7443 092d 03       		.byte	0x3
 7444 092e 2B       		.byte	0x2b
 7445 092f 09       		.uleb128 0x9
 7446 0930 66050000 		.4byte	.LASF129
 7447 0934 03       		.byte	0x3
 7448 0935 2C       		.byte	0x2c
 7449 0936 87000000 		.4byte	0x87
 7450 093a 02       		.byte	0x2
 7451 093b 23       		.byte	0x23
 7452 093c 00       		.uleb128 0x0
 7453 093d 09       		.uleb128 0x9
 7454 093e 82080000 		.4byte	.LASF130
 7455 0942 03       		.byte	0x3
 7456 0943 2D       		.byte	0x2d
 7457 0944 87000000 		.4byte	0x87
 7458 0948 02       		.byte	0x2
 7459 0949 23       		.byte	0x23
 7460 094a 01       		.uleb128 0x1
 7461 094b 09       		.uleb128 0x9
 7462 094c BE050000 		.4byte	.LASF131
 7463 0950 03       		.byte	0x3
 7464 0951 2E       		.byte	0x2e
 7465 0952 87000000 		.4byte	0x87
 7466 0956 02       		.byte	0x2
 7467 0957 23       		.byte	0x23
 7468 0958 02       		.uleb128 0x2
 7469 0959 09       		.uleb128 0x9
 7470 095a C7060000 		.4byte	.LASF132
 7471 095e 03       		.byte	0x3
 7472 095f 2F       		.byte	0x2f
 7473 0960 87000000 		.4byte	0x87
 7474 0964 02       		.byte	0x2
 7475 0965 23       		.byte	0x23
ARM GAS  C:\DOCUME~1\TECHCO~1\LOCALS~1\Temp/ccQdbaaa.s 			page 152


 7476 0966 03       		.uleb128 0x3
 7477 0967 09       		.uleb128 0x9
 7478 0968 9D080000 		.4byte	.LASF133
 7479 096c 03       		.byte	0x3
 7480 096d 30       		.byte	0x30
 7481 096e 87000000 		.4byte	0x87
 7482 0972 02       		.byte	0x2
 7483 0973 23       		.byte	0x23
 7484 0974 04       		.uleb128 0x4
 7485 0975 09       		.uleb128 0x9
 7486 0976 65090000 		.4byte	.LASF134
 7487 097a 03       		.byte	0x3
 7488 097b 31       		.byte	0x31
 7489 097c 87000000 		.4byte	0x87
 7490 0980 02       		.byte	0x2
 7491 0981 23       		.byte	0x23
 7492 0982 05       		.uleb128 0x5
 7493 0983 09       		.uleb128 0x9
 7494 0984 EE080000 		.4byte	.LASF135
 7495 0988 03       		.byte	0x3
 7496 0989 32       		.byte	0x32
 7497 098a 87000000 		.4byte	0x87
 7498 098e 02       		.byte	0x2
 7499 098f 23       		.byte	0x23
 7500 0990 06       		.uleb128 0x6
 7501 0991 00       		.byte	0x0
 7502 0992 0A       		.uleb128 0xa
 7503 0993 18000000 		.4byte	.LASF136
 7504 0997 03       		.byte	0x3
 7505 0998 33       		.byte	0x33
 7506 0999 23090000 		.4byte	0x923
 7507 099d 07       		.uleb128 0x7
 7508 099e E1090000 		.4byte	0x9e1
 7509 09a2 63080000 		.4byte	.LASF137
 7510 09a6 08       		.byte	0x8
 7511 09a7 03       		.byte	0x3
 7512 09a8 35       		.byte	0x35
 7513 09a9 08       		.uleb128 0x8
 7514 09aa 696400   		.ascii	"id\000"
 7515 09ad 03       		.byte	0x3
 7516 09ae 36       		.byte	0x36
 7517 09af 87000000 		.4byte	0x87
 7518 09b3 02       		.byte	0x2
 7519 09b4 23       		.byte	0x23
 7520 09b5 00       		.uleb128 0x0
 7521 09b6 09       		.uleb128 0x9
 7522 09b7 B3060000 		.4byte	.LASF138
 7523 09bb 03       		.byte	0x3
 7524 09bc 37       		.byte	0x37
 7525 09bd 87000000 		.4byte	0x87
 7526 09c1 02       		.byte	0x2
 7527 09c2 23       		.byte	0x23
 7528 09c3 01       		.uleb128 0x1
 7529 09c4 09       		.uleb128 0x9
 7530 09c5 830A0000 		.4byte	.LASF139
 7531 09c9 03       		.byte	0x3
 7532 09ca 38       		.byte	0x38
ARM GAS  C:\DOCUME~1\TECHCO~1\LOCALS~1\Temp/ccQdbaaa.s 			page 153


 7533 09cb 87000000 		.4byte	0x87
 7534 09cf 02       		.byte	0x2
 7535 09d0 23       		.byte	0x23
 7536 09d1 02       		.uleb128 0x2
 7537 09d2 09       		.uleb128 0x9
 7538 09d3 6A010000 		.4byte	.LASF140
 7539 09d7 03       		.byte	0x3
 7540 09d8 39       		.byte	0x39
 7541 09d9 E1090000 		.4byte	0x9e1
 7542 09dd 02       		.byte	0x2
 7543 09de 23       		.byte	0x23
 7544 09df 03       		.uleb128 0x3
 7545 09e0 00       		.byte	0x0
 7546 09e1 05       		.uleb128 0x5
 7547 09e2 04       		.byte	0x4
 7548 09e3 92090000 		.4byte	0x992
 7549 09e7 0A       		.uleb128 0xa
 7550 09e8 60060000 		.4byte	.LASF141
 7551 09ec 03       		.byte	0x3
 7552 09ed 3A       		.byte	0x3a
 7553 09ee 9D090000 		.4byte	0x99d
 7554 09f2 07       		.uleb128 0x7
 7555 09f3 370A0000 		.4byte	0xa37
 7556 09f7 060A0000 		.4byte	.LASF142
 7557 09fb 10       		.byte	0x10
 7558 09fc 03       		.byte	0x3
 7559 09fd 3C       		.byte	0x3c
 7560 09fe 09       		.uleb128 0x9
 7561 09ff 22000000 		.4byte	.LASF143
 7562 0a03 03       		.byte	0x3
 7563 0a04 3D       		.byte	0x3d
 7564 0a05 87000000 		.4byte	0x87
 7565 0a09 02       		.byte	0x2
 7566 0a0a 23       		.byte	0x23
 7567 0a0b 00       		.uleb128 0x0
 7568 0a0c 09       		.uleb128 0x9
 7569 0a0d 92030000 		.4byte	.LASF144
 7570 0a11 03       		.byte	0x3
 7571 0a12 3E       		.byte	0x3e
 7572 0a13 370A0000 		.4byte	0xa37
 7573 0a17 02       		.byte	0x2
 7574 0a18 23       		.byte	0x23
 7575 0a19 01       		.uleb128 0x1
 7576 0a1a 09       		.uleb128 0x9
 7577 0a1b 1C010000 		.4byte	.LASF145
 7578 0a1f 03       		.byte	0x3
 7579 0a20 3F       		.byte	0x3f
 7580 0a21 9D000000 		.4byte	0x9d
 7581 0a25 02       		.byte	0x2
 7582 0a26 23       		.byte	0x23
 7583 0a27 05       		.uleb128 0x5
 7584 0a28 09       		.uleb128 0x9
 7585 0a29 B7050000 		.4byte	.LASF146
 7586 0a2d 03       		.byte	0x3
 7587 0a2e 40       		.byte	0x40
 7588 0a2f 3D0A0000 		.4byte	0xa3d
 7589 0a33 02       		.byte	0x2
ARM GAS  C:\DOCUME~1\TECHCO~1\LOCALS~1\Temp/ccQdbaaa.s 			page 154


 7590 0a34 23       		.byte	0x23
 7591 0a35 09       		.uleb128 0x9
 7592 0a36 00       		.byte	0x0
 7593 0a37 05       		.uleb128 0x5
 7594 0a38 04       		.byte	0x4
 7595 0a39 E7090000 		.4byte	0x9e7
 7596 0a3d 05       		.uleb128 0x5
 7597 0a3e 04       		.byte	0x4
 7598 0a3f 18090000 		.4byte	0x918
 7599 0a43 0A       		.uleb128 0xa
 7600 0a44 55070000 		.4byte	.LASF147
 7601 0a48 03       		.byte	0x3
 7602 0a49 41       		.byte	0x41
 7603 0a4a F2090000 		.4byte	0x9f2
 7604 0a4e 07       		.uleb128 0x7
 7605 0a4f 930A0000 		.4byte	0xa93
 7606 0a53 E9000000 		.4byte	.LASF148
 7607 0a57 0C       		.byte	0xc
 7608 0a58 10       		.byte	0x10
 7609 0a59 2A       		.byte	0x2a
 7610 0a5a 09       		.uleb128 0x9
 7611 0a5b DD050000 		.4byte	.LASF149
 7612 0a5f 10       		.byte	0x10
 7613 0a60 2B       		.byte	0x2b
 7614 0a61 58000000 		.4byte	0x58
 7615 0a65 02       		.byte	0x2
 7616 0a66 23       		.byte	0x23
 7617 0a67 00       		.uleb128 0x0
 7618 0a68 09       		.uleb128 0x9
 7619 0a69 74050000 		.4byte	.LASF150
 7620 0a6d 10       		.byte	0x10
 7621 0a6e 2C       		.byte	0x2c
 7622 0a6f 72000000 		.4byte	0x72
 7623 0a73 02       		.byte	0x2
 7624 0a74 23       		.byte	0x23
 7625 0a75 04       		.uleb128 0x4
 7626 0a76 09       		.uleb128 0x9
 7627 0a77 AD070000 		.4byte	.LASF151
 7628 0a7b 10       		.byte	0x10
 7629 0a7c 2D       		.byte	0x2d
 7630 0a7d 72000000 		.4byte	0x72
 7631 0a81 02       		.byte	0x2
 7632 0a82 23       		.byte	0x23
 7633 0a83 06       		.uleb128 0x6
 7634 0a84 09       		.uleb128 0x9
 7635 0a85 60000000 		.4byte	.LASF152
 7636 0a89 10       		.byte	0x10
 7637 0a8a 2E       		.byte	0x2e
 7638 0a8b 72000000 		.4byte	0x72
 7639 0a8f 02       		.byte	0x2
 7640 0a90 23       		.byte	0x23
 7641 0a91 08       		.uleb128 0x8
 7642 0a92 00       		.byte	0x0
 7643 0a93 0A       		.uleb128 0xa
 7644 0a94 FB080000 		.4byte	.LASF153
 7645 0a98 10       		.byte	0x10
 7646 0a99 2F       		.byte	0x2f
ARM GAS  C:\DOCUME~1\TECHCO~1\LOCALS~1\Temp/ccQdbaaa.s 			page 155


 7647 0a9a 4E0A0000 		.4byte	0xa4e
 7648 0a9e 0F       		.uleb128 0xf
 7649 0a9f ED0A0000 		.4byte	0xaed
 7650 0aa3 84       		.byte	0x84
 7651 0aa4 0F       		.byte	0xf
 7652 0aa5 22       		.byte	0x22
 7653 0aa6 08       		.uleb128 0x8
 7654 0aa7 696400   		.ascii	"id\000"
 7655 0aaa 0F       		.byte	0xf
 7656 0aab 23       		.byte	0x23
 7657 0aac 87000000 		.4byte	0x87
 7658 0ab0 02       		.byte	0x2
 7659 0ab1 23       		.byte	0x23
 7660 0ab2 00       		.uleb128 0x0
 7661 0ab3 09       		.uleb128 0x9
 7662 0ab4 5D050000 		.4byte	.LASF154
 7663 0ab8 0F       		.byte	0xf
 7664 0ab9 24       		.byte	0x24
 7665 0aba 87000000 		.4byte	0x87
 7666 0abe 02       		.byte	0x2
 7667 0abf 23       		.byte	0x23
 7668 0ac0 01       		.uleb128 0x1
 7669 0ac1 08       		.uleb128 0x8
 7670 0ac2 636D6400 		.ascii	"cmd\000"
 7671 0ac6 0F       		.byte	0xf
 7672 0ac7 25       		.byte	0x25
 7673 0ac8 87000000 		.4byte	0x87
 7674 0acc 02       		.byte	0x2
 7675 0acd 23       		.byte	0x23
 7676 0ace 02       		.uleb128 0x2
 7677 0acf 09       		.uleb128 0x9
 7678 0ad0 59000000 		.4byte	.LASF155
 7679 0ad4 0F       		.byte	0xf
 7680 0ad5 26       		.byte	0x26
 7681 0ad6 ED0A0000 		.4byte	0xaed
 7682 0ada 02       		.byte	0x2
 7683 0adb 23       		.byte	0x23
 7684 0adc 03       		.uleb128 0x3
 7685 0add 09       		.uleb128 0x9
 7686 0ade 20090000 		.4byte	.LASF156
 7687 0ae2 0F       		.byte	0xf
 7688 0ae3 27       		.byte	0x27
 7689 0ae4 87000000 		.4byte	0x87
 7690 0ae8 03       		.byte	0x3
 7691 0ae9 23       		.byte	0x23
 7692 0aea 8301     		.uleb128 0x83
 7693 0aec 00       		.byte	0x0
 7694 0aed 0C       		.uleb128 0xc
 7695 0aee FD0A0000 		.4byte	0xafd
 7696 0af2 87000000 		.4byte	0x87
 7697 0af6 0D       		.uleb128 0xd
 7698 0af7 48000000 		.4byte	0x48
 7699 0afb 7F       		.byte	0x7f
 7700 0afc 00       		.byte	0x0
 7701 0afd 0A       		.uleb128 0xa
 7702 0afe 66020000 		.4byte	.LASF157
 7703 0b02 0F       		.byte	0xf
ARM GAS  C:\DOCUME~1\TECHCO~1\LOCALS~1\Temp/ccQdbaaa.s 			page 156


 7704 0b03 28       		.byte	0x28
 7705 0b04 9E0A0000 		.4byte	0xa9e
 7706 0b08 10       		.uleb128 0x10
 7707 0b09 6D0B0000 		.4byte	0xb6d
 7708 0b0d 01       		.byte	0x1
 7709 0b0e 76010000 		.4byte	.LASF159
 7710 0b12 01       		.byte	0x1
 7711 0b13 1801     		.2byte	0x118
 7712 0b15 01       		.byte	0x1
 7713 0b16 2C000000 		.4byte	0x2c
 7714 0b1a 00000000 		.4byte	.LFB6
 7715 0b1e 58000000 		.4byte	.LFE6
 7716 0b22 00000000 		.4byte	.LLST0
 7717 0b26 11       		.uleb128 0x11
 7718 0b27 47030000 		.4byte	.LASF158
 7719 0b2b 01       		.byte	0x1
 7720 0b2c 1701     		.2byte	0x117
 7721 0b2e 87000000 		.4byte	0x87
 7722 0b32 1F000000 		.4byte	.LLST1
 7723 0b36 11       		.uleb128 0x11
 7724 0b37 59000000 		.4byte	.LASF155
 7725 0b3b 01       		.byte	0x1
 7726 0b3c 1701     		.2byte	0x117
 7727 0b3e 78080000 		.4byte	0x878
 7728 0b42 3D000000 		.4byte	.LLST2
 7729 0b46 12       		.uleb128 0x12
 7730 0b47 73756D00 		.ascii	"sum\000"
 7731 0b4b 01       		.byte	0x1
 7732 0b4c 1901     		.2byte	0x119
 7733 0b4e 2C000000 		.4byte	0x2c
 7734 0b52 01       		.byte	0x1
 7735 0b53 50       		.byte	0x50
 7736 0b54 13       		.uleb128 0x13
 7737 0b55 6900     		.ascii	"i\000"
 7738 0b57 01       		.byte	0x1
 7739 0b58 1A01     		.2byte	0x11a
 7740 0b5a 87000000 		.4byte	0x87
 7741 0b5e 5B000000 		.4byte	.LLST3
 7742 0b62 14       		.uleb128 0x14
 7743 0b63 6A00     		.ascii	"j\000"
 7744 0b65 01       		.byte	0x1
 7745 0b66 1A01     		.2byte	0x11a
 7746 0b68 87000000 		.4byte	0x87
 7747 0b6c 00       		.byte	0x0
 7748 0b6d 15       		.uleb128 0x15
 7749 0b6e C60B0000 		.4byte	0xbc6
 7750 0b72 01       		.byte	0x1
 7751 0b73 F8000000 		.4byte	.LASF160
 7752 0b77 01       		.byte	0x1
 7753 0b78 4901     		.2byte	0x149
 7754 0b7a 01       		.byte	0x1
 7755 0b7b 2C000000 		.4byte	0x2c
 7756 0b7f 58000000 		.4byte	.LFB8
 7757 0b83 64010000 		.4byte	.LFE8
 7758 0b87 01       		.byte	0x1
 7759 0b88 5D       		.byte	0x5d
 7760 0b89 11       		.uleb128 0x11
ARM GAS  C:\DOCUME~1\TECHCO~1\LOCALS~1\Temp/ccQdbaaa.s 			page 157


 7761 0b8a 59000000 		.4byte	.LASF155
 7762 0b8e 01       		.byte	0x1
 7763 0b8f 4801     		.2byte	0x148
 7764 0b91 78080000 		.4byte	0x878
 7765 0b95 79000000 		.4byte	.LLST5
 7766 0b99 16       		.uleb128 0x16
 7767 0b9a 62070000 		.4byte	.LASF161
 7768 0b9e 01       		.byte	0x1
 7769 0b9f 4801     		.2byte	0x148
 7770 0ba1 78080000 		.4byte	0x878
 7771 0ba5 01       		.byte	0x1
 7772 0ba6 51       		.byte	0x51
 7773 0ba7 17       		.uleb128 0x17
 7774 0ba8 70696E00 		.ascii	"pin\000"
 7775 0bac 01       		.byte	0x1
 7776 0bad 4801     		.2byte	0x148
 7777 0baf 78080000 		.4byte	0x878
 7778 0bb3 01       		.byte	0x1
 7779 0bb4 52       		.byte	0x52
 7780 0bb5 18       		.uleb128 0x18
 7781 0bb6 A6020000 		.4byte	.LASF162
 7782 0bba 01       		.byte	0x1
 7783 0bbb 4A01     		.2byte	0x14a
 7784 0bbd 87000000 		.4byte	0x87
 7785 0bc1 C3000000 		.4byte	.LLST6
 7786 0bc5 00       		.byte	0x0
 7787 0bc6 10       		.uleb128 0x10
 7788 0bc7 3D0C0000 		.4byte	0xc3d
 7789 0bcb 01       		.byte	0x1
 7790 0bcc 320A0000 		.4byte	.LASF163
 7791 0bd0 01       		.byte	0x1
 7792 0bd1 3B02     		.2byte	0x23b
 7793 0bd3 01       		.byte	0x1
 7794 0bd4 2C000000 		.4byte	0x2c
 7795 0bd8 64010000 		.4byte	.LFB18
 7796 0bdc E0010000 		.4byte	.LFE18
 7797 0be0 0D010000 		.4byte	.LLST7
 7798 0be4 11       		.uleb128 0x11
 7799 0be5 AD060000 		.4byte	.LASF164
 7800 0be9 01       		.byte	0x1
 7801 0bea 3A02     		.2byte	0x23a
 7802 0bec 3D0C0000 		.4byte	0xc3d
 7803 0bf0 2C010000 		.4byte	.LLST8
 7804 0bf4 17       		.uleb128 0x17
 7805 0bf5 696400   		.ascii	"id\000"
 7806 0bf8 01       		.byte	0x1
 7807 0bf9 3A02     		.2byte	0x23a
 7808 0bfb 87000000 		.4byte	0x87
 7809 0bff 01       		.byte	0x1
 7810 0c00 51       		.byte	0x51
 7811 0c01 11       		.uleb128 0x11
 7812 0c02 5D050000 		.4byte	.LASF154
 7813 0c06 01       		.byte	0x1
 7814 0c07 3A02     		.2byte	0x23a
 7815 0c09 87000000 		.4byte	0x87
 7816 0c0d 4A010000 		.4byte	.LLST9
 7817 0c11 11       		.uleb128 0x11
ARM GAS  C:\DOCUME~1\TECHCO~1\LOCALS~1\Temp/ccQdbaaa.s 			page 158


 7818 0c12 0F090000 		.4byte	.LASF125
 7819 0c16 01       		.byte	0x1
 7820 0c17 3A02     		.2byte	0x23a
 7821 0c19 87000000 		.4byte	0x87
 7822 0c1d 68010000 		.4byte	.LLST10
 7823 0c21 16       		.uleb128 0x16
 7824 0c22 E9060000 		.4byte	.LASF165
 7825 0c26 01       		.byte	0x1
 7826 0c27 3A02     		.2byte	0x23a
 7827 0c29 3D0A0000 		.4byte	0xa3d
 7828 0c2d 02       		.byte	0x2
 7829 0c2e 91       		.byte	0x91
 7830 0c2f 00       		.sleb128 0
 7831 0c30 12       		.uleb128 0x12
 7832 0c31 6900     		.ascii	"i\000"
 7833 0c33 01       		.byte	0x1
 7834 0c34 3C02     		.2byte	0x23c
 7835 0c36 2C000000 		.4byte	0x2c
 7836 0c3a 01       		.byte	0x1
 7837 0c3b 52       		.byte	0x52
 7838 0c3c 00       		.byte	0x0
 7839 0c3d 05       		.uleb128 0x5
 7840 0c3e 04       		.byte	0x4
 7841 0c3f 430A0000 		.4byte	0xa43
 7842 0c43 10       		.uleb128 0x10
 7843 0c44 8B0C0000 		.4byte	0xc8b
 7844 0c48 01       		.byte	0x1
 7845 0c49 2A0A0000 		.4byte	.LASF166
 7846 0c4d 01       		.byte	0x1
 7847 0c4e 4C02     		.2byte	0x24c
 7848 0c50 01       		.byte	0x1
 7849 0c51 370A0000 		.4byte	0xa37
 7850 0c55 E0010000 		.4byte	.LFB19
 7851 0c59 44020000 		.4byte	.LFE19
 7852 0c5d 86010000 		.4byte	.LLST11
 7853 0c61 11       		.uleb128 0x11
 7854 0c62 AD060000 		.4byte	.LASF164
 7855 0c66 01       		.byte	0x1
 7856 0c67 4B02     		.2byte	0x24b
 7857 0c69 3D0C0000 		.4byte	0xc3d
 7858 0c6d A5010000 		.4byte	.LLST12
 7859 0c71 17       		.uleb128 0x17
 7860 0c72 696400   		.ascii	"id\000"
 7861 0c75 01       		.byte	0x1
 7862 0c76 4B02     		.2byte	0x24b
 7863 0c78 87000000 		.4byte	0x87
 7864 0c7c 01       		.byte	0x1
 7865 0c7d 51       		.byte	0x51
 7866 0c7e 12       		.uleb128 0x12
 7867 0c7f 6900     		.ascii	"i\000"
 7868 0c81 01       		.byte	0x1
 7869 0c82 4D02     		.2byte	0x24d
 7870 0c84 2C000000 		.4byte	0x2c
 7871 0c88 01       		.byte	0x1
 7872 0c89 52       		.byte	0x52
 7873 0c8a 00       		.byte	0x0
 7874 0c8b 10       		.uleb128 0x10
ARM GAS  C:\DOCUME~1\TECHCO~1\LOCALS~1\Temp/ccQdbaaa.s 			page 159


 7875 0c8c E60C0000 		.4byte	0xce6
 7876 0c90 01       		.byte	0x1
 7877 0c91 6A000000 		.4byte	.LASF167
 7878 0c95 01       		.byte	0x1
 7879 0c96 5902     		.2byte	0x259
 7880 0c98 01       		.byte	0x1
 7881 0c99 3D0A0000 		.4byte	0xa3d
 7882 0c9d 44020000 		.4byte	.LFB20
 7883 0ca1 AC020000 		.4byte	.LFE20
 7884 0ca5 C3010000 		.4byte	.LLST13
 7885 0ca9 11       		.uleb128 0x11
 7886 0caa AD060000 		.4byte	.LASF164
 7887 0cae 01       		.byte	0x1
 7888 0caf 5802     		.2byte	0x258
 7889 0cb1 3D0C0000 		.4byte	0xc3d
 7890 0cb5 E2010000 		.4byte	.LLST14
 7891 0cb9 11       		.uleb128 0x11
 7892 0cba EC050000 		.4byte	.LASF168
 7893 0cbe 01       		.byte	0x1
 7894 0cbf 5802     		.2byte	0x258
 7895 0cc1 370A0000 		.4byte	0xa37
 7896 0cc5 00020000 		.4byte	.LLST15
 7897 0cc9 11       		.uleb128 0x11
 7898 0cca 0F090000 		.4byte	.LASF125
 7899 0cce 01       		.byte	0x1
 7900 0ccf 5802     		.2byte	0x258
 7901 0cd1 87000000 		.4byte	0x87
 7902 0cd5 1E020000 		.4byte	.LLST16
 7903 0cd9 12       		.uleb128 0x12
 7904 0cda 6900     		.ascii	"i\000"
 7905 0cdc 01       		.byte	0x1
 7906 0cdd 5A02     		.2byte	0x25a
 7907 0cdf 2C000000 		.4byte	0x2c
 7908 0ce3 01       		.byte	0x1
 7909 0ce4 5C       		.byte	0x5c
 7910 0ce5 00       		.byte	0x0
 7911 0ce6 10       		.uleb128 0x10
 7912 0ce7 2F0D0000 		.4byte	0xd2f
 7913 0ceb 01       		.byte	0x1
 7914 0cec 51040000 		.4byte	.LASF169
 7915 0cf0 01       		.byte	0x1
 7916 0cf1 6802     		.2byte	0x268
 7917 0cf3 01       		.byte	0x1
 7918 0cf4 E1090000 		.4byte	0x9e1
 7919 0cf8 AC020000 		.4byte	.LFB21
 7920 0cfc 0C030000 		.4byte	.LFE21
 7921 0d00 3C020000 		.4byte	.LLST17
 7922 0d04 11       		.uleb128 0x11
 7923 0d05 EC050000 		.4byte	.LASF168
 7924 0d09 01       		.byte	0x1
 7925 0d0a 6702     		.2byte	0x267
 7926 0d0c 370A0000 		.4byte	0xa37
 7927 0d10 5B020000 		.4byte	.LLST18
 7928 0d14 16       		.uleb128 0x16
 7929 0d15 BE050000 		.4byte	.LASF131
 7930 0d19 01       		.byte	0x1
 7931 0d1a 6702     		.2byte	0x267
ARM GAS  C:\DOCUME~1\TECHCO~1\LOCALS~1\Temp/ccQdbaaa.s 			page 160


 7932 0d1c 87000000 		.4byte	0x87
 7933 0d20 01       		.byte	0x1
 7934 0d21 51       		.byte	0x51
 7935 0d22 12       		.uleb128 0x12
 7936 0d23 6900     		.ascii	"i\000"
 7937 0d25 01       		.byte	0x1
 7938 0d26 6902     		.2byte	0x269
 7939 0d28 2C000000 		.4byte	0x2c
 7940 0d2c 01       		.byte	0x1
 7941 0d2d 52       		.byte	0x52
 7942 0d2e 00       		.byte	0x0
 7943 0d2f 10       		.uleb128 0x10
 7944 0d30 7A0D0000 		.4byte	0xd7a
 7945 0d34 01       		.byte	0x1
 7946 0d35 2E040000 		.4byte	.LASF170
 7947 0d39 01       		.byte	0x1
 7948 0d3a C602     		.2byte	0x2c6
 7949 0d3c 01       		.byte	0x1
 7950 0d3d 2C000000 		.4byte	0x2c
 7951 0d41 0C030000 		.4byte	.LFB24
 7952 0d45 34040000 		.4byte	.LFE24
 7953 0d49 79020000 		.4byte	.LLST19
 7954 0d4d 11       		.uleb128 0x11
 7955 0d4e 3D030000 		.4byte	.LASF171
 7956 0d52 01       		.byte	0x1
 7957 0d53 C502     		.2byte	0x2c5
 7958 0d55 87000000 		.4byte	0x87
 7959 0d59 98020000 		.4byte	.LLST20
 7960 0d5d 16       		.uleb128 0x16
 7961 0d5e 5C020000 		.4byte	.LASF172
 7962 0d62 01       		.byte	0x1
 7963 0d63 C502     		.2byte	0x2c5
 7964 0d65 87000000 		.4byte	0x87
 7965 0d69 01       		.byte	0x1
 7966 0d6a 51       		.byte	0x51
 7967 0d6b 16       		.uleb128 0x16
 7968 0d6c B0040000 		.4byte	.LASF173
 7969 0d70 01       		.byte	0x1
 7970 0d71 C502     		.2byte	0x2c5
 7971 0d73 78080000 		.4byte	0x878
 7972 0d77 01       		.byte	0x1
 7973 0d78 52       		.byte	0x52
 7974 0d79 00       		.byte	0x0
 7975 0d7a 15       		.uleb128 0x15
 7976 0d7b E10D0000 		.4byte	0xde1
 7977 0d7f 01       		.byte	0x1
 7978 0d80 A9030000 		.4byte	.LASF174
 7979 0d84 01       		.byte	0x1
 7980 0d85 A303     		.2byte	0x3a3
 7981 0d87 01       		.byte	0x1
 7982 0d88 87000000 		.4byte	0x87
 7983 0d8c 34040000 		.4byte	.LFB29
 7984 0d90 6C040000 		.4byte	.LFE29
 7985 0d94 01       		.byte	0x1
 7986 0d95 5D       		.byte	0x5d
 7987 0d96 19       		.uleb128 0x19
 7988 0d97 62756600 		.ascii	"buf\000"
ARM GAS  C:\DOCUME~1\TECHCO~1\LOCALS~1\Temp/ccQdbaaa.s 			page 161


 7989 0d9b 01       		.byte	0x1
 7990 0d9c A203     		.2byte	0x3a2
 7991 0d9e 56000000 		.4byte	0x56
 7992 0da2 CC020000 		.4byte	.LLST22
 7993 0da6 11       		.uleb128 0x11
 7994 0da7 74050000 		.4byte	.LASF150
 7995 0dab 01       		.byte	0x1
 7996 0dac A203     		.2byte	0x3a2
 7997 0dae 87000000 		.4byte	0x87
 7998 0db2 EA020000 		.4byte	.LLST23
 7999 0db6 12       		.uleb128 0x12
 8000 0db7 6900     		.ascii	"i\000"
 8001 0db9 01       		.byte	0x1
 8002 0dba A403     		.2byte	0x3a4
 8003 0dbc 2C000000 		.4byte	0x2c
 8004 0dc0 01       		.byte	0x1
 8005 0dc1 52       		.byte	0x52
 8006 0dc2 12       		.uleb128 0x12
 8007 0dc3 73756D00 		.ascii	"sum\000"
 8008 0dc7 01       		.byte	0x1
 8009 0dc8 A503     		.2byte	0x3a5
 8010 0dca 87000000 		.4byte	0x87
 8011 0dce 01       		.byte	0x1
 8012 0dcf 5C       		.byte	0x5c
 8013 0dd0 18       		.uleb128 0x18
 8014 0dd1 4D020000 		.4byte	.LASF175
 8015 0dd5 01       		.byte	0x1
 8016 0dd6 A603     		.2byte	0x3a6
 8017 0dd8 58000000 		.4byte	0x58
 8018 0ddc FD020000 		.4byte	.LLST24
 8019 0de0 00       		.byte	0x0
 8020 0de1 10       		.uleb128 0x10
 8021 0de2 260E0000 		.4byte	0xe26
 8022 0de6 01       		.byte	0x1
 8023 0de7 A60A0000 		.4byte	.LASF176
 8024 0deb 01       		.byte	0x1
 8025 0dec B303     		.2byte	0x3b3
 8026 0dee 01       		.byte	0x1
 8027 0def 87000000 		.4byte	0x87
 8028 0df3 6C040000 		.4byte	.LFB30
 8029 0df7 50050000 		.4byte	.LFE30
 8030 0dfb 10030000 		.4byte	.LLST25
 8031 0dff 12       		.uleb128 0x12
 8032 0e00 6900     		.ascii	"i\000"
 8033 0e02 01       		.byte	0x1
 8034 0e03 B403     		.2byte	0x3b4
 8035 0e05 87000000 		.4byte	0x87
 8036 0e09 01       		.byte	0x1
 8037 0e0a 5A       		.byte	0x5a
 8038 0e0b 12       		.uleb128 0x12
 8039 0e0c 6A00     		.ascii	"j\000"
 8040 0e0e 01       		.byte	0x1
 8041 0e0f B403     		.2byte	0x3b4
 8042 0e11 87000000 		.4byte	0x87
 8043 0e15 01       		.byte	0x1
 8044 0e16 54       		.byte	0x54
 8045 0e17 12       		.uleb128 0x12
ARM GAS  C:\DOCUME~1\TECHCO~1\LOCALS~1\Temp/ccQdbaaa.s 			page 162


 8046 0e18 73756D00 		.ascii	"sum\000"
 8047 0e1c 01       		.byte	0x1
 8048 0e1d B503     		.2byte	0x3b5
 8049 0e1f 87000000 		.4byte	0x87
 8050 0e23 01       		.byte	0x1
 8051 0e24 55       		.byte	0x55
 8052 0e25 00       		.byte	0x0
 8053 0e26 10       		.uleb128 0x10
 8054 0e27 5F0E0000 		.4byte	0xe5f
 8055 0e2b 01       		.byte	0x1
 8056 0e2c 73070000 		.4byte	.LASF177
 8057 0e30 01       		.byte	0x1
 8058 0e31 C503     		.2byte	0x3c5
 8059 0e33 01       		.byte	0x1
 8060 0e34 87000000 		.4byte	0x87
 8061 0e38 50050000 		.4byte	.LFB31
 8062 0e3c E0050000 		.4byte	.LFE31
 8063 0e40 2F030000 		.4byte	.LLST26
 8064 0e44 12       		.uleb128 0x12
 8065 0e45 6900     		.ascii	"i\000"
 8066 0e47 01       		.byte	0x1
 8067 0e48 C603     		.2byte	0x3c6
 8068 0e4a 87000000 		.4byte	0x87
 8069 0e4e 01       		.byte	0x1
 8070 0e4f 54       		.byte	0x54
 8071 0e50 12       		.uleb128 0x12
 8072 0e51 73756D00 		.ascii	"sum\000"
 8073 0e55 01       		.byte	0x1
 8074 0e56 C703     		.2byte	0x3c7
 8075 0e58 87000000 		.4byte	0x87
 8076 0e5c 01       		.byte	0x1
 8077 0e5d 56       		.byte	0x56
 8078 0e5e 00       		.byte	0x0
 8079 0e5f 1A       		.uleb128 0x1a
 8080 0e60 8A0E0000 		.4byte	0xe8a
 8081 0e64 01       		.byte	0x1
 8082 0e65 B3010000 		.4byte	.LASF178
 8083 0e69 01       		.byte	0x1
 8084 0e6a D303     		.2byte	0x3d3
 8085 0e6c 01       		.byte	0x1
 8086 0e6d E0050000 		.4byte	.LFB32
 8087 0e71 9C070000 		.4byte	.LFE32
 8088 0e75 4E030000 		.4byte	.LLST27
 8089 0e79 11       		.uleb128 0x11
 8090 0e7a 1C030000 		.4byte	.LASF179
 8091 0e7e 01       		.byte	0x1
 8092 0e7f D203     		.2byte	0x3d2
 8093 0e81 2C000000 		.4byte	0x2c
 8094 0e85 6D030000 		.4byte	.LLST28
 8095 0e89 00       		.byte	0x0
 8096 0e8a 1A       		.uleb128 0x1a
 8097 0e8b B30E0000 		.4byte	0xeb3
 8098 0e8f 01       		.byte	0x1
 8099 0e90 44090000 		.4byte	.LASF180
 8100 0e94 01       		.byte	0x1
 8101 0e95 9803     		.2byte	0x398
 8102 0e97 01       		.byte	0x1
ARM GAS  C:\DOCUME~1\TECHCO~1\LOCALS~1\Temp/ccQdbaaa.s 			page 163


 8103 0e98 9C070000 		.4byte	.LFB28
 8104 0e9c 34080000 		.4byte	.LFE28
 8105 0ea0 3B040000 		.4byte	.LLST29
 8106 0ea4 13       		.uleb128 0x13
 8107 0ea5 6900     		.ascii	"i\000"
 8108 0ea7 01       		.byte	0x1
 8109 0ea8 9903     		.2byte	0x399
 8110 0eaa 2C000000 		.4byte	0x2c
 8111 0eae 5A040000 		.4byte	.LLST30
 8112 0eb2 00       		.byte	0x0
 8113 0eb3 10       		.uleb128 0x10
 8114 0eb4 1E0F0000 		.4byte	0xf1e
 8115 0eb8 01       		.byte	0x1
 8116 0eb9 00000000 		.4byte	.LASF181
 8117 0ebd 01       		.byte	0x1
 8118 0ebe 4A03     		.2byte	0x34a
 8119 0ec0 01       		.byte	0x1
 8120 0ec1 2C000000 		.4byte	0x2c
 8121 0ec5 34080000 		.4byte	.LFB27
 8122 0ec9 700D0000 		.4byte	.LFE27
 8123 0ecd 6D040000 		.4byte	.LLST31
 8124 0ed1 11       		.uleb128 0x11
 8125 0ed2 17090000 		.4byte	.LASF182
 8126 0ed6 01       		.byte	0x1
 8127 0ed7 4903     		.2byte	0x349
 8128 0ed9 65000000 		.4byte	0x65
 8129 0edd 98040000 		.4byte	.LLST32
 8130 0ee1 13       		.uleb128 0x13
 8131 0ee2 6900     		.ascii	"i\000"
 8132 0ee4 01       		.byte	0x1
 8133 0ee5 4B03     		.2byte	0x34b
 8134 0ee7 2C000000 		.4byte	0x2c
 8135 0eeb C1040000 		.4byte	.LLST33
 8136 0eef 13       		.uleb128 0x13
 8137 0ef0 6A00     		.ascii	"j\000"
 8138 0ef2 01       		.byte	0x1
 8139 0ef3 4B03     		.2byte	0x34b
 8140 0ef5 2C000000 		.4byte	0x2c
 8141 0ef9 EA040000 		.4byte	.LLST34
 8142 0efd 18       		.uleb128 0x18
 8143 0efe 770A0000 		.4byte	.LASF183
 8144 0f02 01       		.byte	0x1
 8145 0f03 4C03     		.2byte	0x34c
 8146 0f05 87000000 		.4byte	0x87
 8147 0f09 13050000 		.4byte	.LLST35
 8148 0f0d 18       		.uleb128 0x18
 8149 0f0e B4080000 		.4byte	.LASF184
 8150 0f12 01       		.byte	0x1
 8151 0f13 4C03     		.2byte	0x34c
 8152 0f15 87000000 		.4byte	0x87
 8153 0f19 4A050000 		.4byte	.LLST36
 8154 0f1d 00       		.byte	0x0
 8155 0f1e 10       		.uleb128 0x10
 8156 0f1f 970F0000 		.4byte	0xf97
 8157 0f23 01       		.byte	0x1
 8158 0f24 C7050000 		.4byte	.LASF185
 8159 0f28 01       		.byte	0x1
ARM GAS  C:\DOCUME~1\TECHCO~1\LOCALS~1\Temp/ccQdbaaa.s 			page 164


 8160 0f29 0703     		.2byte	0x307
 8161 0f2b 01       		.byte	0x1
 8162 0f2c 2C000000 		.4byte	0x2c
 8163 0f30 700D0000 		.4byte	.LFB26
 8164 0f34 18120000 		.4byte	.LFE26
 8165 0f38 98050000 		.4byte	.LLST37
 8166 0f3c 11       		.uleb128 0x11
 8167 0f3d 17090000 		.4byte	.LASF182
 8168 0f41 01       		.byte	0x1
 8169 0f42 0603     		.2byte	0x306
 8170 0f44 65000000 		.4byte	0x65
 8171 0f48 C3050000 		.4byte	.LLST38
 8172 0f4c 13       		.uleb128 0x13
 8173 0f4d 6900     		.ascii	"i\000"
 8174 0f4f 01       		.byte	0x1
 8175 0f50 0803     		.2byte	0x308
 8176 0f52 2C000000 		.4byte	0x2c
 8177 0f56 EC050000 		.4byte	.LLST39
 8178 0f5a 13       		.uleb128 0x13
 8179 0f5b 6A00     		.ascii	"j\000"
 8180 0f5d 01       		.byte	0x1
 8181 0f5e 0803     		.2byte	0x308
 8182 0f60 2C000000 		.4byte	0x2c
 8183 0f64 15060000 		.4byte	.LLST40
 8184 0f68 13       		.uleb128 0x13
 8185 0f69 72657400 		.ascii	"ret\000"
 8186 0f6d 01       		.byte	0x1
 8187 0f6e 0903     		.2byte	0x309
 8188 0f70 2C000000 		.4byte	0x2c
 8189 0f74 3E060000 		.4byte	.LLST41
 8190 0f78 1B       		.uleb128 0x1b
 8191 0f79 770A0000 		.4byte	.LASF183
 8192 0f7d 01       		.byte	0x1
 8193 0f7e 0A03     		.2byte	0x30a
 8194 0f80 87000000 		.4byte	0x87
 8195 0f84 02       		.byte	0x2
 8196 0f85 91       		.byte	0x91
 8197 0f86 77       		.sleb128 -9
 8198 0f87 1B       		.uleb128 0x1b
 8199 0f88 B4080000 		.4byte	.LASF184
 8200 0f8c 01       		.byte	0x1
 8201 0f8d 0B03     		.2byte	0x30b
 8202 0f8f 87000000 		.4byte	0x87
 8203 0f93 02       		.byte	0x2
 8204 0f94 91       		.byte	0x91
 8205 0f95 76       		.sleb128 -10
 8206 0f96 00       		.byte	0x0
 8207 0f97 10       		.uleb128 0x10
 8208 0f98 F80F0000 		.4byte	0xff8
 8209 0f9c 01       		.byte	0x1
 8210 0f9d 2C000000 		.4byte	.LASF186
 8211 0fa1 01       		.byte	0x1
 8212 0fa2 E802     		.2byte	0x2e8
 8213 0fa4 01       		.byte	0x1
 8214 0fa5 2C000000 		.4byte	0x2c
 8215 0fa9 18120000 		.4byte	.LFB25
 8216 0fad 0C130000 		.4byte	.LFE25
ARM GAS  C:\DOCUME~1\TECHCO~1\LOCALS~1\Temp/ccQdbaaa.s 			page 165


 8217 0fb1 9E060000 		.4byte	.LLST42
 8218 0fb5 11       		.uleb128 0x11
 8219 0fb6 AD060000 		.4byte	.LASF164
 8220 0fba 01       		.byte	0x1
 8221 0fbb E702     		.2byte	0x2e7
 8222 0fbd 3D0C0000 		.4byte	0xc3d
 8223 0fc1 BD060000 		.4byte	.LLST43
 8224 0fc5 12       		.uleb128 0x12
 8225 0fc6 6900     		.ascii	"i\000"
 8226 0fc8 01       		.byte	0x1
 8227 0fc9 E902     		.2byte	0x2e9
 8228 0fcb 2C000000 		.4byte	0x2c
 8229 0fcf 01       		.byte	0x1
 8230 0fd0 56       		.byte	0x56
 8231 0fd1 1C       		.uleb128 0x1c
 8232 0fd2 7A090000 		.4byte	.LASF187
 8233 0fd6 01       		.byte	0x1
 8234 0fd7 EA02     		.2byte	0x2ea
 8235 0fd9 2C000000 		.4byte	0x2c
 8236 0fdd 1D       		.uleb128 0x1d
 8237 0fde 54120000 		.4byte	.LBB2
 8238 0fe2 F4120000 		.4byte	.LBE2
 8239 0fe6 18       		.uleb128 0x18
 8240 0fe7 E9060000 		.4byte	.LASF165
 8241 0feb 01       		.byte	0x1
 8242 0fec F002     		.2byte	0x2f0
 8243 0fee 3D0A0000 		.4byte	0xa3d
 8244 0ff2 F1060000 		.4byte	.LLST44
 8245 0ff6 00       		.byte	0x0
 8246 0ff7 00       		.byte	0x0
 8247 0ff8 10       		.uleb128 0x10
 8248 0ff9 EF100000 		.4byte	0x10ef
 8249 0ffd 01       		.byte	0x1
 8250 0ffe 69080000 		.4byte	.LASF188
 8251 1002 01       		.byte	0x1
 8252 1003 8D02     		.2byte	0x28d
 8253 1005 01       		.byte	0x1
 8254 1006 2C000000 		.4byte	0x2c
 8255 100a 0C130000 		.4byte	.LFB23
 8256 100e 7C150000 		.4byte	.LFE23
 8257 1012 0F070000 		.4byte	.LLST45
 8258 1016 11       		.uleb128 0x11
 8259 1017 AD060000 		.4byte	.LASF164
 8260 101b 01       		.byte	0x1
 8261 101c 8A02     		.2byte	0x28a
 8262 101e 3D0C0000 		.4byte	0xc3d
 8263 1022 3A070000 		.4byte	.LLST46
 8264 1026 11       		.uleb128 0x11
 8265 1027 01080000 		.4byte	.LASF189
 8266 102b 01       		.byte	0x1
 8267 102c 8B02     		.2byte	0x28b
 8268 102e 87000000 		.4byte	0x87
 8269 1032 6E070000 		.4byte	.LLST47
 8270 1036 11       		.uleb128 0x11
 8271 1037 A8080000 		.4byte	.LASF190
 8272 103b 01       		.byte	0x1
 8273 103c 8B02     		.2byte	0x28b
ARM GAS  C:\DOCUME~1\TECHCO~1\LOCALS~1\Temp/ccQdbaaa.s 			page 166


 8274 103e 87000000 		.4byte	0x87
 8275 1042 8C070000 		.4byte	.LLST48
 8276 1046 11       		.uleb128 0x11
 8277 1047 2D010000 		.4byte	.LASF191
 8278 104b 01       		.byte	0x1
 8279 104c 8B02     		.2byte	0x28b
 8280 104e 87000000 		.4byte	0x87
 8281 1052 AA070000 		.4byte	.LLST49
 8282 1056 11       		.uleb128 0x11
 8283 1057 3D030000 		.4byte	.LASF171
 8284 105b 01       		.byte	0x1
 8285 105c 8B02     		.2byte	0x28b
 8286 105e 87000000 		.4byte	0x87
 8287 1062 C8070000 		.4byte	.LLST50
 8288 1066 11       		.uleb128 0x11
 8289 1067 08060000 		.4byte	.LASF192
 8290 106b 01       		.byte	0x1
 8291 106c 8C02     		.2byte	0x28c
 8292 106e 87000000 		.4byte	0x87
 8293 1072 E8070000 		.4byte	.LLST51
 8294 1076 11       		.uleb128 0x11
 8295 1077 05040000 		.4byte	.LASF193
 8296 107b 01       		.byte	0x1
 8297 107c 8C02     		.2byte	0x28c
 8298 107e 87000000 		.4byte	0x87
 8299 1082 07080000 		.4byte	.LLST52
 8300 1086 11       		.uleb128 0x11
 8301 1087 5D030000 		.4byte	.LASF194
 8302 108b 01       		.byte	0x1
 8303 108c 8C02     		.2byte	0x28c
 8304 108e 87000000 		.4byte	0x87
 8305 1092 26080000 		.4byte	.LLST53
 8306 1096 11       		.uleb128 0x11
 8307 1097 5C020000 		.4byte	.LASF172
 8308 109b 01       		.byte	0x1
 8309 109c 8C02     		.2byte	0x28c
 8310 109e 87000000 		.4byte	0x87
 8311 10a2 45080000 		.4byte	.LLST54
 8312 10a6 18       		.uleb128 0x18
 8313 10a7 B0040000 		.4byte	.LASF173
 8314 10ab 01       		.byte	0x1
 8315 10ac 8E02     		.2byte	0x28e
 8316 10ae 87000000 		.4byte	0x87
 8317 10b2 65080000 		.4byte	.LLST55
 8318 10b6 1B       		.uleb128 0x1b
 8319 10b7 48050000 		.4byte	.LASF195
 8320 10bb 01       		.byte	0x1
 8321 10bc 9302     		.2byte	0x293
 8322 10be 370A0000 		.4byte	0xa37
 8323 10c2 01       		.byte	0x1
 8324 10c3 54       		.byte	0x54
 8325 10c4 1B       		.uleb128 0x1b
 8326 10c5 CB020000 		.4byte	.LASF196
 8327 10c9 01       		.byte	0x1
 8328 10ca 9402     		.2byte	0x294
 8329 10cc 370A0000 		.4byte	0xa37
 8330 10d0 01       		.byte	0x1
ARM GAS  C:\DOCUME~1\TECHCO~1\LOCALS~1\Temp/ccQdbaaa.s 			page 167


 8331 10d1 55       		.byte	0x55
 8332 10d2 1C       		.uleb128 0x1c
 8333 10d3 DB060000 		.4byte	.LASF197
 8334 10d7 01       		.byte	0x1
 8335 10d8 AF02     		.2byte	0x2af
 8336 10da 87000000 		.4byte	0x87
 8337 10de 18       		.uleb128 0x18
 8338 10df DB030000 		.4byte	.LASF198
 8339 10e3 01       		.byte	0x1
 8340 10e4 B002     		.2byte	0x2b0
 8341 10e6 87000000 		.4byte	0x87
 8342 10ea 85080000 		.4byte	.LLST56
 8343 10ee 00       		.byte	0x0
 8344 10ef 10       		.uleb128 0x10
 8345 10f0 4B110000 		.4byte	0x114b
 8346 10f4 01       		.byte	0x1
 8347 10f5 6C020000 		.4byte	.LASF199
 8348 10f9 01       		.byte	0x1
 8349 10fa 7502     		.2byte	0x275
 8350 10fc 01       		.byte	0x1
 8351 10fd 2C000000 		.4byte	0x2c
 8352 1101 7C150000 		.4byte	.LFB22
 8353 1105 1C160000 		.4byte	.LFE22
 8354 1109 98080000 		.4byte	.LLST57
 8355 110d 11       		.uleb128 0x11
 8356 110e AD060000 		.4byte	.LASF164
 8357 1112 01       		.byte	0x1
 8358 1113 7402     		.2byte	0x274
 8359 1115 3D0C0000 		.4byte	0xc3d
 8360 1119 B7080000 		.4byte	.LLST58
 8361 111d 19       		.uleb128 0x19
 8362 111e 696400   		.ascii	"id\000"
 8363 1121 01       		.byte	0x1
 8364 1122 7402     		.2byte	0x274
 8365 1124 87000000 		.4byte	0x87
 8366 1128 D5080000 		.4byte	.LLST59
 8367 112c 11       		.uleb128 0x11
 8368 112d 5D050000 		.4byte	.LASF154
 8369 1131 01       		.byte	0x1
 8370 1132 7402     		.2byte	0x274
 8371 1134 87000000 		.4byte	0x87
 8372 1138 F3080000 		.4byte	.LLST60
 8373 113c 1B       		.uleb128 0x1b
 8374 113d 3D080000 		.4byte	.LASF200
 8375 1141 01       		.byte	0x1
 8376 1142 7F02     		.2byte	0x27f
 8377 1144 370A0000 		.4byte	0xa37
 8378 1148 01       		.byte	0x1
 8379 1149 52       		.byte	0x52
 8380 114a 00       		.byte	0x0
 8381 114b 10       		.uleb128 0x10
 8382 114c C7110000 		.4byte	0x11c7
 8383 1150 01       		.byte	0x1
 8384 1151 8C070000 		.4byte	.LASF201
 8385 1155 01       		.byte	0x1
 8386 1156 2702     		.2byte	0x227
 8387 1158 01       		.byte	0x1
ARM GAS  C:\DOCUME~1\TECHCO~1\LOCALS~1\Temp/ccQdbaaa.s 			page 168


 8388 1159 2C000000 		.4byte	0x2c
 8389 115d 1C160000 		.4byte	.LFB17
 8390 1161 14170000 		.4byte	.LFE17
 8391 1165 11090000 		.4byte	.LLST61
 8392 1169 11       		.uleb128 0x11
 8393 116a AD060000 		.4byte	.LASF164
 8394 116e 01       		.byte	0x1
 8395 116f 2602     		.2byte	0x226
 8396 1171 3D0C0000 		.4byte	0xc3d
 8397 1175 3C090000 		.4byte	.LLST62
 8398 1179 19       		.uleb128 0x19
 8399 117a 696400   		.ascii	"id\000"
 8400 117d 01       		.byte	0x1
 8401 117e 2602     		.2byte	0x226
 8402 1180 87000000 		.4byte	0x87
 8403 1184 5A090000 		.4byte	.LLST63
 8404 1188 11       		.uleb128 0x11
 8405 1189 5D050000 		.4byte	.LASF154
 8406 118d 01       		.byte	0x1
 8407 118e 2602     		.2byte	0x226
 8408 1190 87000000 		.4byte	0x87
 8409 1194 78090000 		.4byte	.LLST64
 8410 1198 11       		.uleb128 0x11
 8411 1199 0F090000 		.4byte	.LASF125
 8412 119d 01       		.byte	0x1
 8413 119e 2602     		.2byte	0x226
 8414 11a0 87000000 		.4byte	0x87
 8415 11a4 96090000 		.4byte	.LLST65
 8416 11a8 11       		.uleb128 0x11
 8417 11a9 16030000 		.4byte	.LASF126
 8418 11ad 01       		.byte	0x1
 8419 11ae 2602     		.2byte	0x226
 8420 11b0 9D000000 		.4byte	0x9d
 8421 11b4 B4090000 		.4byte	.LLST66
 8422 11b8 1B       		.uleb128 0x1b
 8423 11b9 66060000 		.4byte	.LASF202
 8424 11bd 01       		.byte	0x1
 8425 11be 2F02     		.2byte	0x22f
 8426 11c0 3D0A0000 		.4byte	0xa3d
 8427 11c4 01       		.byte	0x1
 8428 11c5 52       		.byte	0x52
 8429 11c6 00       		.byte	0x0
 8430 11c7 1A       		.uleb128 0x1a
 8431 11c8 EE110000 		.4byte	0x11ee
 8432 11cc 01       		.byte	0x1
 8433 11cd 40070000 		.4byte	.LASF203
 8434 11d1 01       		.byte	0x1
 8435 11d2 FC01     		.2byte	0x1fc
 8436 11d4 01       		.byte	0x1
 8437 11d5 14170000 		.4byte	.LFB15
 8438 11d9 C8170000 		.4byte	.LFE15
 8439 11dd D3090000 		.4byte	.LLST67
 8440 11e1 12       		.uleb128 0x12
 8441 11e2 6900     		.ascii	"i\000"
 8442 11e4 01       		.byte	0x1
 8443 11e5 0902     		.2byte	0x209
 8444 11e7 2C000000 		.4byte	0x2c
ARM GAS  C:\DOCUME~1\TECHCO~1\LOCALS~1\Temp/ccQdbaaa.s 			page 169


 8445 11eb 01       		.byte	0x1
 8446 11ec 54       		.byte	0x54
 8447 11ed 00       		.byte	0x0
 8448 11ee 10       		.uleb128 0x10
 8449 11ef 7B120000 		.4byte	0x127b
 8450 11f3 01       		.byte	0x1
 8451 11f4 E4020000 		.4byte	.LASF204
 8452 11f8 01       		.byte	0x1
 8453 11f9 D001     		.2byte	0x1d0
 8454 11fb 01       		.byte	0x1
 8455 11fc 2C000000 		.4byte	0x2c
 8456 1200 C8170000 		.4byte	.LFB14
 8457 1204 FC180000 		.4byte	.LFE14
 8458 1208 F2090000 		.4byte	.LLST68
 8459 120c 11       		.uleb128 0x11
 8460 120d E2090000 		.4byte	.LASF205
 8461 1211 01       		.byte	0x1
 8462 1212 CA01     		.2byte	0x1ca
 8463 1214 87000000 		.4byte	0x87
 8464 1218 1D0A0000 		.4byte	.LLST69
 8465 121c 11       		.uleb128 0x11
 8466 121d D2010000 		.4byte	.LASF206
 8467 1221 01       		.byte	0x1
 8468 1222 CB01     		.2byte	0x1cb
 8469 1224 87000000 		.4byte	0x87
 8470 1228 510A0000 		.4byte	.LLST70
 8471 122c 11       		.uleb128 0x11
 8472 122d 8C080000 		.4byte	.LASF207
 8473 1231 01       		.byte	0x1
 8474 1232 CC01     		.2byte	0x1cc
 8475 1234 87000000 		.4byte	0x87
 8476 1238 900A0000 		.4byte	.LLST71
 8477 123c 19       		.uleb128 0x19
 8478 123d 70696E00 		.ascii	"pin\000"
 8479 1241 01       		.byte	0x1
 8480 1242 CD01     		.2byte	0x1cd
 8481 1244 87000000 		.4byte	0x87
 8482 1248 C40A0000 		.4byte	.LLST72
 8483 124c 11       		.uleb128 0x11
 8484 124d E9060000 		.4byte	.LASF165
 8485 1251 01       		.byte	0x1
 8486 1252 CF01     		.2byte	0x1cf
 8487 1254 87000000 		.4byte	0x87
 8488 1258 0E0B0000 		.4byte	.LLST73
 8489 125c 18       		.uleb128 0x18
 8490 125d 59000000 		.4byte	.LASF155
 8491 1261 01       		.byte	0x1
 8492 1262 D101     		.2byte	0x1d1
 8493 1264 7B120000 		.4byte	0x127b
 8494 1268 500B0000 		.4byte	.LLST74
 8495 126c 13       		.uleb128 0x13
 8496 126d 6100     		.ascii	"a\000"
 8497 126f 01       		.byte	0x1
 8498 1270 E401     		.2byte	0x1e4
 8499 1272 9D000000 		.4byte	0x9d
 8500 1276 700B0000 		.4byte	.LLST75
 8501 127a 00       		.byte	0x0
ARM GAS  C:\DOCUME~1\TECHCO~1\LOCALS~1\Temp/ccQdbaaa.s 			page 170


 8502 127b 0C       		.uleb128 0xc
 8503 127c 8B120000 		.4byte	0x128b
 8504 1280 87000000 		.4byte	0x87
 8505 1284 0D       		.uleb128 0xd
 8506 1285 48000000 		.4byte	0x48
 8507 1289 00       		.byte	0x0
 8508 128a 00       		.byte	0x0
 8509 128b 10       		.uleb128 0x10
 8510 128c 26130000 		.4byte	0x1326
 8511 1290 01       		.byte	0x1
 8512 1291 F4040000 		.4byte	.LASF208
 8513 1295 01       		.byte	0x1
 8514 1296 BD01     		.2byte	0x1bd
 8515 1298 01       		.byte	0x1
 8516 1299 2C000000 		.4byte	0x2c
 8517 129d FC180000 		.4byte	.LFB13
 8518 12a1 60190000 		.4byte	.LFE13
 8519 12a5 8E0B0000 		.4byte	.LLST76
 8520 12a9 11       		.uleb128 0x11
 8521 12aa E5050000 		.4byte	.LASF209
 8522 12ae 01       		.byte	0x1
 8523 12af BC01     		.2byte	0x1bc
 8524 12b1 87000000 		.4byte	0x87
 8525 12b5 B90B0000 		.4byte	.LLST77
 8526 12b9 11       		.uleb128 0x11
 8527 12ba E2090000 		.4byte	.LASF205
 8528 12be 01       		.byte	0x1
 8529 12bf BC01     		.2byte	0x1bc
 8530 12c1 87000000 		.4byte	0x87
 8531 12c5 D70B0000 		.4byte	.LLST78
 8532 12c9 11       		.uleb128 0x11
 8533 12ca D2010000 		.4byte	.LASF206
 8534 12ce 01       		.byte	0x1
 8535 12cf BC01     		.2byte	0x1bc
 8536 12d1 87000000 		.4byte	0x87
 8537 12d5 F50B0000 		.4byte	.LLST79
 8538 12d9 11       		.uleb128 0x11
 8539 12da 8C080000 		.4byte	.LASF207
 8540 12de 01       		.byte	0x1
 8541 12df BC01     		.2byte	0x1bc
 8542 12e1 87000000 		.4byte	0x87
 8543 12e5 130C0000 		.4byte	.LLST80
 8544 12e9 19       		.uleb128 0x19
 8545 12ea 70696E00 		.ascii	"pin\000"
 8546 12ee 01       		.byte	0x1
 8547 12ef BC01     		.2byte	0x1bc
 8548 12f1 87000000 		.4byte	0x87
 8549 12f5 310C0000 		.4byte	.LLST81
 8550 12f9 11       		.uleb128 0x11
 8551 12fa E9060000 		.4byte	.LASF165
 8552 12fe 01       		.byte	0x1
 8553 12ff BC01     		.2byte	0x1bc
 8554 1301 87000000 		.4byte	0x87
 8555 1305 500C0000 		.4byte	.LLST82
 8556 1309 12       		.uleb128 0x12
 8557 130a 6900     		.ascii	"i\000"
 8558 130c 01       		.byte	0x1
ARM GAS  C:\DOCUME~1\TECHCO~1\LOCALS~1\Temp/ccQdbaaa.s 			page 171


 8559 130d BE01     		.2byte	0x1be
 8560 130f 87000000 		.4byte	0x87
 8561 1313 01       		.byte	0x1
 8562 1314 54       		.byte	0x54
 8563 1315 18       		.uleb128 0x18
 8564 1316 06030000 		.4byte	.LASF210
 8565 131a 01       		.byte	0x1
 8566 131b BF01     		.2byte	0x1bf
 8567 131d 2C000000 		.4byte	0x2c
 8568 1321 6F0C0000 		.4byte	.LLST83
 8569 1325 00       		.byte	0x0
 8570 1326 10       		.uleb128 0x10
 8571 1327 81130000 		.4byte	0x1381
 8572 132b 01       		.byte	0x1
 8573 132c 2C030000 		.4byte	.LASF211
 8574 1330 01       		.byte	0x1
 8575 1331 A301     		.2byte	0x1a3
 8576 1333 01       		.byte	0x1
 8577 1334 2C000000 		.4byte	0x2c
 8578 1338 60190000 		.4byte	.LFB12
 8579 133c 441A0000 		.4byte	.LFE12
 8580 1340 8D0C0000 		.4byte	.LLST84
 8581 1344 11       		.uleb128 0x11
 8582 1345 E2090000 		.4byte	.LASF205
 8583 1349 01       		.byte	0x1
 8584 134a A201     		.2byte	0x1a2
 8585 134c 87000000 		.4byte	0x87
 8586 1350 B80C0000 		.4byte	.LLST85
 8587 1354 11       		.uleb128 0x11
 8588 1355 D2010000 		.4byte	.LASF206
 8589 1359 01       		.byte	0x1
 8590 135a A201     		.2byte	0x1a2
 8591 135c 87000000 		.4byte	0x87
 8592 1360 CB0C0000 		.4byte	.LLST86
 8593 1364 11       		.uleb128 0x11
 8594 1365 2D060000 		.4byte	.LASF212
 8595 1369 01       		.byte	0x1
 8596 136a A201     		.2byte	0x1a2
 8597 136c 81130000 		.4byte	0x1381
 8598 1370 DE0C0000 		.4byte	.LLST87
 8599 1374 12       		.uleb128 0x12
 8600 1375 6100     		.ascii	"a\000"
 8601 1377 01       		.byte	0x1
 8602 1378 A801     		.2byte	0x1a8
 8603 137a 9D000000 		.4byte	0x9d
 8604 137e 01       		.byte	0x1
 8605 137f 54       		.byte	0x54
 8606 1380 00       		.byte	0x0
 8607 1381 05       		.uleb128 0x5
 8608 1382 04       		.byte	0x4
 8609 1383 92000000 		.4byte	0x92
 8610 1387 10       		.uleb128 0x10
 8611 1388 02140000 		.4byte	0x1402
 8612 138c 01       		.byte	0x1
 8613 138d 8C020000 		.4byte	.LASF213
 8614 1391 01       		.byte	0x1
 8615 1392 9601     		.2byte	0x196
ARM GAS  C:\DOCUME~1\TECHCO~1\LOCALS~1\Temp/ccQdbaaa.s 			page 172


 8616 1394 01       		.byte	0x1
 8617 1395 2C000000 		.4byte	0x2c
 8618 1399 441A0000 		.4byte	.LFB11
 8619 139d 901A0000 		.4byte	.LFE11
 8620 13a1 FC0C0000 		.4byte	.LLST88
 8621 13a5 11       		.uleb128 0x11
 8622 13a6 E5050000 		.4byte	.LASF209
 8623 13aa 01       		.byte	0x1
 8624 13ab 9501     		.2byte	0x195
 8625 13ad 87000000 		.4byte	0x87
 8626 13b1 1B0D0000 		.4byte	.LLST89
 8627 13b5 11       		.uleb128 0x11
 8628 13b6 E2090000 		.4byte	.LASF205
 8629 13ba 01       		.byte	0x1
 8630 13bb 9501     		.2byte	0x195
 8631 13bd 87000000 		.4byte	0x87
 8632 13c1 390D0000 		.4byte	.LLST90
 8633 13c5 11       		.uleb128 0x11
 8634 13c6 D2010000 		.4byte	.LASF206
 8635 13ca 01       		.byte	0x1
 8636 13cb 9501     		.2byte	0x195
 8637 13cd 87000000 		.4byte	0x87
 8638 13d1 570D0000 		.4byte	.LLST91
 8639 13d5 11       		.uleb128 0x11
 8640 13d6 2D060000 		.4byte	.LASF212
 8641 13da 01       		.byte	0x1
 8642 13db 9501     		.2byte	0x195
 8643 13dd 81130000 		.4byte	0x1381
 8644 13e1 750D0000 		.4byte	.LLST92
 8645 13e5 12       		.uleb128 0x12
 8646 13e6 6900     		.ascii	"i\000"
 8647 13e8 01       		.byte	0x1
 8648 13e9 9701     		.2byte	0x197
 8649 13eb 87000000 		.4byte	0x87
 8650 13ef 01       		.byte	0x1
 8651 13f0 54       		.byte	0x54
 8652 13f1 18       		.uleb128 0x18
 8653 13f2 06030000 		.4byte	.LASF210
 8654 13f6 01       		.byte	0x1
 8655 13f7 9801     		.2byte	0x198
 8656 13f9 2C000000 		.4byte	0x2c
 8657 13fd 930D0000 		.4byte	.LLST93
 8658 1401 00       		.byte	0x0
 8659 1402 10       		.uleb128 0x10
 8660 1403 69140000 		.4byte	0x1469
 8661 1407 01       		.byte	0x1
 8662 1408 55090000 		.4byte	.LASF214
 8663 140c 01       		.byte	0x1
 8664 140d 1302     		.2byte	0x213
 8665 140f 01       		.byte	0x1
 8666 1410 2C000000 		.4byte	0x2c
 8667 1414 901A0000 		.4byte	.LFB16
 8668 1418 001B0000 		.4byte	.LFE16
 8669 141c B10D0000 		.4byte	.LLST94
 8670 1420 11       		.uleb128 0x11
 8671 1421 AD060000 		.4byte	.LASF164
 8672 1425 01       		.byte	0x1
ARM GAS  C:\DOCUME~1\TECHCO~1\LOCALS~1\Temp/ccQdbaaa.s 			page 173


 8673 1426 1202     		.2byte	0x212
 8674 1428 3D0C0000 		.4byte	0xc3d
 8675 142c DC0D0000 		.4byte	.LLST95
 8676 1430 19       		.uleb128 0x19
 8677 1431 696400   		.ascii	"id\000"
 8678 1434 01       		.byte	0x1
 8679 1435 1202     		.2byte	0x212
 8680 1437 87000000 		.4byte	0x87
 8681 143b FA0D0000 		.4byte	.LLST96
 8682 143f 11       		.uleb128 0x11
 8683 1440 5D050000 		.4byte	.LASF154
 8684 1444 01       		.byte	0x1
 8685 1445 1202     		.2byte	0x212
 8686 1447 87000000 		.4byte	0x87
 8687 144b 180E0000 		.4byte	.LLST97
 8688 144f 1D       		.uleb128 0x1d
 8689 1450 B01A0000 		.4byte	.LBB3
 8690 1454 F81A0000 		.4byte	.LBE3
 8691 1458 1B       		.uleb128 0x1b
 8692 1459 2D060000 		.4byte	.LASF212
 8693 145d 01       		.byte	0x1
 8694 145e 1602     		.2byte	0x216
 8695 1460 92000000 		.4byte	0x92
 8696 1464 02       		.byte	0x2
 8697 1465 91       		.byte	0x91
 8698 1466 76       		.sleb128 -10
 8699 1467 00       		.byte	0x0
 8700 1468 00       		.byte	0x0
 8701 1469 10       		.uleb128 0x10
 8702 146a EE140000 		.4byte	0x14ee
 8703 146e 01       		.byte	0x1
 8704 146f B8070000 		.4byte	.LASF215
 8705 1473 01       		.byte	0x1
 8706 1474 2601     		.2byte	0x126
 8707 1476 01       		.byte	0x1
 8708 1477 2C000000 		.4byte	0x2c
 8709 147b 001B0000 		.4byte	.LFB7
 8710 147f 081C0000 		.4byte	.LFE7
 8711 1483 360E0000 		.4byte	.LLST98
 8712 1487 11       		.uleb128 0x11
 8713 1488 E2090000 		.4byte	.LASF205
 8714 148c 01       		.byte	0x1
 8715 148d 2501     		.2byte	0x125
 8716 148f 87000000 		.4byte	0x87
 8717 1493 610E0000 		.4byte	.LLST99
 8718 1497 11       		.uleb128 0x11
 8719 1498 D2010000 		.4byte	.LASF206
 8720 149c 01       		.byte	0x1
 8721 149d 2501     		.2byte	0x125
 8722 149f 87000000 		.4byte	0x87
 8723 14a3 740E0000 		.4byte	.LLST100
 8724 14a7 11       		.uleb128 0x11
 8725 14a8 62070000 		.4byte	.LASF161
 8726 14ac 01       		.byte	0x1
 8727 14ad 2501     		.2byte	0x125
 8728 14af 78080000 		.4byte	0x878
 8729 14b3 870E0000 		.4byte	.LLST101
ARM GAS  C:\DOCUME~1\TECHCO~1\LOCALS~1\Temp/ccQdbaaa.s 			page 174


 8730 14b7 19       		.uleb128 0x19
 8731 14b8 70696E00 		.ascii	"pin\000"
 8732 14bc 01       		.byte	0x1
 8733 14bd 2501     		.2byte	0x125
 8734 14bf 78080000 		.4byte	0x878
 8735 14c3 A50E0000 		.4byte	.LLST102
 8736 14c7 12       		.uleb128 0x12
 8737 14c8 6100     		.ascii	"a\000"
 8738 14ca 01       		.byte	0x1
 8739 14cb 2A01     		.2byte	0x12a
 8740 14cd 9D000000 		.4byte	0x9d
 8741 14d1 01       		.byte	0x1
 8742 14d2 54       		.byte	0x54
 8743 14d3 1D       		.uleb128 0x1d
 8744 14d4 AC1B0000 		.4byte	.LBB4
 8745 14d8 F81B0000 		.4byte	.LBE4
 8746 14dc 13       		.uleb128 0x13
 8747 14dd 73756D00 		.ascii	"sum\000"
 8748 14e1 01       		.byte	0x1
 8749 14e2 3601     		.2byte	0x136
 8750 14e4 87000000 		.4byte	0x87
 8751 14e8 C30E0000 		.4byte	.LLST103
 8752 14ec 00       		.byte	0x0
 8753 14ed 00       		.byte	0x0
 8754 14ee 10       		.uleb128 0x10
 8755 14ef 79150000 		.4byte	0x1579
 8756 14f3 01       		.byte	0x1
 8757 14f4 8F000000 		.4byte	.LASF216
 8758 14f8 01       		.byte	0x1
 8759 14f9 0B01     		.2byte	0x10b
 8760 14fb 01       		.byte	0x1
 8761 14fc 2C000000 		.4byte	0x2c
 8762 1500 081C0000 		.4byte	.LFB5
 8763 1504 5C1C0000 		.4byte	.LFE5
 8764 1508 E10E0000 		.4byte	.LLST104
 8765 150c 11       		.uleb128 0x11
 8766 150d E5050000 		.4byte	.LASF209
 8767 1511 01       		.byte	0x1
 8768 1512 0A01     		.2byte	0x10a
 8769 1514 87000000 		.4byte	0x87
 8770 1518 000F0000 		.4byte	.LLST105
 8771 151c 11       		.uleb128 0x11
 8772 151d E2090000 		.4byte	.LASF205
 8773 1521 01       		.byte	0x1
 8774 1522 0A01     		.2byte	0x10a
 8775 1524 87000000 		.4byte	0x87
 8776 1528 1E0F0000 		.4byte	.LLST106
 8777 152c 11       		.uleb128 0x11
 8778 152d D2010000 		.4byte	.LASF206
 8779 1531 01       		.byte	0x1
 8780 1532 0A01     		.2byte	0x10a
 8781 1534 87000000 		.4byte	0x87
 8782 1538 3C0F0000 		.4byte	.LLST107
 8783 153c 11       		.uleb128 0x11
 8784 153d 62070000 		.4byte	.LASF161
 8785 1541 01       		.byte	0x1
 8786 1542 0A01     		.2byte	0x10a
ARM GAS  C:\DOCUME~1\TECHCO~1\LOCALS~1\Temp/ccQdbaaa.s 			page 175


 8787 1544 78080000 		.4byte	0x878
 8788 1548 5A0F0000 		.4byte	.LLST108
 8789 154c 19       		.uleb128 0x19
 8790 154d 70696E00 		.ascii	"pin\000"
 8791 1551 01       		.byte	0x1
 8792 1552 0A01     		.2byte	0x10a
 8793 1554 78080000 		.4byte	0x878
 8794 1558 780F0000 		.4byte	.LLST109
 8795 155c 12       		.uleb128 0x12
 8796 155d 6900     		.ascii	"i\000"
 8797 155f 01       		.byte	0x1
 8798 1560 0C01     		.2byte	0x10c
 8799 1562 87000000 		.4byte	0x87
 8800 1566 01       		.byte	0x1
 8801 1567 54       		.byte	0x54
 8802 1568 18       		.uleb128 0x18
 8803 1569 06030000 		.4byte	.LASF210
 8804 156d 01       		.byte	0x1
 8805 156e 0D01     		.2byte	0x10d
 8806 1570 2C000000 		.4byte	0x2c
 8807 1574 970F0000 		.4byte	.LLST110
 8808 1578 00       		.byte	0x0
 8809 1579 10       		.uleb128 0x10
 8810 157a C3150000 		.4byte	0x15c3
 8811 157e 01       		.byte	0x1
 8812 157f 1A070000 		.4byte	.LASF217
 8813 1583 01       		.byte	0x1
 8814 1584 7B01     		.2byte	0x17b
 8815 1586 01       		.byte	0x1
 8816 1587 2C000000 		.4byte	0x2c
 8817 158b 5C1C0000 		.4byte	.LFB10
 8818 158f 0C1D0000 		.4byte	.LFE10
 8819 1593 B50F0000 		.4byte	.LLST111
 8820 1597 11       		.uleb128 0x11
 8821 1598 4E050000 		.4byte	.LASF218
 8822 159c 01       		.byte	0x1
 8823 159d 7A01     		.2byte	0x17a
 8824 159f 87000000 		.4byte	0x87
 8825 15a3 E00F0000 		.4byte	.LLST112
 8826 15a7 1B       		.uleb128 0x1b
 8827 15a8 59000000 		.4byte	.LASF155
 8828 15ac 01       		.byte	0x1
 8829 15ad 7C01     		.2byte	0x17c
 8830 15af 7B120000 		.4byte	0x127b
 8831 15b3 02       		.byte	0x2
 8832 15b4 73       		.byte	0x73
 8833 15b5 7F       		.sleb128 -1
 8834 15b6 12       		.uleb128 0x12
 8835 15b7 6100     		.ascii	"a\000"
 8836 15b9 01       		.byte	0x1
 8837 15ba 8201     		.2byte	0x182
 8838 15bc 9D000000 		.4byte	0x9d
 8839 15c0 01       		.byte	0x1
 8840 15c1 54       		.byte	0x54
 8841 15c2 00       		.byte	0x0
 8842 15c3 10       		.uleb128 0x10
 8843 15c4 1E160000 		.4byte	0x161e
ARM GAS  C:\DOCUME~1\TECHCO~1\LOCALS~1\Temp/ccQdbaaa.s 			page 176


 8844 15c8 01       		.byte	0x1
 8845 15c9 5D040000 		.4byte	.LASF219
 8846 15cd 01       		.byte	0x1
 8847 15ce 6E01     		.2byte	0x16e
 8848 15d0 01       		.byte	0x1
 8849 15d1 2C000000 		.4byte	0x2c
 8850 15d5 0C1D0000 		.4byte	.LFB9
 8851 15d9 481D0000 		.4byte	.LFE9
 8852 15dd FE0F0000 		.4byte	.LLST113
 8853 15e1 11       		.uleb128 0x11
 8854 15e2 E5050000 		.4byte	.LASF209
 8855 15e6 01       		.byte	0x1
 8856 15e7 6D01     		.2byte	0x16d
 8857 15e9 87000000 		.4byte	0x87
 8858 15ed 1D100000 		.4byte	.LLST114
 8859 15f1 11       		.uleb128 0x11
 8860 15f2 4E050000 		.4byte	.LASF218
 8861 15f6 01       		.byte	0x1
 8862 15f7 6D01     		.2byte	0x16d
 8863 15f9 87000000 		.4byte	0x87
 8864 15fd 3B100000 		.4byte	.LLST115
 8865 1601 12       		.uleb128 0x12
 8866 1602 6900     		.ascii	"i\000"
 8867 1604 01       		.byte	0x1
 8868 1605 6F01     		.2byte	0x16f
 8869 1607 87000000 		.4byte	0x87
 8870 160b 01       		.byte	0x1
 8871 160c 54       		.byte	0x54
 8872 160d 18       		.uleb128 0x18
 8873 160e 06030000 		.4byte	.LASF210
 8874 1612 01       		.byte	0x1
 8875 1613 7001     		.2byte	0x170
 8876 1615 2C000000 		.4byte	0x2c
 8877 1619 59100000 		.4byte	.LLST116
 8878 161d 00       		.byte	0x0
 8879 161e 1E       		.uleb128 0x1e
 8880 161f 7E160000 		.4byte	0x167e
 8881 1623 01       		.byte	0x1
 8882 1624 11060000 		.4byte	.LASF220
 8883 1628 01       		.byte	0x1
 8884 1629 E6       		.byte	0xe6
 8885 162a 01       		.byte	0x1
 8886 162b 2C000000 		.4byte	0x2c
 8887 162f 481D0000 		.4byte	.LFB4
 8888 1633 441E0000 		.4byte	.LFE4
 8889 1637 77100000 		.4byte	.LLST117
 8890 163b 1F       		.uleb128 0x1f
 8891 163c 62070000 		.4byte	.LASF161
 8892 1640 01       		.byte	0x1
 8893 1641 E5       		.byte	0xe5
 8894 1642 78080000 		.4byte	0x878
 8895 1646 A2100000 		.4byte	.LLST118
 8896 164a 20       		.uleb128 0x20
 8897 164b 70696E00 		.ascii	"pin\000"
 8898 164f 01       		.byte	0x1
 8899 1650 E5       		.byte	0xe5
 8900 1651 78080000 		.4byte	0x878
ARM GAS  C:\DOCUME~1\TECHCO~1\LOCALS~1\Temp/ccQdbaaa.s 			page 177


 8901 1655 C0100000 		.4byte	.LLST119
 8902 1659 21       		.uleb128 0x21
 8903 165a 6100     		.ascii	"a\000"
 8904 165c 01       		.byte	0x1
 8905 165d EA       		.byte	0xea
 8906 165e 9D000000 		.4byte	0x9d
 8907 1662 01       		.byte	0x1
 8908 1663 54       		.byte	0x54
 8909 1664 1D       		.uleb128 0x1d
 8910 1665 E01D0000 		.4byte	.LBB5
 8911 1669 1C1E0000 		.4byte	.LBE5
 8912 166d 22       		.uleb128 0x22
 8913 166e 73756D00 		.ascii	"sum\000"
 8914 1672 01       		.byte	0x1
 8915 1673 F4       		.byte	0xf4
 8916 1674 87000000 		.4byte	0x87
 8917 1678 DE100000 		.4byte	.LLST120
 8918 167c 00       		.byte	0x0
 8919 167d 00       		.byte	0x0
 8920 167e 1E       		.uleb128 0x1e
 8921 167f E3160000 		.4byte	0x16e3
 8922 1683 01       		.byte	0x1
 8923 1684 6F060000 		.4byte	.LASF221
 8924 1688 01       		.byte	0x1
 8925 1689 D9       		.byte	0xd9
 8926 168a 01       		.byte	0x1
 8927 168b 2C000000 		.4byte	0x2c
 8928 168f 441E0000 		.4byte	.LFB3
 8929 1693 881E0000 		.4byte	.LFE3
 8930 1697 FC100000 		.4byte	.LLST121
 8931 169b 1F       		.uleb128 0x1f
 8932 169c E5050000 		.4byte	.LASF209
 8933 16a0 01       		.byte	0x1
 8934 16a1 D8       		.byte	0xd8
 8935 16a2 87000000 		.4byte	0x87
 8936 16a6 1B110000 		.4byte	.LLST122
 8937 16aa 1F       		.uleb128 0x1f
 8938 16ab 62070000 		.4byte	.LASF161
 8939 16af 01       		.byte	0x1
 8940 16b0 D8       		.byte	0xd8
 8941 16b1 78080000 		.4byte	0x878
 8942 16b5 39110000 		.4byte	.LLST123
 8943 16b9 20       		.uleb128 0x20
 8944 16ba 70696E00 		.ascii	"pin\000"
 8945 16be 01       		.byte	0x1
 8946 16bf D8       		.byte	0xd8
 8947 16c0 78080000 		.4byte	0x878
 8948 16c4 57110000 		.4byte	.LLST124
 8949 16c8 21       		.uleb128 0x21
 8950 16c9 6900     		.ascii	"i\000"
 8951 16cb 01       		.byte	0x1
 8952 16cc DA       		.byte	0xda
 8953 16cd 87000000 		.4byte	0x87
 8954 16d1 01       		.byte	0x1
 8955 16d2 54       		.byte	0x54
 8956 16d3 23       		.uleb128 0x23
 8957 16d4 06030000 		.4byte	.LASF210
ARM GAS  C:\DOCUME~1\TECHCO~1\LOCALS~1\Temp/ccQdbaaa.s 			page 178


 8958 16d8 01       		.byte	0x1
 8959 16d9 DB       		.byte	0xdb
 8960 16da 2C000000 		.4byte	0x2c
 8961 16de 75110000 		.4byte	.LLST125
 8962 16e2 00       		.byte	0x0
 8963 16e3 1E       		.uleb128 0x1e
 8964 16e4 B4170000 		.4byte	0x17b4
 8965 16e8 01       		.byte	0x1
 8966 16e9 BB000000 		.4byte	.LASF222
 8967 16ed 01       		.byte	0x1
 8968 16ee 0F       		.byte	0xf
 8969 16ef 01       		.byte	0x1
 8970 16f0 2C000000 		.4byte	0x2c
 8971 16f4 881E0000 		.4byte	.LFB2
 8972 16f8 F0220000 		.4byte	.LFE2
 8973 16fc 93110000 		.4byte	.LLST126
 8974 1700 1F       		.uleb128 0x1f
 8975 1701 9E010000 		.4byte	.LASF223
 8976 1705 01       		.byte	0x1
 8977 1706 0E       		.byte	0xe
 8978 1707 3D0C0000 		.4byte	0xc3d
 8979 170b BF110000 		.4byte	.LLST127
 8980 170f 24       		.uleb128 0x24
 8981 1710 E2090000 		.4byte	.LASF205
 8982 1714 01       		.byte	0x1
 8983 1715 10       		.byte	0x10
 8984 1716 87000000 		.4byte	0x87
 8985 171a 01       		.byte	0x1
 8986 171b 59       		.byte	0x59
 8987 171c 25       		.uleb128 0x25
 8988 171d D2010000 		.4byte	.LASF206
 8989 1721 01       		.byte	0x1
 8990 1722 11       		.byte	0x11
 8991 1723 87000000 		.4byte	0x87
 8992 1727 21       		.uleb128 0x21
 8993 1728 616300   		.ascii	"ac\000"
 8994 172b 01       		.byte	0x1
 8995 172c 12       		.byte	0x12
 8996 172d 87000000 		.4byte	0x87
 8997 1731 01       		.byte	0x1
 8998 1732 5B       		.byte	0x5b
 8999 1733 26       		.uleb128 0x26
 9000 1734 736300   		.ascii	"sc\000"
 9001 1737 01       		.byte	0x1
 9002 1738 13       		.byte	0x13
 9003 1739 87000000 		.4byte	0x87
 9004 173d 23       		.uleb128 0x23
 9005 173e 56060000 		.4byte	.LASF224
 9006 1742 01       		.byte	0x1
 9007 1743 14       		.byte	0x14
 9008 1744 87000000 		.4byte	0x87
 9009 1748 DD110000 		.4byte	.LLST128
 9010 174c 27       		.uleb128 0x27
 9011 174d 00000000 		.4byte	.Ldebug_ranges0+0x0
 9012 1751 23       		.uleb128 0x23
 9013 1752 E4000000 		.4byte	.LASF10
 9014 1756 01       		.byte	0x1
ARM GAS  C:\DOCUME~1\TECHCO~1\LOCALS~1\Temp/ccQdbaaa.s 			page 179


 9015 1757 28       		.byte	0x28
 9016 1758 370A0000 		.4byte	0xa37
 9017 175c 96120000 		.4byte	.LLST129
 9018 1760 27       		.uleb128 0x27
 9019 1761 18000000 		.4byte	.Ldebug_ranges0+0x18
 9020 1765 25       		.uleb128 0x25
 9021 1766 EC050000 		.4byte	.LASF168
 9022 176a 01       		.byte	0x1
 9023 176b 3D       		.byte	0x3d
 9024 176c 370A0000 		.4byte	0xa37
 9025 1770 23       		.uleb128 0x23
 9026 1771 DD090000 		.4byte	.LASF225
 9027 1775 01       		.byte	0x1
 9028 1776 43       		.byte	0x43
 9029 1777 E1090000 		.4byte	0x9e1
 9030 177b B4120000 		.4byte	.LLST130
 9031 177f 24       		.uleb128 0x24
 9032 1780 62070000 		.4byte	.LASF161
 9033 1784 01       		.byte	0x1
 9034 1785 5D       		.byte	0x5d
 9035 1786 87000000 		.4byte	0x87
 9036 178a 02       		.byte	0x2
 9037 178b 91       		.byte	0x91
 9038 178c 76       		.sleb128 -10
 9039 178d 21       		.uleb128 0x21
 9040 178e 70696E00 		.ascii	"pin\000"
 9041 1792 01       		.byte	0x1
 9042 1793 5D       		.byte	0x5d
 9043 1794 87000000 		.4byte	0x87
 9044 1798 02       		.byte	0x2
 9045 1799 91       		.byte	0x91
 9046 179a 77       		.sleb128 -9
 9047 179b 25       		.uleb128 0x25
 9048 179c 29090000 		.4byte	.LASF226
 9049 17a0 01       		.byte	0x1
 9050 17a1 9A       		.byte	0x9a
 9051 17a2 87000000 		.4byte	0x87
 9052 17a6 25       		.uleb128 0x25
 9053 17a7 A3040000 		.4byte	.LASF227
 9054 17ab 01       		.byte	0x1
 9055 17ac 9B       		.byte	0x9b
 9056 17ad 87000000 		.4byte	0x87
 9057 17b1 00       		.byte	0x0
 9058 17b2 00       		.byte	0x0
 9059 17b3 00       		.byte	0x0
 9060 17b4 28       		.uleb128 0x28
 9061 17b5 9F070000 		.4byte	.LASF228
 9062 17b9 04       		.byte	0x4
 9063 17ba 52       		.byte	0x52
 9064 17bb C6170000 		.4byte	0x17c6
 9065 17bf 01       		.byte	0x1
 9066 17c0 05       		.byte	0x5
 9067 17c1 03       		.byte	0x3
 9068 17c2 00000000 		.4byte	cmesh
 9069 17c6 05       		.uleb128 0x5
 9070 17c7 04       		.byte	0x4
 9071 17c8 BB080000 		.4byte	0x8bb
ARM GAS  C:\DOCUME~1\TECHCO~1\LOCALS~1\Temp/ccQdbaaa.s 			page 180


 9072 17cc 29       		.uleb128 0x29
 9073 17cd 65667300 		.ascii	"efs\000"
 9074 17d1 04       		.byte	0x4
 9075 17d2 56       		.byte	0x56
 9076 17d3 BE070000 		.4byte	0x7be
 9077 17d7 01       		.byte	0x1
 9078 17d8 05       		.byte	0x5
 9079 17d9 03       		.byte	0x3
 9080 17da 00000000 		.4byte	efs
 9081 17de 28       		.uleb128 0x28
 9082 17df 5C070000 		.4byte	.LASF229
 9083 17e3 04       		.byte	0x4
 9084 17e4 57       		.byte	0x57
 9085 17e5 5C070000 		.4byte	0x75c
 9086 17e9 01       		.byte	0x1
 9087 17ea 05       		.byte	0x5
 9088 17eb 03       		.byte	0x3
 9089 17ec 00000000 		.4byte	filer
 9090 17f0 28       		.uleb128 0x28
 9091 17f1 6D070000 		.4byte	.LASF230
 9092 17f5 04       		.byte	0x4
 9093 17f6 57       		.byte	0x57
 9094 17f7 5C070000 		.4byte	0x75c
 9095 17fb 01       		.byte	0x1
 9096 17fc 05       		.byte	0x5
 9097 17fd 03       		.byte	0x3
 9098 17fe 00000000 		.4byte	filew
 9099 1802 28       		.uleb128 0x28
 9100 1803 11040000 		.4byte	.LASF231
 9101 1807 04       		.byte	0x4
 9102 1808 58       		.byte	0x58
 9103 1809 6D080000 		.4byte	0x86d
 9104 180d 01       		.byte	0x1
 9105 180e 05       		.byte	0x5
 9106 180f 03       		.byte	0x3
 9107 1810 00000000 		.4byte	list
 9108 1814 28       		.uleb128 0x28
 9109 1815 D3040000 		.4byte	.LASF232
 9110 1819 03       		.byte	0x3
 9111 181a 43       		.byte	0x43
 9112 181b 430A0000 		.4byte	0xa43
 9113 181f 01       		.byte	0x1
 9114 1820 05       		.byte	0x5
 9115 1821 03       		.byte	0x3
 9116 1822 00000000 		.4byte	cubemorph
 9117 1826 0C       		.uleb128 0xc
 9118 1827 36180000 		.4byte	0x1836
 9119 182b 4F000000 		.4byte	0x4f
 9120 182f 0D       		.uleb128 0xd
 9121 1830 48000000 		.4byte	0x48
 9122 1834 7F       		.byte	0x7f
 9123 1835 00       		.byte	0x0
 9124 1836 28       		.uleb128 0x28
 9125 1837 E0080000 		.4byte	.LASF233
 9126 183b 0F       		.byte	0xf
 9127 183c 1F       		.byte	0x1f
 9128 183d 26180000 		.4byte	0x1826
ARM GAS  C:\DOCUME~1\TECHCO~1\LOCALS~1\Temp/ccQdbaaa.s 			page 181


 9129 1841 01       		.byte	0x1
 9130 1842 05       		.byte	0x5
 9131 1843 03       		.byte	0x3
 9132 1844 00000000 		.4byte	cmdBufferData
 9133 1848 28       		.uleb128 0x28
 9134 1849 640A0000 		.4byte	.LASF234
 9135 184d 0F       		.byte	0xf
 9136 184e 20       		.byte	0x20
 9137 184f 930A0000 		.4byte	0xa93
 9138 1853 01       		.byte	0x1
 9139 1854 05       		.byte	0x5
 9140 1855 03       		.byte	0x3
 9141 1856 00000000 		.4byte	cmdBuffer
 9142 185a 28       		.uleb128 0x28
 9143 185b 9A050000 		.4byte	.LASF235
 9144 185f 0F       		.byte	0xf
 9145 1860 2A       		.byte	0x2a
 9146 1861 FD0A0000 		.4byte	0xafd
 9147 1865 01       		.byte	0x1
 9148 1866 05       		.byte	0x5
 9149 1867 03       		.byte	0x3
 9150 1868 00000000 		.4byte	int_busRxPkt
 9151 186c 28       		.uleb128 0x28
 9152 186d 120A0000 		.4byte	.LASF236
 9153 1871 0F       		.byte	0xf
 9154 1872 2B       		.byte	0x2b
 9155 1873 FD0A0000 		.4byte	0xafd
 9156 1877 01       		.byte	0x1
 9157 1878 05       		.byte	0x5
 9158 1879 03       		.byte	0x3
 9159 187a 00000000 		.4byte	ext_busRxPkt
 9160 187e 00       		.byte	0x0
 9161              		.section	.debug_abbrev
 9162 0000 01       		.uleb128 0x1
 9163 0001 11       		.uleb128 0x11
 9164 0002 01       		.byte	0x1
 9165 0003 10       		.uleb128 0x10
 9166 0004 06       		.uleb128 0x6
 9167 0005 12       		.uleb128 0x12
 9168 0006 01       		.uleb128 0x1
 9169 0007 11       		.uleb128 0x11
 9170 0008 01       		.uleb128 0x1
 9171 0009 25       		.uleb128 0x25
 9172 000a 0E       		.uleb128 0xe
 9173 000b 13       		.uleb128 0x13
 9174 000c 0B       		.uleb128 0xb
 9175 000d 03       		.uleb128 0x3
 9176 000e 0E       		.uleb128 0xe
 9177 000f 1B       		.uleb128 0x1b
 9178 0010 0E       		.uleb128 0xe
 9179 0011 00       		.byte	0x0
 9180 0012 00       		.byte	0x0
 9181 0013 02       		.uleb128 0x2
 9182 0014 24       		.uleb128 0x24
 9183 0015 00       		.byte	0x0
 9184 0016 03       		.uleb128 0x3
 9185 0017 0E       		.uleb128 0xe
ARM GAS  C:\DOCUME~1\TECHCO~1\LOCALS~1\Temp/ccQdbaaa.s 			page 182


 9186 0018 0B       		.uleb128 0xb
 9187 0019 0B       		.uleb128 0xb
 9188 001a 3E       		.uleb128 0x3e
 9189 001b 0B       		.uleb128 0xb
 9190 001c 00       		.byte	0x0
 9191 001d 00       		.byte	0x0
 9192 001e 03       		.uleb128 0x3
 9193 001f 24       		.uleb128 0x24
 9194 0020 00       		.byte	0x0
 9195 0021 03       		.uleb128 0x3
 9196 0022 08       		.uleb128 0x8
 9197 0023 0B       		.uleb128 0xb
 9198 0024 0B       		.uleb128 0xb
 9199 0025 3E       		.uleb128 0x3e
 9200 0026 0B       		.uleb128 0xb
 9201 0027 00       		.byte	0x0
 9202 0028 00       		.byte	0x0
 9203 0029 04       		.uleb128 0x4
 9204 002a 0F       		.uleb128 0xf
 9205 002b 00       		.byte	0x0
 9206 002c 0B       		.uleb128 0xb
 9207 002d 0B       		.uleb128 0xb
 9208 002e 00       		.byte	0x0
 9209 002f 00       		.byte	0x0
 9210 0030 05       		.uleb128 0x5
 9211 0031 0F       		.uleb128 0xf
 9212 0032 00       		.byte	0x0
 9213 0033 0B       		.uleb128 0xb
 9214 0034 0B       		.uleb128 0xb
 9215 0035 49       		.uleb128 0x49
 9216 0036 13       		.uleb128 0x13
 9217 0037 00       		.byte	0x0
 9218 0038 00       		.byte	0x0
 9219 0039 06       		.uleb128 0x6
 9220 003a 16       		.uleb128 0x16
 9221 003b 00       		.byte	0x0
 9222 003c 03       		.uleb128 0x3
 9223 003d 08       		.uleb128 0x8
 9224 003e 3A       		.uleb128 0x3a
 9225 003f 0B       		.uleb128 0xb
 9226 0040 3B       		.uleb128 0x3b
 9227 0041 0B       		.uleb128 0xb
 9228 0042 49       		.uleb128 0x49
 9229 0043 13       		.uleb128 0x13
 9230 0044 00       		.byte	0x0
 9231 0045 00       		.byte	0x0
 9232 0046 07       		.uleb128 0x7
 9233 0047 13       		.uleb128 0x13
 9234 0048 01       		.byte	0x1
 9235 0049 01       		.uleb128 0x1
 9236 004a 13       		.uleb128 0x13
 9237 004b 03       		.uleb128 0x3
 9238 004c 0E       		.uleb128 0xe
 9239 004d 0B       		.uleb128 0xb
 9240 004e 0B       		.uleb128 0xb
 9241 004f 3A       		.uleb128 0x3a
 9242 0050 0B       		.uleb128 0xb
ARM GAS  C:\DOCUME~1\TECHCO~1\LOCALS~1\Temp/ccQdbaaa.s 			page 183


 9243 0051 3B       		.uleb128 0x3b
 9244 0052 0B       		.uleb128 0xb
 9245 0053 00       		.byte	0x0
 9246 0054 00       		.byte	0x0
 9247 0055 08       		.uleb128 0x8
 9248 0056 0D       		.uleb128 0xd
 9249 0057 00       		.byte	0x0
 9250 0058 03       		.uleb128 0x3
 9251 0059 08       		.uleb128 0x8
 9252 005a 3A       		.uleb128 0x3a
 9253 005b 0B       		.uleb128 0xb
 9254 005c 3B       		.uleb128 0x3b
 9255 005d 0B       		.uleb128 0xb
 9256 005e 49       		.uleb128 0x49
 9257 005f 13       		.uleb128 0x13
 9258 0060 38       		.uleb128 0x38
 9259 0061 0A       		.uleb128 0xa
 9260 0062 00       		.byte	0x0
 9261 0063 00       		.byte	0x0
 9262 0064 09       		.uleb128 0x9
 9263 0065 0D       		.uleb128 0xd
 9264 0066 00       		.byte	0x0
 9265 0067 03       		.uleb128 0x3
 9266 0068 0E       		.uleb128 0xe
 9267 0069 3A       		.uleb128 0x3a
 9268 006a 0B       		.uleb128 0xb
 9269 006b 3B       		.uleb128 0x3b
 9270 006c 0B       		.uleb128 0xb
 9271 006d 49       		.uleb128 0x49
 9272 006e 13       		.uleb128 0x13
 9273 006f 38       		.uleb128 0x38
 9274 0070 0A       		.uleb128 0xa
 9275 0071 00       		.byte	0x0
 9276 0072 00       		.byte	0x0
 9277 0073 0A       		.uleb128 0xa
 9278 0074 16       		.uleb128 0x16
 9279 0075 00       		.byte	0x0
 9280 0076 03       		.uleb128 0x3
 9281 0077 0E       		.uleb128 0xe
 9282 0078 3A       		.uleb128 0x3a
 9283 0079 0B       		.uleb128 0xb
 9284 007a 3B       		.uleb128 0x3b
 9285 007b 0B       		.uleb128 0xb
 9286 007c 49       		.uleb128 0x49
 9287 007d 13       		.uleb128 0x13
 9288 007e 00       		.byte	0x0
 9289 007f 00       		.byte	0x0
 9290 0080 0B       		.uleb128 0xb
 9291 0081 13       		.uleb128 0x13
 9292 0082 01       		.byte	0x1
 9293 0083 01       		.uleb128 0x1
 9294 0084 13       		.uleb128 0x13
 9295 0085 03       		.uleb128 0x3
 9296 0086 0E       		.uleb128 0xe
 9297 0087 0B       		.uleb128 0xb
 9298 0088 05       		.uleb128 0x5
 9299 0089 3A       		.uleb128 0x3a
ARM GAS  C:\DOCUME~1\TECHCO~1\LOCALS~1\Temp/ccQdbaaa.s 			page 184


 9300 008a 0B       		.uleb128 0xb
 9301 008b 3B       		.uleb128 0x3b
 9302 008c 0B       		.uleb128 0xb
 9303 008d 00       		.byte	0x0
 9304 008e 00       		.byte	0x0
 9305 008f 0C       		.uleb128 0xc
 9306 0090 01       		.uleb128 0x1
 9307 0091 01       		.byte	0x1
 9308 0092 01       		.uleb128 0x1
 9309 0093 13       		.uleb128 0x13
 9310 0094 49       		.uleb128 0x49
 9311 0095 13       		.uleb128 0x13
 9312 0096 00       		.byte	0x0
 9313 0097 00       		.byte	0x0
 9314 0098 0D       		.uleb128 0xd
 9315 0099 21       		.uleb128 0x21
 9316 009a 00       		.byte	0x0
 9317 009b 49       		.uleb128 0x49
 9318 009c 13       		.uleb128 0x13
 9319 009d 2F       		.uleb128 0x2f
 9320 009e 0B       		.uleb128 0xb
 9321 009f 00       		.byte	0x0
 9322 00a0 00       		.byte	0x0
 9323 00a1 0E       		.uleb128 0xe
 9324 00a2 21       		.uleb128 0x21
 9325 00a3 00       		.byte	0x0
 9326 00a4 49       		.uleb128 0x49
 9327 00a5 13       		.uleb128 0x13
 9328 00a6 2F       		.uleb128 0x2f
 9329 00a7 05       		.uleb128 0x5
 9330 00a8 00       		.byte	0x0
 9331 00a9 00       		.byte	0x0
 9332 00aa 0F       		.uleb128 0xf
 9333 00ab 13       		.uleb128 0x13
 9334 00ac 01       		.byte	0x1
 9335 00ad 01       		.uleb128 0x1
 9336 00ae 13       		.uleb128 0x13
 9337 00af 0B       		.uleb128 0xb
 9338 00b0 0B       		.uleb128 0xb
 9339 00b1 3A       		.uleb128 0x3a
 9340 00b2 0B       		.uleb128 0xb
 9341 00b3 3B       		.uleb128 0x3b
 9342 00b4 0B       		.uleb128 0xb
 9343 00b5 00       		.byte	0x0
 9344 00b6 00       		.byte	0x0
 9345 00b7 10       		.uleb128 0x10
 9346 00b8 2E       		.uleb128 0x2e
 9347 00b9 01       		.byte	0x1
 9348 00ba 01       		.uleb128 0x1
 9349 00bb 13       		.uleb128 0x13
 9350 00bc 3F       		.uleb128 0x3f
 9351 00bd 0C       		.uleb128 0xc
 9352 00be 03       		.uleb128 0x3
 9353 00bf 0E       		.uleb128 0xe
 9354 00c0 3A       		.uleb128 0x3a
 9355 00c1 0B       		.uleb128 0xb
 9356 00c2 3B       		.uleb128 0x3b
ARM GAS  C:\DOCUME~1\TECHCO~1\LOCALS~1\Temp/ccQdbaaa.s 			page 185


 9357 00c3 05       		.uleb128 0x5
 9358 00c4 27       		.uleb128 0x27
 9359 00c5 0C       		.uleb128 0xc
 9360 00c6 49       		.uleb128 0x49
 9361 00c7 13       		.uleb128 0x13
 9362 00c8 11       		.uleb128 0x11
 9363 00c9 01       		.uleb128 0x1
 9364 00ca 12       		.uleb128 0x12
 9365 00cb 01       		.uleb128 0x1
 9366 00cc 40       		.uleb128 0x40
 9367 00cd 06       		.uleb128 0x6
 9368 00ce 00       		.byte	0x0
 9369 00cf 00       		.byte	0x0
 9370 00d0 11       		.uleb128 0x11
 9371 00d1 05       		.uleb128 0x5
 9372 00d2 00       		.byte	0x0
 9373 00d3 03       		.uleb128 0x3
 9374 00d4 0E       		.uleb128 0xe
 9375 00d5 3A       		.uleb128 0x3a
 9376 00d6 0B       		.uleb128 0xb
 9377 00d7 3B       		.uleb128 0x3b
 9378 00d8 05       		.uleb128 0x5
 9379 00d9 49       		.uleb128 0x49
 9380 00da 13       		.uleb128 0x13
 9381 00db 02       		.uleb128 0x2
 9382 00dc 06       		.uleb128 0x6
 9383 00dd 00       		.byte	0x0
 9384 00de 00       		.byte	0x0
 9385 00df 12       		.uleb128 0x12
 9386 00e0 34       		.uleb128 0x34
 9387 00e1 00       		.byte	0x0
 9388 00e2 03       		.uleb128 0x3
 9389 00e3 08       		.uleb128 0x8
 9390 00e4 3A       		.uleb128 0x3a
 9391 00e5 0B       		.uleb128 0xb
 9392 00e6 3B       		.uleb128 0x3b
 9393 00e7 05       		.uleb128 0x5
 9394 00e8 49       		.uleb128 0x49
 9395 00e9 13       		.uleb128 0x13
 9396 00ea 02       		.uleb128 0x2
 9397 00eb 0A       		.uleb128 0xa
 9398 00ec 00       		.byte	0x0
 9399 00ed 00       		.byte	0x0
 9400 00ee 13       		.uleb128 0x13
 9401 00ef 34       		.uleb128 0x34
 9402 00f0 00       		.byte	0x0
 9403 00f1 03       		.uleb128 0x3
 9404 00f2 08       		.uleb128 0x8
 9405 00f3 3A       		.uleb128 0x3a
 9406 00f4 0B       		.uleb128 0xb
 9407 00f5 3B       		.uleb128 0x3b
 9408 00f6 05       		.uleb128 0x5
 9409 00f7 49       		.uleb128 0x49
 9410 00f8 13       		.uleb128 0x13
 9411 00f9 02       		.uleb128 0x2
 9412 00fa 06       		.uleb128 0x6
 9413 00fb 00       		.byte	0x0
ARM GAS  C:\DOCUME~1\TECHCO~1\LOCALS~1\Temp/ccQdbaaa.s 			page 186


 9414 00fc 00       		.byte	0x0
 9415 00fd 14       		.uleb128 0x14
 9416 00fe 34       		.uleb128 0x34
 9417 00ff 00       		.byte	0x0
 9418 0100 03       		.uleb128 0x3
 9419 0101 08       		.uleb128 0x8
 9420 0102 3A       		.uleb128 0x3a
 9421 0103 0B       		.uleb128 0xb
 9422 0104 3B       		.uleb128 0x3b
 9423 0105 05       		.uleb128 0x5
 9424 0106 49       		.uleb128 0x49
 9425 0107 13       		.uleb128 0x13
 9426 0108 00       		.byte	0x0
 9427 0109 00       		.byte	0x0
 9428 010a 15       		.uleb128 0x15
 9429 010b 2E       		.uleb128 0x2e
 9430 010c 01       		.byte	0x1
 9431 010d 01       		.uleb128 0x1
 9432 010e 13       		.uleb128 0x13
 9433 010f 3F       		.uleb128 0x3f
 9434 0110 0C       		.uleb128 0xc
 9435 0111 03       		.uleb128 0x3
 9436 0112 0E       		.uleb128 0xe
 9437 0113 3A       		.uleb128 0x3a
 9438 0114 0B       		.uleb128 0xb
 9439 0115 3B       		.uleb128 0x3b
 9440 0116 05       		.uleb128 0x5
 9441 0117 27       		.uleb128 0x27
 9442 0118 0C       		.uleb128 0xc
 9443 0119 49       		.uleb128 0x49
 9444 011a 13       		.uleb128 0x13
 9445 011b 11       		.uleb128 0x11
 9446 011c 01       		.uleb128 0x1
 9447 011d 12       		.uleb128 0x12
 9448 011e 01       		.uleb128 0x1
 9449 011f 40       		.uleb128 0x40
 9450 0120 0A       		.uleb128 0xa
 9451 0121 00       		.byte	0x0
 9452 0122 00       		.byte	0x0
 9453 0123 16       		.uleb128 0x16
 9454 0124 05       		.uleb128 0x5
 9455 0125 00       		.byte	0x0
 9456 0126 03       		.uleb128 0x3
 9457 0127 0E       		.uleb128 0xe
 9458 0128 3A       		.uleb128 0x3a
 9459 0129 0B       		.uleb128 0xb
 9460 012a 3B       		.uleb128 0x3b
 9461 012b 05       		.uleb128 0x5
 9462 012c 49       		.uleb128 0x49
 9463 012d 13       		.uleb128 0x13
 9464 012e 02       		.uleb128 0x2
 9465 012f 0A       		.uleb128 0xa
 9466 0130 00       		.byte	0x0
 9467 0131 00       		.byte	0x0
 9468 0132 17       		.uleb128 0x17
 9469 0133 05       		.uleb128 0x5
 9470 0134 00       		.byte	0x0
ARM GAS  C:\DOCUME~1\TECHCO~1\LOCALS~1\Temp/ccQdbaaa.s 			page 187


 9471 0135 03       		.uleb128 0x3
 9472 0136 08       		.uleb128 0x8
 9473 0137 3A       		.uleb128 0x3a
 9474 0138 0B       		.uleb128 0xb
 9475 0139 3B       		.uleb128 0x3b
 9476 013a 05       		.uleb128 0x5
 9477 013b 49       		.uleb128 0x49
 9478 013c 13       		.uleb128 0x13
 9479 013d 02       		.uleb128 0x2
 9480 013e 0A       		.uleb128 0xa
 9481 013f 00       		.byte	0x0
 9482 0140 00       		.byte	0x0
 9483 0141 18       		.uleb128 0x18
 9484 0142 34       		.uleb128 0x34
 9485 0143 00       		.byte	0x0
 9486 0144 03       		.uleb128 0x3
 9487 0145 0E       		.uleb128 0xe
 9488 0146 3A       		.uleb128 0x3a
 9489 0147 0B       		.uleb128 0xb
 9490 0148 3B       		.uleb128 0x3b
 9491 0149 05       		.uleb128 0x5
 9492 014a 49       		.uleb128 0x49
 9493 014b 13       		.uleb128 0x13
 9494 014c 02       		.uleb128 0x2
 9495 014d 06       		.uleb128 0x6
 9496 014e 00       		.byte	0x0
 9497 014f 00       		.byte	0x0
 9498 0150 19       		.uleb128 0x19
 9499 0151 05       		.uleb128 0x5
 9500 0152 00       		.byte	0x0
 9501 0153 03       		.uleb128 0x3
 9502 0154 08       		.uleb128 0x8
 9503 0155 3A       		.uleb128 0x3a
 9504 0156 0B       		.uleb128 0xb
 9505 0157 3B       		.uleb128 0x3b
 9506 0158 05       		.uleb128 0x5
 9507 0159 49       		.uleb128 0x49
 9508 015a 13       		.uleb128 0x13
 9509 015b 02       		.uleb128 0x2
 9510 015c 06       		.uleb128 0x6
 9511 015d 00       		.byte	0x0
 9512 015e 00       		.byte	0x0
 9513 015f 1A       		.uleb128 0x1a
 9514 0160 2E       		.uleb128 0x2e
 9515 0161 01       		.byte	0x1
 9516 0162 01       		.uleb128 0x1
 9517 0163 13       		.uleb128 0x13
 9518 0164 3F       		.uleb128 0x3f
 9519 0165 0C       		.uleb128 0xc
 9520 0166 03       		.uleb128 0x3
 9521 0167 0E       		.uleb128 0xe
 9522 0168 3A       		.uleb128 0x3a
 9523 0169 0B       		.uleb128 0xb
 9524 016a 3B       		.uleb128 0x3b
 9525 016b 05       		.uleb128 0x5
 9526 016c 27       		.uleb128 0x27
 9527 016d 0C       		.uleb128 0xc
ARM GAS  C:\DOCUME~1\TECHCO~1\LOCALS~1\Temp/ccQdbaaa.s 			page 188


 9528 016e 11       		.uleb128 0x11
 9529 016f 01       		.uleb128 0x1
 9530 0170 12       		.uleb128 0x12
 9531 0171 01       		.uleb128 0x1
 9532 0172 40       		.uleb128 0x40
 9533 0173 06       		.uleb128 0x6
 9534 0174 00       		.byte	0x0
 9535 0175 00       		.byte	0x0
 9536 0176 1B       		.uleb128 0x1b
 9537 0177 34       		.uleb128 0x34
 9538 0178 00       		.byte	0x0
 9539 0179 03       		.uleb128 0x3
 9540 017a 0E       		.uleb128 0xe
 9541 017b 3A       		.uleb128 0x3a
 9542 017c 0B       		.uleb128 0xb
 9543 017d 3B       		.uleb128 0x3b
 9544 017e 05       		.uleb128 0x5
 9545 017f 49       		.uleb128 0x49
 9546 0180 13       		.uleb128 0x13
 9547 0181 02       		.uleb128 0x2
 9548 0182 0A       		.uleb128 0xa
 9549 0183 00       		.byte	0x0
 9550 0184 00       		.byte	0x0
 9551 0185 1C       		.uleb128 0x1c
 9552 0186 34       		.uleb128 0x34
 9553 0187 00       		.byte	0x0
 9554 0188 03       		.uleb128 0x3
 9555 0189 0E       		.uleb128 0xe
 9556 018a 3A       		.uleb128 0x3a
 9557 018b 0B       		.uleb128 0xb
 9558 018c 3B       		.uleb128 0x3b
 9559 018d 05       		.uleb128 0x5
 9560 018e 49       		.uleb128 0x49
 9561 018f 13       		.uleb128 0x13
 9562 0190 00       		.byte	0x0
 9563 0191 00       		.byte	0x0
 9564 0192 1D       		.uleb128 0x1d
 9565 0193 0B       		.uleb128 0xb
 9566 0194 01       		.byte	0x1
 9567 0195 11       		.uleb128 0x11
 9568 0196 01       		.uleb128 0x1
 9569 0197 12       		.uleb128 0x12
 9570 0198 01       		.uleb128 0x1
 9571 0199 00       		.byte	0x0
 9572 019a 00       		.byte	0x0
 9573 019b 1E       		.uleb128 0x1e
 9574 019c 2E       		.uleb128 0x2e
 9575 019d 01       		.byte	0x1
 9576 019e 01       		.uleb128 0x1
 9577 019f 13       		.uleb128 0x13
 9578 01a0 3F       		.uleb128 0x3f
 9579 01a1 0C       		.uleb128 0xc
 9580 01a2 03       		.uleb128 0x3
 9581 01a3 0E       		.uleb128 0xe
 9582 01a4 3A       		.uleb128 0x3a
 9583 01a5 0B       		.uleb128 0xb
 9584 01a6 3B       		.uleb128 0x3b
ARM GAS  C:\DOCUME~1\TECHCO~1\LOCALS~1\Temp/ccQdbaaa.s 			page 189


 9585 01a7 0B       		.uleb128 0xb
 9586 01a8 27       		.uleb128 0x27
 9587 01a9 0C       		.uleb128 0xc
 9588 01aa 49       		.uleb128 0x49
 9589 01ab 13       		.uleb128 0x13
 9590 01ac 11       		.uleb128 0x11
 9591 01ad 01       		.uleb128 0x1
 9592 01ae 12       		.uleb128 0x12
 9593 01af 01       		.uleb128 0x1
 9594 01b0 40       		.uleb128 0x40
 9595 01b1 06       		.uleb128 0x6
 9596 01b2 00       		.byte	0x0
 9597 01b3 00       		.byte	0x0
 9598 01b4 1F       		.uleb128 0x1f
 9599 01b5 05       		.uleb128 0x5
 9600 01b6 00       		.byte	0x0
 9601 01b7 03       		.uleb128 0x3
 9602 01b8 0E       		.uleb128 0xe
 9603 01b9 3A       		.uleb128 0x3a
 9604 01ba 0B       		.uleb128 0xb
 9605 01bb 3B       		.uleb128 0x3b
 9606 01bc 0B       		.uleb128 0xb
 9607 01bd 49       		.uleb128 0x49
 9608 01be 13       		.uleb128 0x13
 9609 01bf 02       		.uleb128 0x2
 9610 01c0 06       		.uleb128 0x6
 9611 01c1 00       		.byte	0x0
 9612 01c2 00       		.byte	0x0
 9613 01c3 20       		.uleb128 0x20
 9614 01c4 05       		.uleb128 0x5
 9615 01c5 00       		.byte	0x0
 9616 01c6 03       		.uleb128 0x3
 9617 01c7 08       		.uleb128 0x8
 9618 01c8 3A       		.uleb128 0x3a
 9619 01c9 0B       		.uleb128 0xb
 9620 01ca 3B       		.uleb128 0x3b
 9621 01cb 0B       		.uleb128 0xb
 9622 01cc 49       		.uleb128 0x49
 9623 01cd 13       		.uleb128 0x13
 9624 01ce 02       		.uleb128 0x2
 9625 01cf 06       		.uleb128 0x6
 9626 01d0 00       		.byte	0x0
 9627 01d1 00       		.byte	0x0
 9628 01d2 21       		.uleb128 0x21
 9629 01d3 34       		.uleb128 0x34
 9630 01d4 00       		.byte	0x0
 9631 01d5 03       		.uleb128 0x3
 9632 01d6 08       		.uleb128 0x8
 9633 01d7 3A       		.uleb128 0x3a
 9634 01d8 0B       		.uleb128 0xb
 9635 01d9 3B       		.uleb128 0x3b
 9636 01da 0B       		.uleb128 0xb
 9637 01db 49       		.uleb128 0x49
 9638 01dc 13       		.uleb128 0x13
 9639 01dd 02       		.uleb128 0x2
 9640 01de 0A       		.uleb128 0xa
 9641 01df 00       		.byte	0x0
ARM GAS  C:\DOCUME~1\TECHCO~1\LOCALS~1\Temp/ccQdbaaa.s 			page 190


 9642 01e0 00       		.byte	0x0
 9643 01e1 22       		.uleb128 0x22
 9644 01e2 34       		.uleb128 0x34
 9645 01e3 00       		.byte	0x0
 9646 01e4 03       		.uleb128 0x3
 9647 01e5 08       		.uleb128 0x8
 9648 01e6 3A       		.uleb128 0x3a
 9649 01e7 0B       		.uleb128 0xb
 9650 01e8 3B       		.uleb128 0x3b
 9651 01e9 0B       		.uleb128 0xb
 9652 01ea 49       		.uleb128 0x49
 9653 01eb 13       		.uleb128 0x13
 9654 01ec 02       		.uleb128 0x2
 9655 01ed 06       		.uleb128 0x6
 9656 01ee 00       		.byte	0x0
 9657 01ef 00       		.byte	0x0
 9658 01f0 23       		.uleb128 0x23
 9659 01f1 34       		.uleb128 0x34
 9660 01f2 00       		.byte	0x0
 9661 01f3 03       		.uleb128 0x3
 9662 01f4 0E       		.uleb128 0xe
 9663 01f5 3A       		.uleb128 0x3a
 9664 01f6 0B       		.uleb128 0xb
 9665 01f7 3B       		.uleb128 0x3b
 9666 01f8 0B       		.uleb128 0xb
 9667 01f9 49       		.uleb128 0x49
 9668 01fa 13       		.uleb128 0x13
 9669 01fb 02       		.uleb128 0x2
 9670 01fc 06       		.uleb128 0x6
 9671 01fd 00       		.byte	0x0
 9672 01fe 00       		.byte	0x0
 9673 01ff 24       		.uleb128 0x24
 9674 0200 34       		.uleb128 0x34
 9675 0201 00       		.byte	0x0
 9676 0202 03       		.uleb128 0x3
 9677 0203 0E       		.uleb128 0xe
 9678 0204 3A       		.uleb128 0x3a
 9679 0205 0B       		.uleb128 0xb
 9680 0206 3B       		.uleb128 0x3b
 9681 0207 0B       		.uleb128 0xb
 9682 0208 49       		.uleb128 0x49
 9683 0209 13       		.uleb128 0x13
 9684 020a 02       		.uleb128 0x2
 9685 020b 0A       		.uleb128 0xa
 9686 020c 00       		.byte	0x0
 9687 020d 00       		.byte	0x0
 9688 020e 25       		.uleb128 0x25
 9689 020f 34       		.uleb128 0x34
 9690 0210 00       		.byte	0x0
 9691 0211 03       		.uleb128 0x3
 9692 0212 0E       		.uleb128 0xe
 9693 0213 3A       		.uleb128 0x3a
 9694 0214 0B       		.uleb128 0xb
 9695 0215 3B       		.uleb128 0x3b
 9696 0216 0B       		.uleb128 0xb
 9697 0217 49       		.uleb128 0x49
 9698 0218 13       		.uleb128 0x13
ARM GAS  C:\DOCUME~1\TECHCO~1\LOCALS~1\Temp/ccQdbaaa.s 			page 191


 9699 0219 00       		.byte	0x0
 9700 021a 00       		.byte	0x0
 9701 021b 26       		.uleb128 0x26
 9702 021c 34       		.uleb128 0x34
 9703 021d 00       		.byte	0x0
 9704 021e 03       		.uleb128 0x3
 9705 021f 08       		.uleb128 0x8
 9706 0220 3A       		.uleb128 0x3a
 9707 0221 0B       		.uleb128 0xb
 9708 0222 3B       		.uleb128 0x3b
 9709 0223 0B       		.uleb128 0xb
 9710 0224 49       		.uleb128 0x49
 9711 0225 13       		.uleb128 0x13
 9712 0226 00       		.byte	0x0
 9713 0227 00       		.byte	0x0
 9714 0228 27       		.uleb128 0x27
 9715 0229 0B       		.uleb128 0xb
 9716 022a 01       		.byte	0x1
 9717 022b 55       		.uleb128 0x55
 9718 022c 06       		.uleb128 0x6
 9719 022d 00       		.byte	0x0
 9720 022e 00       		.byte	0x0
 9721 022f 28       		.uleb128 0x28
 9722 0230 34       		.uleb128 0x34
 9723 0231 00       		.byte	0x0
 9724 0232 03       		.uleb128 0x3
 9725 0233 0E       		.uleb128 0xe
 9726 0234 3A       		.uleb128 0x3a
 9727 0235 0B       		.uleb128 0xb
 9728 0236 3B       		.uleb128 0x3b
 9729 0237 0B       		.uleb128 0xb
 9730 0238 49       		.uleb128 0x49
 9731 0239 13       		.uleb128 0x13
 9732 023a 3F       		.uleb128 0x3f
 9733 023b 0C       		.uleb128 0xc
 9734 023c 02       		.uleb128 0x2
 9735 023d 0A       		.uleb128 0xa
 9736 023e 00       		.byte	0x0
 9737 023f 00       		.byte	0x0
 9738 0240 29       		.uleb128 0x29
 9739 0241 34       		.uleb128 0x34
 9740 0242 00       		.byte	0x0
 9741 0243 03       		.uleb128 0x3
 9742 0244 08       		.uleb128 0x8
 9743 0245 3A       		.uleb128 0x3a
 9744 0246 0B       		.uleb128 0xb
 9745 0247 3B       		.uleb128 0x3b
 9746 0248 0B       		.uleb128 0xb
 9747 0249 49       		.uleb128 0x49
 9748 024a 13       		.uleb128 0x13
 9749 024b 3F       		.uleb128 0x3f
 9750 024c 0C       		.uleb128 0xc
 9751 024d 02       		.uleb128 0x2
 9752 024e 0A       		.uleb128 0xa
 9753 024f 00       		.byte	0x0
 9754 0250 00       		.byte	0x0
 9755 0251 00       		.byte	0x0
ARM GAS  C:\DOCUME~1\TECHCO~1\LOCALS~1\Temp/ccQdbaaa.s 			page 192


 9756              		.section	.debug_pubnames,"",%progbits
 9757 0000 88030000 		.4byte	0x388
 9758 0004 0200     		.2byte	0x2
 9759 0006 00000000 		.4byte	.Ldebug_info0
 9760 000a 7F180000 		.4byte	0x187f
 9761 000e 080B0000 		.4byte	0xb08
 9762 0012 62697443 		.ascii	"bitCount\000"
 9762      6F756E74 
 9762      00
 9763 001b 6D0B0000 		.4byte	0xb6d
 9764 001f 70726F63 		.ascii	"processGetOrientationPins\000"
 9764      65737347 
 9764      65744F72 
 9764      69656E74 
 9764      6174696F 
 9765 0039 C60B0000 		.4byte	0xbc6
 9766 003d 67657449 		.ascii	"getInitialState\000"
 9766      6E697469 
 9766      616C5374 
 9766      61746500 
 9767 004d 430C0000 		.4byte	0xc43
 9768 0051 67657443 		.ascii	"getCube\000"
 9768      75626500 
 9769 0059 8B0C0000 		.4byte	0xc8b
 9770 005d 67657443 		.ascii	"getCubeState\000"
 9770      75626553 
 9770      74617465 
 9770      00
 9771 006a E60C0000 		.4byte	0xce6
 9772 006e 67657443 		.ascii	"getCubeLink\000"
 9772      7562654C 
 9772      696E6B00 
 9773 007a 2F0D0000 		.4byte	0xd2f
 9774 007e 67657450 		.ascii	"getPinOrientation\000"
 9774      696E4F72 
 9774      69656E74 
 9774      6174696F 
 9774      6E00
 9775 0090 7A0D0000 		.4byte	0xd7a
 9776 0094 63686563 		.ascii	"checksum_calc\000"
 9776      6B73756D 
 9776      5F63616C 
 9776      6300
 9777 00a2 E10D0000 		.4byte	0xde1
 9778 00a6 63756265 		.ascii	"cube_checksum_generator\000"
 9778      5F636865 
 9778      636B7375 
 9778      6D5F6765 
 9778      6E657261 
 9779 00be 260E0000 		.4byte	0xe26
 9780 00c2 73746174 		.ascii	"state_checksum_generator\000"
 9780      655F6368 
 9780      65636B73 
 9780      756D5F67 
 9780      656E6572 
 9781 00db 5F0E0000 		.4byte	0xe5f
 9782 00df 7072696E 		.ascii	"printOrientationErrorCode\000"
ARM GAS  C:\DOCUME~1\TECHCO~1\LOCALS~1\Temp/ccQdbaaa.s 			page 193


 9782      744F7269 
 9782      656E7461 
 9782      74696F6E 
 9782      4572726F 
 9783 00f9 8A0E0000 		.4byte	0xe8a
 9784 00fd 64656C65 		.ascii	"deleteMorphology\000"
 9784      74654D6F 
 9784      7270686F 
 9784      6C6F6779 
 9784      00
 9785 010e B30E0000 		.4byte	0xeb3
 9786 0112 6275696C 		.ascii	"buildMorphologyFromFile\000"
 9786      644D6F72 
 9786      70686F6C 
 9786      6F677946 
 9786      726F6D46 
 9787 012a 1E0F0000 		.4byte	0xf1e
 9788 012e 77726974 		.ascii	"writeMorphologyToFile\000"
 9788      654D6F72 
 9788      70686F6C 
 9788      6F677954 
 9788      6F46696C 
 9789 0144 970F0000 		.4byte	0xf97
 9790 0148 656E6162 		.ascii	"enableAngleTracking\000"
 9790      6C65416E 
 9790      676C6554 
 9790      7261636B 
 9790      696E6700 
 9791 015c F80F0000 		.4byte	0xff8
 9792 0160 696E7365 		.ascii	"insertNewLinkEntry\000"
 9792      72744E65 
 9792      774C696E 
 9792      6B456E74 
 9792      727900
 9793 0173 EF100000 		.4byte	0x10ef
 9794 0177 696E7365 		.ascii	"insertNewCubeEntry\000"
 9794      72744E65 
 9794      77437562 
 9794      65456E74 
 9794      727900
 9795 018a 4B110000 		.4byte	0x114b
 9796 018e 696E7365 		.ascii	"insertInitialState\000"
 9796      7274496E 
 9796      69746961 
 9796      6C537461 
 9796      746500
 9797 01a1 C7110000 		.4byte	0x11c7
 9798 01a5 7072696E 		.ascii	"printExternalCommand\000"
 9798      74457874 
 9798      65726E61 
 9798      6C436F6D 
 9798      6D616E64 
 9799 01ba EE110000 		.4byte	0x11ee
 9800 01be 7365744F 		.ascii	"setOrientationPin\000"
 9800      7269656E 
 9800      74617469 
 9800      6F6E5069 
ARM GAS  C:\DOCUME~1\TECHCO~1\LOCALS~1\Temp/ccQdbaaa.s 			page 194


 9800      6E00
 9801 01d0 8B120000 		.4byte	0x128b
 9802 01d4 7365744F 		.ascii	"setOrientationPin_AR\000"
 9802      7269656E 
 9802      74617469 
 9802      6F6E5069 
 9802      6E5F4152 
 9803 01e9 26130000 		.4byte	0x1326
 9804 01ed 6765744D 		.ascii	"getMeasuredAngle\000"
 9804      65617375 
 9804      72656441 
 9804      6E676C65 
 9804      00
 9805 01fe 87130000 		.4byte	0x1387
 9806 0202 6765744D 		.ascii	"getMeasuredAngle_AR\000"
 9806      65617375 
 9806      72656441 
 9806      6E676C65 
 9806      5F415200 
 9807 0216 02140000 		.4byte	0x1402
 9808 021a 73657449 		.ascii	"setInitialState\000"
 9808      6E697469 
 9808      616C5374 
 9808      61746500 
 9809 022a 69140000 		.4byte	0x1469
 9810 022e 6765744F 		.ascii	"getOrientationPins\000"
 9810      7269656E 
 9810      74617469 
 9810      6F6E5069 
 9810      6E7300
 9811 0241 EE140000 		.4byte	0x14ee
 9812 0245 6765744F 		.ascii	"getOrientationPins_AR\000"
 9812      7269656E 
 9812      74617469 
 9812      6F6E5069 
 9812      6E735F41 
 9813 025b 79150000 		.4byte	0x1579
 9814 025f 62726F61 		.ascii	"broadcastSetAddressWithOrientationPin\000"
 9814      64636173 
 9814      74536574 
 9814      41646472 
 9814      65737357 
 9815 0285 C3150000 		.4byte	0x15c3
 9816 0289 62726F61 		.ascii	"broadcastSetAddressWithOrientationPin_AR\000"
 9816      64636173 
 9816      74536574 
 9816      41646472 
 9816      65737357 
 9817 02b2 1E160000 		.4byte	0x161e
 9818 02b6 62726F61 		.ascii	"broadcastGetOrientationPins\000"
 9818      64636173 
 9818      74476574 
 9818      4F726965 
 9818      6E746174 
 9819 02d2 7E160000 		.4byte	0x167e
 9820 02d6 62726F61 		.ascii	"broadcastGetOrientationPins_AR\000"
 9820      64636173 
ARM GAS  C:\DOCUME~1\TECHCO~1\LOCALS~1\Temp/ccQdbaaa.s 			page 195


 9820      74476574 
 9820      4F726965 
 9820      6E746174 
 9821 02f5 E3160000 		.4byte	0x16e3
 9822 02f9 6275696C 		.ascii	"buildMorphology\000"
 9822      644D6F72 
 9822      70686F6C 
 9822      6F677900 
 9823 0309 B4170000 		.4byte	0x17b4
 9824 030d 636D6573 		.ascii	"cmesh\000"
 9824      6800
 9825 0313 CC170000 		.4byte	0x17cc
 9826 0317 65667300 		.ascii	"efs\000"
 9827 031b DE170000 		.4byte	0x17de
 9828 031f 66696C65 		.ascii	"filer\000"
 9828      7200
 9829 0325 F0170000 		.4byte	0x17f0
 9830 0329 66696C65 		.ascii	"filew\000"
 9830      7700
 9831 032f 02180000 		.4byte	0x1802
 9832 0333 6C697374 		.ascii	"list\000"
 9832      00
 9833 0338 14180000 		.4byte	0x1814
 9834 033c 63756265 		.ascii	"cubemorph\000"
 9834      6D6F7270 
 9834      6800
 9835 0346 36180000 		.4byte	0x1836
 9836 034a 636D6442 		.ascii	"cmdBufferData\000"
 9836      75666665 
 9836      72446174 
 9836      6100
 9837 0358 48180000 		.4byte	0x1848
 9838 035c 636D6442 		.ascii	"cmdBuffer\000"
 9838      75666665 
 9838      7200
 9839 0366 5A180000 		.4byte	0x185a
 9840 036a 696E745F 		.ascii	"int_busRxPkt\000"
 9840      62757352 
 9840      78506B74 
 9840      00
 9841 0377 6C180000 		.4byte	0x186c
 9842 037b 6578745F 		.ascii	"ext_busRxPkt\000"
 9842      62757352 
 9842      78506B74 
 9842      00
 9843 0388 00000000 		.4byte	0x0
 9844              		.section	.debug_aranges,"",%progbits
 9845 0000 1C000000 		.4byte	0x1c
 9846 0004 0200     		.2byte	0x2
 9847 0006 00000000 		.4byte	.Ldebug_info0
 9848 000a 04       		.byte	0x4
 9849 000b 00       		.byte	0x0
 9850 000c 0000     		.2byte	0x0
 9851 000e 0000     		.2byte	0x0
 9852 0010 00000000 		.4byte	.Ltext0
 9853 0014 F0220000 		.4byte	.Letext0-.Ltext0
 9854 0018 00000000 		.4byte	0x0
ARM GAS  C:\DOCUME~1\TECHCO~1\LOCALS~1\Temp/ccQdbaaa.s 			page 196


 9855 001c 00000000 		.4byte	0x0
 9856              		.section	.debug_ranges,"",%progbits
 9857              	.Ldebug_ranges0:
 9858 0000 C81E0000 		.4byte	.LBB6-.Ltext0
 9859 0004 C4210000 		.4byte	.LBE6-.Ltext0
 9860 0008 00220000 		.4byte	.LBB8-.Ltext0
 9861 000c 9C220000 		.4byte	.LBE8-.Ltext0
 9862 0010 00000000 		.4byte	0x0
 9863 0014 00000000 		.4byte	0x0
 9864 0018 E81E0000 		.4byte	.LBB7-.Ltext0
 9865 001c B4210000 		.4byte	.LBE7-.Ltext0
 9866 0020 00220000 		.4byte	.LBB9-.Ltext0
 9867 0024 9C220000 		.4byte	.LBE9-.Ltext0
 9868 0028 00000000 		.4byte	0x0
 9869 002c 00000000 		.4byte	0x0
 9870              		.section	.debug_str,"MS",%progbits,1
 9871              	.LASF181:
 9872 0000 6275696C 		.ascii	"buildMorphologyFromFile\000"
 9872      644D6F72 
 9872      70686F6C 
 9872      6F677946 
 9872      726F6D46 
 9873              	.LASF136:
 9874 0018 43554245 		.ascii	"CUBELINKS\000"
 9874      4C494E4B 
 9874      5300
 9875              	.LASF143:
 9876 0022 63756265 		.ascii	"cubecount\000"
 9876      636F756E 
 9876      7400
 9877              	.LASF186:
 9878 002c 656E6162 		.ascii	"enableAngleTracking\000"
 9878      6C65416E 
 9878      676C6554 
 9878      7261636B 
 9878      696E6700 
 9879              	.LASF33:
 9880 0040 62756670 		.ascii	"bufptr\000"
 9880      747200
 9881              	.LASF56:
 9882 0047 53656374 		.ascii	"SectorsPerCluster\000"
 9882      6F727350 
 9882      6572436C 
 9882      75737465 
 9882      7200
 9883              	.LASF155:
 9884 0059 70617261 		.ascii	"params\000"
 9884      6D7300
 9885              	.LASF152:
 9886 0060 64617461 		.ascii	"dataindex\000"
 9886      696E6465 
 9886      7800
 9887              	.LASF167:
 9888 006a 67657443 		.ascii	"getCubeState\000"
 9888      75626553 
 9888      74617465 
 9888      00
ARM GAS  C:\DOCUME~1\TECHCO~1\LOCALS~1\Temp/ccQdbaaa.s 			page 197


 9889              	.LASF71:
 9890 0077 46697273 		.ascii	"FirstSectorRootDir\000"
 9890      74536563 
 9890      746F7252 
 9890      6F6F7444 
 9890      697200
 9891              	.LASF6:
 9892 008a 63686172 		.ascii	"char\000"
 9892      00
 9893              	.LASF216:
 9894 008f 6765744F 		.ascii	"getOrientationPins_AR\000"
 9894      7269656E 
 9894      74617469 
 9894      6F6E5069 
 9894      6E735F41 
 9895              	.LASF107:
 9896 00a5 6D794361 		.ascii	"myCard\000"
 9896      726400
 9897              	.LASF55:
 9898 00ac 42797465 		.ascii	"BytesPerSector\000"
 9898      73506572 
 9898      53656374 
 9898      6F7200
 9899              	.LASF222:
 9900 00bb 6275696C 		.ascii	"buildMorphology\000"
 9900      644D6F72 
 9900      70686F6C 
 9900      6F677900 
 9901              	.LASF13:
 9902 00cb 6E6F6465 		.ascii	"node\000"
 9902      00
 9903              	.LASF76:
 9904 00d0 53656374 		.ascii	"Sector\000"
 9904      6F7200
 9905              	.LASF3:
 9906 00d7 756E7369 		.ascii	"unsigned int\000"
 9906      676E6564 
 9906      20696E74 
 9906      00
 9907              	.LASF10:
 9908 00e4 6E657874 		.ascii	"next\000"
 9908      00
 9909              	.LASF148:
 9910 00e9 73747275 		.ascii	"struct_cBuffer\000"
 9910      63745F63 
 9910      42756666 
 9910      657200
 9911              	.LASF160:
 9912 00f8 70726F63 		.ascii	"processGetOrientationPins\000"
 9912      65737347 
 9912      65744F72 
 9912      69656E74 
 9912      6174696F 
 9913              	.LASF48:
 9914 0112 44697363 		.ascii	"Disc\000"
 9914      00
 9915              	.LASF16:
ARM GAS  C:\DOCUME~1\TECHCO~1\LOCALS~1\Temp/ccQdbaaa.s 			page 198


 9916 0117 68656164 		.ascii	"head\000"
 9916      00
 9917              	.LASF145:
 9918 011c 73746174 		.ascii	"statecount\000"
 9918      65636F75 
 9918      6E7400
 9919              	.LASF49:
 9920 0127 696F6D61 		.ascii	"ioman\000"
 9920      6E00
 9921              	.LASF191:
 9922 012d 63756265 		.ascii	"cubeA_side\000"
 9922      415F7369 
 9922      646500
 9923              	.LASF101:
 9924 0138 4C6F6361 		.ascii	"Location\000"
 9924      74696F6E 
 9924      00
 9925              	.LASF57:
 9926 0141 52657365 		.ascii	"ReservedSectorCount\000"
 9926      72766564 
 9926      53656374 
 9926      6F72436F 
 9926      756E7400 
 9927              	.LASF62:
 9928 0155 53656374 		.ascii	"SectorCount32\000"
 9928      6F72436F 
 9928      756E7433 
 9928      3200
 9929              	.LASF77:
 9930 0163 4F666673 		.ascii	"Offset\000"
 9930      657400
 9931              	.LASF140:
 9932 016a 636C696E 		.ascii	"clinks\000"
 9932      6B7300
 9933              	.LASF11:
 9934 0171 70726576 		.ascii	"prev\000"
 9934      00
 9935              	.LASF159:
 9936 0176 62697443 		.ascii	"bitCount\000"
 9936      6F756E74 
 9936      00
 9937              	.LASF69:
 9938 017f 46617453 		.ascii	"FatSectorCount\000"
 9938      6563746F 
 9938      72436F75 
 9938      6E7400
 9939              	.LASF111:
 9940 018e 6D794673 		.ascii	"myFs\000"
 9940      00
 9941              	.LASF103:
 9942 0193 46696C65 		.ascii	"FileStatus\000"
 9942      53746174 
 9942      757300
 9943              	.LASF223:
 9944 019e 6D6F7270 		.ascii	"morphology\000"
 9944      686F6C6F 
 9944      677900
ARM GAS  C:\DOCUME~1\TECHCO~1\LOCALS~1\Temp/ccQdbaaa.s 			page 199


 9945              	.LASF38:
 9946 01a9 72656665 		.ascii	"reference\000"
 9946      72656E63 
 9946      6500
 9947              	.LASF178:
 9948 01b3 7072696E 		.ascii	"printOrientationErrorCode\000"
 9948      744F7269 
 9948      656E7461 
 9948      74696F6E 
 9948      4572726F 
 9949              	.LASF66:
 9950 01cd 70617274 		.ascii	"part\000"
 9950      00
 9951              	.LASF206:
 9952 01d2 74617267 		.ascii	"targetClass\000"
 9952      6574436C 
 9952      61737300 
 9953              	.LASF106:
 9954 01de 456D6265 		.ascii	"EmbeddedFileSystem\000"
 9954      64646564 
 9954      46696C65 
 9954      53797374 
 9954      656D00
 9955              	.LASF239:
 9956 01f1 633A5C4D 		.ascii	"c:\\MScubes\\Simulator\\2008conv\\controller\\runti"
 9956      53637562 
 9956      65735C53 
 9956      696D756C 
 9956      61746F72 
 9957 021f 6D6500   		.ascii	"me\000"
 9958              	.LASF43:
 9959 0222 4348535F 		.ascii	"CHS_begin\000"
 9959      62656769 
 9959      6E00
 9960              	.LASF104:
 9961 022c 46696C65 		.ascii	"FilePtr\000"
 9961      50747200 
 9962              	.LASF81:
 9963 0234 4C6F6769 		.ascii	"LogicCluster\000"
 9963      63436C75 
 9963      73746572 
 9963      00
 9964              	.LASF64:
 9965 0241 526F6F74 		.ascii	"RootCluster\000"
 9965      436C7573 
 9965      74657200 
 9966              	.LASF175:
 9967 024d 635F6275 		.ascii	"c_buf\000"
 9967      6600
 9968              	.LASF119:
 9969 0253 636D6443 		.ascii	"cmdCount\000"
 9969      6F756E74 
 9969      00
 9970              	.LASF172:
 9971 025c 63756265 		.ascii	"cubeB_pin\000"
 9971      425F7069 
 9971      6E00
ARM GAS  C:\DOCUME~1\TECHCO~1\LOCALS~1\Temp/ccQdbaaa.s 			page 200


 9972              	.LASF157:
 9973 0266 5258504B 		.ascii	"RXPKT\000"
 9973      5400
 9974              	.LASF199:
 9975 026c 696E7365 		.ascii	"insertNewCubeEntry\000"
 9975      72744E65 
 9975      77437562 
 9975      65456E74 
 9975      727900
 9976              	.LASF238:
 9977 027f 6D6F7270 		.ascii	"morphology.c\000"
 9977      686F6C6F 
 9977      67792E63 
 9977      00
 9978              	.LASF213:
 9979 028c 6765744D 		.ascii	"getMeasuredAngle_AR\000"
 9979      65617375 
 9979      72656441 
 9979      6E676C65 
 9979      5F415200 
 9980              	.LASF15:
 9981 02a0 636F756E 		.ascii	"count\000"
 9981      7400
 9982              	.LASF162:
 9983 02a6 746D705F 		.ascii	"tmp_pins\000"
 9983      70696E73 
 9983      00
 9984              	.LASF8:
 9985 02af 6C6F6E67 		.ascii	"long long unsigned int\000"
 9985      206C6F6E 
 9985      6720756E 
 9985      7369676E 
 9985      65642069 
 9986              	.LASF52:
 9987 02c6 64697363 		.ascii	"disc\000"
 9987      00
 9988              	.LASF196:
 9989 02cb 63756265 		.ascii	"cubeB\000"
 9989      4200
 9990              	.LASF32:
 9991 02d1 69666163 		.ascii	"iface\000"
 9991      6500
 9992              	.LASF79:
 9993 02d7 436C7573 		.ascii	"ClusterChain\000"
 9993      74657243 
 9993      6861696E 
 9993      00
 9994              	.LASF204:
 9995 02e4 7365744F 		.ascii	"setOrientationPin\000"
 9995      7269656E 
 9995      74617469 
 9995      6F6E5069 
 9995      6E00
 9996              	.LASF97:
 9997 02f6 46697273 		.ascii	"FirstClusterLow\000"
 9997      74436C75 
 9997      73746572 
ARM GAS  C:\DOCUME~1\TECHCO~1\LOCALS~1\Temp/ccQdbaaa.s 			page 201


 9997      4C6F7700 
 9998              	.LASF210:
 9999 0306 72657476 		.ascii	"retval\000"
 9999      616C00
 10000              	.LASF98:
 10001 030d 46696C65 		.ascii	"FileSize\000"
 10001      53697A65 
 10001      00
 10002              	.LASF126:
 10003 0316 76616C75 		.ascii	"value\000"
 10003      6500
 10004              	.LASF179:
 10005 031c 636F6465 		.ascii	"code\000"
 10005      00
 10006              	.LASF93:
 10007 0321 41636365 		.ascii	"AccessDate\000"
 10007      73734461 
 10007      746500
 10008              	.LASF211:
 10009 032c 6765744D 		.ascii	"getMeasuredAngle\000"
 10009      65617375 
 10009      72656441 
 10009      6E676C65 
 10009      00
 10010              	.LASF171:
 10011 033d 63756265 		.ascii	"cubeA_pin\000"
 10011      415F7069 
 10011      6E00
 10012              	.LASF158:
 10013 0347 70617261 		.ascii	"param_count\000"
 10013      6D5F636F 
 10013      756E7400 
 10014              	.LASF95:
 10015 0353 57726974 		.ascii	"WriteTime\000"
 10015      6554696D 
 10015      6500
 10016              	.LASF194:
 10017 035d 63756265 		.ascii	"cubeB_side\000"
 10017      425F7369 
 10017      646500
 10018              	.LASF51:
 10019 0368 50617274 		.ascii	"Partition\000"
 10019      6974696F 
 10019      6E00
 10020              	.LASF35:
 10021 0372 6E756D69 		.ascii	"numit\000"
 10021      7400
 10022              	.LASF58:
 10023 0378 4E756D62 		.ascii	"NumberOfFats\000"
 10023      65724F66 
 10023      46617473 
 10023      00
 10024              	.LASF105:
 10025 0385 456D6265 		.ascii	"EmbeddedFile\000"
 10025      64646564 
 10025      46696C65 
 10025      00
ARM GAS  C:\DOCUME~1\TECHCO~1\LOCALS~1\Temp/ccQdbaaa.s 			page 202


 10026              	.LASF144:
 10027 0392 63756265 		.ascii	"cubes\000"
 10027      7300
 10028              	.LASF73:
 10029 0398 46726565 		.ascii	"FreeClusterCount\000"
 10029      436C7573 
 10029      74657243 
 10029      6F756E74 
 10029      00
 10030              	.LASF174:
 10031 03a9 63686563 		.ascii	"checksum_calc\000"
 10031      6B73756D 
 10031      5F63616C 
 10031      6300
 10032              	.LASF96:
 10033 03b7 57726974 		.ascii	"WriteDate\000"
 10033      65446174 
 10033      6500
 10034              	.LASF94:
 10035 03c1 46697273 		.ascii	"FirstClusterHigh\000"
 10035      74436C75 
 10035      73746572 
 10035      48696768 
 10035      00
 10036              	.LASF87:
 10037 03d2 46696C65 		.ascii	"FileName\000"
 10037      4E616D65 
 10037      00
 10038              	.LASF198:
 10039 03db 6E657743 		.ascii	"newCubeIndexB\000"
 10039      75626549 
 10039      6E646578 
 10039      4200
 10040              	.LASF100:
 10041 03e9 44697245 		.ascii	"DirEntry\000"
 10041      6E747279 
 10041      00
 10042              	.LASF42:
 10043 03f2 626F6F74 		.ascii	"bootFlag\000"
 10043      466C6167 
 10043      00
 10044              	.LASF40:
 10045 03fb 63616368 		.ascii	"cache_mem\000"
 10045      655F6D65 
 10045      6D00
 10046              	.LASF193:
 10047 0405 63756265 		.ascii	"cubeB_class\000"
 10047      425F636C 
 10047      61737300 
 10048              	.LASF231:
 10049 0411 6C697374 		.ascii	"list\000"
 10049      00
 10050              	.LASF63:
 10051 0416 46617453 		.ascii	"FatSectorCount32\000"
 10051      6563746F 
 10051      72436F75 
 10051      6E743332 
ARM GAS  C:\DOCUME~1\TECHCO~1\LOCALS~1\Temp/ccQdbaaa.s 			page 203


 10051      00
 10052              	.LASF19:
 10053 0427 6573696E 		.ascii	"esint8\000"
 10053      743800
 10054              	.LASF170:
 10055 042e 67657450 		.ascii	"getPinOrientation\000"
 10055      696E4F72 
 10055      69656E74 
 10055      6174696F 
 10055      6E00
 10056              	.LASF117:
 10057 0440 63756265 		.ascii	"cubemesh\000"
 10057      6D657368 
 10057      00
 10058              	.LASF113:
 10059 0449 4469724C 		.ascii	"DirList\000"
 10059      69737400 
 10060              	.LASF169:
 10061 0451 67657443 		.ascii	"getCubeLink\000"
 10061      7562654C 
 10061      696E6B00 
 10062              	.LASF219:
 10063 045d 62726F61 		.ascii	"broadcastSetAddressWithOrientationPin_AR\000"
 10063      64636173 
 10063      74536574 
 10063      41646472 
 10063      65737357 
 10064              	.LASF123:
 10065 0486 63756265 		.ascii	"cubeClass\000"
 10065      436C6173 
 10065      7300
 10066              	.LASF39:
 10067 0490 69747074 		.ascii	"itptr\000"
 10067      7200
 10068              	.LASF108:
 10069 0496 6D79494F 		.ascii	"myIOman\000"
 10069      6D616E00 
 10070              	.LASF12:
 10071 049e 4E4F4445 		.ascii	"NODE\000"
 10071      00
 10072              	.LASF227:
 10073 04a3 6E657743 		.ascii	"newCubeClass\000"
 10073      75626543 
 10073      6C617373 
 10073      00
 10074              	.LASF173:
 10075 04b0 6F726965 		.ascii	"orient\000"
 10075      6E7400
 10076              	.LASF28:
 10077 04b7 73656374 		.ascii	"sector\000"
 10077      6F7200
 10078              	.LASF237:
 10079 04be 474E5520 		.ascii	"GNU C 4.1.1 (WinARM)\000"
 10079      4320342E 
 10079      312E3120 
 10079      2857696E 
 10079      41524D29 
ARM GAS  C:\DOCUME~1\TECHCO~1\LOCALS~1\Temp/ccQdbaaa.s 			page 204


 10080              	.LASF232:
 10081 04d3 63756265 		.ascii	"cubemorph\000"
 10081      6D6F7270 
 10081      6800
 10082              	.LASF29:
 10083 04dd 73746174 		.ascii	"status\000"
 10083      757300
 10084              	.LASF121:
 10085 04e4 43554245 		.ascii	"CUBEMESH\000"
 10085      4D455348 
 10085      00
 10086              	.LASF114:
 10087 04ed 63456E74 		.ascii	"cEntry\000"
 10087      727900
 10088              	.LASF208:
 10089 04f4 7365744F 		.ascii	"setOrientationPin_AR\000"
 10089      7269656E 
 10089      74617469 
 10089      6F6E5069 
 10089      6E5F4152 
 10090              	.LASF53:
 10091 0509 61637469 		.ascii	"activePartition\000"
 10091      76655061 
 10091      72746974 
 10091      696F6E00 
 10092              	.LASF118:
 10093 0519 746F706F 		.ascii	"topologyHash\000"
 10093      6C6F6779 
 10093      48617368 
 10093      00
 10094              	.LASF120:
 10095 0526 71756575 		.ascii	"queues\000"
 10095      657300
 10096              	.LASF112:
 10097 052d 4C697374 		.ascii	"ListDirEntry\000"
 10097      44697245 
 10097      6E747279 
 10097      00
 10098              	.LASF2:
 10099 053a 6C6F6E67 		.ascii	"long long int\000"
 10099      206C6F6E 
 10099      6720696E 
 10099      7400
 10100              	.LASF195:
 10101 0548 63756265 		.ascii	"cubeA\000"
 10101      4100
 10102              	.LASF218:
 10103 054e 61646472 		.ascii	"address\000"
 10103      65737300 
 10104              	.LASF115:
 10105 0556 72456E74 		.ascii	"rEntry\000"
 10105      727900
 10106              	.LASF154:
 10107 055d 64657663 		.ascii	"devclass\000"
 10107      6C617373 
 10107      00
 10108              	.LASF129:
ARM GAS  C:\DOCUME~1\TECHCO~1\LOCALS~1\Temp/ccQdbaaa.s 			page 205


 10109 0566 73656C66 		.ascii	"selfID\000"
 10109      494400
 10110              	.LASF110:
 10111 056d 6D795061 		.ascii	"myPart\000"
 10111      727400
 10112              	.LASF150:
 10113 0574 73697A65 		.ascii	"size\000"
 10113      00
 10114              	.LASF31:
 10115 0579 494F4D61 		.ascii	"IOManager\000"
 10115      6E616765 
 10115      7200
 10116              	.LASF46:
 10117 0583 4C42415F 		.ascii	"LBA_begin\000"
 10117      62656769 
 10117      6E00
 10118              	.LASF85:
 10119 058d 436C7573 		.ascii	"ClusterCount\000"
 10119      74657243 
 10119      6F756E74 
 10119      00
 10120              	.LASF235:
 10121 059a 696E745F 		.ascii	"int_busRxPkt\000"
 10121      62757352 
 10121      78506B74 
 10121      00
 10122              	.LASF88:
 10123 05a7 41747472 		.ascii	"Attribute\000"
 10123      69627574 
 10123      6500
 10124              	.LASF37:
 10125 05b1 73746163 		.ascii	"stack\000"
 10125      6B00
 10126              	.LASF146:
 10127 05b7 73746174 		.ascii	"states\000"
 10127      657300
 10128              	.LASF131:
 10129 05be 73656C66 		.ascii	"selfSide\000"
 10129      53696465 
 10129      00
 10130              	.LASF185:
 10131 05c7 77726974 		.ascii	"writeMorphologyToFile\000"
 10131      654D6F72 
 10131      70686F6C 
 10131      6F677954 
 10131      6F46696C 
 10132              	.LASF149:
 10133 05dd 64617461 		.ascii	"dataptr\000"
 10133      70747200 
 10134              	.LASF209:
 10135 05e5 72636F75 		.ascii	"rcount\000"
 10135      6E7400
 10136              	.LASF168:
 10137 05ec 63756265 		.ascii	"cube\000"
 10137      00
 10138              	.LASF116:
 10139 05f1 63757272 		.ascii	"currentEntry\000"
ARM GAS  C:\DOCUME~1\TECHCO~1\LOCALS~1\Temp/ccQdbaaa.s 			page 206


 10139      656E7445 
 10139      6E747279 
 10139      00
 10140              	.LASF122:
 10141 05fe 73746174 		.ascii	"statedesc\000"
 10141      65646573 
 10141      6300
 10142              	.LASF192:
 10143 0608 63756265 		.ascii	"cubeB_id\000"
 10143      425F6964 
 10143      00
 10144              	.LASF220:
 10145 0611 62726F61 		.ascii	"broadcastGetOrientationPins\000"
 10145      64636173 
 10145      74476574 
 10145      4F726965 
 10145      6E746174 
 10146              	.LASF212:
 10147 062d 616E676C 		.ascii	"angle\000"
 10147      6500
 10148              	.LASF36:
 10149 0633 6572726F 		.ascii	"error\000"
 10149      7200
 10150              	.LASF89:
 10151 0639 4E545265 		.ascii	"NTReserved\000"
 10151      73657276 
 10151      656400
 10152              	.LASF90:
 10153 0644 4D696C6C 		.ascii	"MilliSecTimeStamp\000"
 10153      69536563 
 10153      54696D65 
 10153      5374616D 
 10153      7000
 10154              	.LASF224:
 10155 0656 72657475 		.ascii	"returnval\000"
 10155      726E7661 
 10155      6C00
 10156              	.LASF141:
 10157 0660 4D435542 		.ascii	"MCUBE\000"
 10157      4500
 10158              	.LASF202:
 10159 0666 6E657753 		.ascii	"newState\000"
 10159      74617465 
 10159      00
 10160              	.LASF221:
 10161 066f 62726F61 		.ascii	"broadcastGetOrientationPins_AR\000"
 10161      64636173 
 10161      74476574 
 10161      4F726965 
 10161      6E746174 
 10162              	.LASF45:
 10163 068e 4348535F 		.ascii	"CHS_end\000"
 10163      656E6400 
 10164              	.LASF72:
 10165 0696 46697273 		.ascii	"FirstClusterCurrentDir\000"
 10165      74436C75 
 10165      73746572 
ARM GAS  C:\DOCUME~1\TECHCO~1\LOCALS~1\Temp/ccQdbaaa.s 			page 207


 10165      43757272 
 10165      656E7444 
 10166              	.LASF164:
 10167 06ad 6D6F7270 		.ascii	"morph\000"
 10167      6800
 10168              	.LASF138:
 10169 06b3 63756265 		.ascii	"cubeclass\000"
 10169      636C6173 
 10169      7300
 10170              	.LASF5:
 10171 06bd 73686F72 		.ascii	"short int\000"
 10171      7420696E 
 10171      7400
 10172              	.LASF132:
 10173 06c7 73656C66 		.ascii	"selfOrient\000"
 10173      4F726965 
 10173      6E7400
 10174              	.LASF1:
 10175 06d2 6C6F6E67 		.ascii	"long int\000"
 10175      20696E74 
 10175      00
 10176              	.LASF197:
 10177 06db 6E657743 		.ascii	"newCubeIndexA\000"
 10177      75626549 
 10177      6E646578 
 10177      4100
 10178              	.LASF165:
 10179 06e9 73746174 		.ascii	"state\000"
 10179      6500
 10180              	.LASF20:
 10181 06ef 6575696E 		.ascii	"euint8\000"
 10181      743800
 10182              	.LASF86:
 10183 06f6 46696C65 		.ascii	"FileRecord\000"
 10183      5265636F 
 10183      726400
 10184              	.LASF83:
 10185 0701 46697273 		.ascii	"FirstCluster\000"
 10185      74436C75 
 10185      73746572 
 10185      00
 10186              	.LASF70:
 10187 070e 53656374 		.ascii	"SectorCount\000"
 10187      6F72436F 
 10187      756E7400 
 10188              	.LASF217:
 10189 071a 62726F61 		.ascii	"broadcastSetAddressWithOrientationPin\000"
 10189      64636173 
 10189      74536574 
 10189      41646472 
 10189      65737357 
 10190              	.LASF203:
 10191 0740 7072696E 		.ascii	"printExternalCommand\000"
 10191      74457874 
 10191      65726E61 
 10191      6C436F6D 
 10191      6D616E64 
ARM GAS  C:\DOCUME~1\TECHCO~1\LOCALS~1\Temp/ccQdbaaa.s 			page 208


 10192              	.LASF147:
 10193 0755 4D4D4F52 		.ascii	"MMORPH\000"
 10193      504800
 10194              	.LASF229:
 10195 075c 66696C65 		.ascii	"filer\000"
 10195      7200
 10196              	.LASF161:
 10197 0762 73696465 		.ascii	"side\000"
 10197      00
 10198              	.LASF128:
 10199 0767 636C696E 		.ascii	"clink\000"
 10199      6B00
 10200              	.LASF230:
 10201 076d 66696C65 		.ascii	"filew\000"
 10201      7700
 10202              	.LASF177:
 10203 0773 73746174 		.ascii	"state_checksum_generator\000"
 10203      655F6368 
 10203      65636B73 
 10203      756D5F67 
 10203      656E6572 
 10204              	.LASF201:
 10205 078c 696E7365 		.ascii	"insertInitialState\000"
 10205      7274496E 
 10205      69746961 
 10205      6C537461 
 10205      746500
 10206              	.LASF228:
 10207 079f 636D6573 		.ascii	"cmesh\000"
 10207      6800
 10208              	.LASF23:
 10209 07a5 6573696E 		.ascii	"esint32\000"
 10209      74333200 
 10210              	.LASF151:
 10211 07ad 64617461 		.ascii	"datalength\000"
 10211      6C656E67 
 10211      746800
 10212              	.LASF215:
 10213 07b8 6765744F 		.ascii	"getOrientationPins\000"
 10213      7269656E 
 10213      74617469 
 10213      6F6E5069 
 10213      6E7300
 10214              	.LASF65:
 10215 07cb 46696C65 		.ascii	"FileSystem\000"
 10215      53797374 
 10215      656D00
 10216              	.LASF30:
 10217 07d6 75736167 		.ascii	"usage\000"
 10217      6500
 10218              	.LASF59:
 10219 07dc 526F6F74 		.ascii	"RootEntryCount\000"
 10219      456E7472 
 10219      79436F75 
 10219      6E7400
 10220              	.LASF74:
 10221 07eb 4E657874 		.ascii	"NextFreeCluster\000"
ARM GAS  C:\DOCUME~1\TECHCO~1\LOCALS~1\Temp/ccQdbaaa.s 			page 209


 10221      46726565 
 10221      436C7573 
 10221      74657200 
 10222              	.LASF102:
 10223 07fb 43616368 		.ascii	"Cache\000"
 10223      6500
 10224              	.LASF189:
 10225 0801 63756265 		.ascii	"cubeA_id\000"
 10225      415F6964 
 10225      00
 10226              	.LASF75:
 10227 080a 46696C65 		.ascii	"FileLocation\000"
 10227      4C6F6361 
 10227      74696F6E 
 10227      00
 10228              	.LASF91:
 10229 0817 43726561 		.ascii	"CreatedTime\000"
 10229      74656454 
 10229      696D6500 
 10230              	.LASF21:
 10231 0823 6575696E 		.ascii	"euint16\000"
 10231      74313600 
 10232              	.LASF18:
 10233 082b 51554555 		.ascii	"QUEUE\000"
 10233      4500
 10234              	.LASF26:
 10235 0831 73656374 		.ascii	"sectorCount\000"
 10235      6F72436F 
 10235      756E7400 
 10236              	.LASF200:
 10237 083d 6E657743 		.ascii	"newCube\000"
 10237      75626500 
 10238              	.LASF99:
 10239 0845 46696C65 		.ascii	"File\000"
 10239      00
 10240              	.LASF0:
 10241 084a 6C6F6E67 		.ascii	"long unsigned int\000"
 10241      20756E73 
 10241      69676E65 
 10241      6420696E 
 10241      7400
 10242              	.LASF34:
 10243 085c 6E756D62 		.ascii	"numbuf\000"
 10243      756600
 10244              	.LASF137:
 10245 0863 6D637562 		.ascii	"mcube\000"
 10245      6500
 10246              	.LASF188:
 10247 0869 696E7365 		.ascii	"insertNewLinkEntry\000"
 10247      72744E65 
 10247      774C696E 
 10247      6B456E74 
 10247      727900
 10248              	.LASF14:
 10249 087c 71756575 		.ascii	"queue\000"
 10249      6500
 10250              	.LASF130:
ARM GAS  C:\DOCUME~1\TECHCO~1\LOCALS~1\Temp/ccQdbaaa.s 			page 210


 10251 0882 73656C66 		.ascii	"selfClass\000"
 10251      436C6173 
 10251      7300
 10252              	.LASF207:
 10253 088c 626F6172 		.ascii	"board\000"
 10253      6400
 10254              	.LASF50:
 10255 0892 70617274 		.ascii	"partitions\000"
 10255      6974696F 
 10255      6E7300
 10256              	.LASF133:
 10257 089d 6E656967 		.ascii	"neighborID\000"
 10257      68626F72 
 10257      494400
 10258              	.LASF190:
 10259 08a8 63756265 		.ascii	"cubeA_class\000"
 10259      415F636C 
 10259      61737300 
 10260              	.LASF184:
 10261 08b4 73746174 		.ascii	"state_chksum\000"
 10261      655F6368 
 10261      6B73756D 
 10261      00
 10262              	.LASF92:
 10263 08c1 43726561 		.ascii	"CreatedDate\000"
 10263      74656444 
 10263      61746500 
 10264              	.LASF44:
 10265 08cd 74797065 		.ascii	"type\000"
 10265      00
 10266              	.LASF4:
 10267 08d2 756E7369 		.ascii	"unsigned char\000"
 10267      676E6564 
 10267      20636861 
 10267      7200
 10268              	.LASF233:
 10269 08e0 636D6442 		.ascii	"cmdBufferData\000"
 10269      75666665 
 10269      72446174 
 10269      6100
 10270              	.LASF135:
 10271 08ee 6E656967 		.ascii	"neighborSide\000"
 10271      68626F72 
 10271      53696465 
 10271      00
 10272              	.LASF153:
 10273 08fb 63427566 		.ascii	"cBuffer\000"
 10273      66657200 
 10274              	.LASF109:
 10275 0903 6D794469 		.ascii	"myDisc\000"
 10275      736300
 10276              	.LASF17:
 10277 090a 7461696C 		.ascii	"tail\000"
 10277      00
 10278              	.LASF125:
 10279 090f 6368616E 		.ascii	"channel\000"
 10279      6E656C00 
ARM GAS  C:\DOCUME~1\TECHCO~1\LOCALS~1\Temp/ccQdbaaa.s 			page 211


 10280              	.LASF182:
 10281 0917 66696C65 		.ascii	"filename\000"
 10281      6E616D65 
 10281      00
 10282              	.LASF156:
 10283 0920 70617261 		.ascii	"paramCnt\000"
 10283      6D436E74 
 10283      00
 10284              	.LASF226:
 10285 0929 6E657743 		.ascii	"newCubeID\000"
 10285      75626549 
 10285      4400
 10286              	.LASF68:
 10287 0933 44617461 		.ascii	"DataClusterCount\000"
 10287      436C7573 
 10287      74657243 
 10287      6F756E74 
 10287      00
 10288              	.LASF180:
 10289 0944 64656C65 		.ascii	"deleteMorphology\000"
 10289      74654D6F 
 10289      7270686F 
 10289      6C6F6779 
 10289      00
 10290              	.LASF214:
 10291 0955 73657449 		.ascii	"setInitialState\000"
 10291      6E697469 
 10291      616C5374 
 10291      61746500 
 10292              	.LASF134:
 10293 0965 6E656967 		.ascii	"neighborClass\000"
 10293      68626F72 
 10293      436C6173 
 10293      7300
 10294              	.LASF22:
 10295 0973 65696E74 		.ascii	"eint32\000"
 10295      333200
 10296              	.LASF187:
 10297 097a 6572726F 		.ascii	"error_code\000"
 10297      725F636F 
 10297      646500
 10298              	.LASF84:
 10299 0985 4C617374 		.ascii	"LastCluster\000"
 10299      436C7573 
 10299      74657200 
 10300              	.LASF80:
 10301 0991 4C696E65 		.ascii	"Linear\000"
 10301      617200
 10302              	.LASF124:
 10303 0998 74696D65 		.ascii	"timestamp\000"
 10303      7374616D 
 10303      7000
 10304              	.LASF67:
 10305 09a2 766F6C75 		.ascii	"volumeId\000"
 10305      6D654964 
 10305      00
 10306              	.LASF47:
ARM GAS  C:\DOCUME~1\TECHCO~1\LOCALS~1\Temp/ccQdbaaa.s 			page 212


 10307 09ab 6E756D53 		.ascii	"numSectors\000"
 10307      6563746F 
 10307      727300
 10308              	.LASF24:
 10309 09b6 6575696E 		.ascii	"euint32\000"
 10309      74333200 
 10310              	.LASF9:
 10311 09be 7369676E 		.ascii	"signed char\000"
 10311      65642063 
 10311      68617200 
 10312              	.LASF7:
 10313 09ca 73686F72 		.ascii	"short unsigned int\000"
 10313      7420756E 
 10313      7369676E 
 10313      65642069 
 10313      6E7400
 10314              	.LASF225:
 10315 09dd 6C696E6B 		.ascii	"link\000"
 10315      00
 10316              	.LASF205:
 10317 09e2 74617267 		.ascii	"targetID\000"
 10317      65744944 
 10317      00
 10318              	.LASF41:
 10319 09eb 50617274 		.ascii	"PartitionField\000"
 10319      6974696F 
 10319      6E466965 
 10319      6C6400
 10320              	.LASF25:
 10321 09fa 6877496E 		.ascii	"hwInterface\000"
 10321      74657266 
 10321      61636500 
 10322              	.LASF142:
 10323 0a06 6D6D6F72 		.ascii	"mmorphology\000"
 10323      70686F6C 
 10323      6F677900 
 10324              	.LASF236:
 10325 0a12 6578745F 		.ascii	"ext_busRxPkt\000"
 10325      62757352 
 10325      78506B74 
 10325      00
 10326              	.LASF27:
 10327 0a1f 494F4D61 		.ascii	"IOManStack\000"
 10327      6E537461 
 10327      636B00
 10328              	.LASF166:
 10329 0a2a 67657443 		.ascii	"getCube\000"
 10329      75626500 
 10330              	.LASF163:
 10331 0a32 67657449 		.ascii	"getInitialState\000"
 10331      6E697469 
 10331      616C5374 
 10331      61746500 
 10332              	.LASF78:
 10333 0a42 61747472 		.ascii	"attrib\000"
 10333      696200
 10334              	.LASF61:
ARM GAS  C:\DOCUME~1\TECHCO~1\LOCALS~1\Temp/ccQdbaaa.s 			page 213


 10335 0a49 46617453 		.ascii	"FatSectorCount16\000"
 10335      6563746F 
 10335      72436F75 
 10335      6E743136 
 10335      00
 10336              	.LASF127:
 10337 0a5a 53544154 		.ascii	"STATEDESC\000"
 10337      45444553 
 10337      4300
 10338              	.LASF234:
 10339 0a64 636D6442 		.ascii	"cmdBuffer\000"
 10339      75666665 
 10339      7200
 10340              	.LASF54:
 10341 0a6e 566F6C75 		.ascii	"VolumeId\000"
 10341      6D654964 
 10341      00
 10342              	.LASF183:
 10343 0a77 63756265 		.ascii	"cube_chksum\000"
 10343      5F63686B 
 10343      73756D00 
 10344              	.LASF139:
 10345 0a83 6E756D6C 		.ascii	"numlinks\000"
 10345      696E6B73 
 10345      00
 10346              	.LASF82:
 10347 0a8c 44697363 		.ascii	"DiscCluster\000"
 10347      436C7573 
 10347      74657200 
 10348              	.LASF60:
 10349 0a98 53656374 		.ascii	"SectorCount16\000"
 10349      6F72436F 
 10349      756E7431 
 10349      3600
 10350              	.LASF176:
 10351 0aa6 63756265 		.ascii	"cube_checksum_generator\000"
 10351      5F636865 
 10351      636B7375 
 10351      6D5F6765 
 10351      6E657261 
 10352              		.ident	"GCC: (GNU) 4.1.1 (WinARM)"
ARM GAS  C:\DOCUME~1\TECHCO~1\LOCALS~1\Temp/ccQdbaaa.s 			page 214


DEFINED SYMBOLS
                            *ABS*:00000000 morphology.c
C:\DOCUME~1\TECHCO~1\LOCALS~1\Temp/ccQdbaaa.s:13     .text:00000000 bitCount
C:\DOCUME~1\TECHCO~1\LOCALS~1\Temp/ccQdbaaa.s:20     .text:00000000 $a
C:\DOCUME~1\TECHCO~1\LOCALS~1\Temp/ccQdbaaa.s:61     .text:00000058 processGetOrientationPins
C:\DOCUME~1\TECHCO~1\LOCALS~1\Temp/ccQdbaaa.s:190    .text:00000164 getInitialState
C:\DOCUME~1\TECHCO~1\LOCALS~1\Temp/ccQdbaaa.s:246    .text:000001e0 getCube
C:\DOCUME~1\TECHCO~1\LOCALS~1\Temp/ccQdbaaa.s:294    .text:00000244 getCubeState
C:\DOCUME~1\TECHCO~1\LOCALS~1\Temp/ccQdbaaa.s:345    .text:000002ac getCubeLink
C:\DOCUME~1\TECHCO~1\LOCALS~1\Temp/ccQdbaaa.s:392    .text:0000030c getPinOrientation
C:\DOCUME~1\TECHCO~1\LOCALS~1\Temp/ccQdbaaa.s:501    .text:00000434 checksum_calc
C:\DOCUME~1\TECHCO~1\LOCALS~1\Temp/ccQdbaaa.s:541    .text:0000046c cube_checksum_generator
C:\DOCUME~1\TECHCO~1\LOCALS~1\Temp/ccQdbaaa.s:621    .text:0000054c $d
                            *COM*:00000010 cubemorph
C:\DOCUME~1\TECHCO~1\LOCALS~1\Temp/ccQdbaaa.s:627    .text:00000550 state_checksum_generator
C:\DOCUME~1\TECHCO~1\LOCALS~1\Temp/ccQdbaaa.s:632    .text:00000550 $a
C:\DOCUME~1\TECHCO~1\LOCALS~1\Temp/ccQdbaaa.s:679    .text:000005d8 $d
C:\DOCUME~1\TECHCO~1\LOCALS~1\Temp/ccQdbaaa.s:742    .text:000005e0 printOrientationErrorCode
C:\DOCUME~1\TECHCO~1\LOCALS~1\Temp/ccQdbaaa.s:748    .text:000005e0 $a
C:\DOCUME~1\TECHCO~1\LOCALS~1\Temp/ccQdbaaa.s:756    .text:000005f0 $d
C:\DOCUME~1\TECHCO~1\LOCALS~1\Temp/ccQdbaaa.s:775    .text:00000634 $a
C:\DOCUME~1\TECHCO~1\LOCALS~1\Temp/ccQdbaaa.s:919    .text:00000754 $d
C:\DOCUME~1\TECHCO~1\LOCALS~1\Temp/ccQdbaaa.s:942    .text:0000079c deleteMorphology
C:\DOCUME~1\TECHCO~1\LOCALS~1\Temp/ccQdbaaa.s:947    .text:0000079c $a
C:\DOCUME~1\TECHCO~1\LOCALS~1\Temp/ccQdbaaa.s:1000   .text:00000830 $d
C:\DOCUME~1\TECHCO~1\LOCALS~1\Temp/ccQdbaaa.s:1006   .text:00000834 buildMorphologyFromFile
C:\DOCUME~1\TECHCO~1\LOCALS~1\Temp/ccQdbaaa.s:1012   .text:00000834 $a
C:\DOCUME~1\TECHCO~1\LOCALS~1\Temp/ccQdbaaa.s:1412   .text:00000d60 $d
                            *COM*:00000050 filer
                            *COM*:000002c4 efs
C:\DOCUME~1\TECHCO~1\LOCALS~1\Temp/ccQdbaaa.s:1421   .text:00000d70 writeMorphologyToFile
C:\DOCUME~1\TECHCO~1\LOCALS~1\Temp/ccQdbaaa.s:1427   .text:00000d70 $a
C:\DOCUME~1\TECHCO~1\LOCALS~1\Temp/ccQdbaaa.s:1792   .text:00001208 $d
C:\DOCUME~1\TECHCO~1\LOCALS~1\Temp/ccQdbaaa.s:1801   .text:00001218 enableAngleTracking
C:\DOCUME~1\TECHCO~1\LOCALS~1\Temp/ccQdbaaa.s:1807   .text:00001218 $a
C:\DOCUME~1\TECHCO~1\LOCALS~1\Temp/ccQdbaaa.s:1900   .text:0000130c insertNewLinkEntry
C:\DOCUME~1\TECHCO~1\LOCALS~1\Temp/ccQdbaaa.s:2114   .text:0000157c insertNewCubeEntry
C:\DOCUME~1\TECHCO~1\LOCALS~1\Temp/ccQdbaaa.s:2177   .text:0000161c insertInitialState
C:\DOCUME~1\TECHCO~1\LOCALS~1\Temp/ccQdbaaa.s:2281   .text:00001714 printExternalCommand
C:\DOCUME~1\TECHCO~1\LOCALS~1\Temp/ccQdbaaa.s:2350   .text:000017b4 $d
                            *COM*:00000084 ext_busRxPkt
C:\DOCUME~1\TECHCO~1\LOCALS~1\Temp/ccQdbaaa.s:2360   .text:000017c8 setOrientationPin
C:\DOCUME~1\TECHCO~1\LOCALS~1\Temp/ccQdbaaa.s:2366   .text:000017c8 $a
C:\DOCUME~1\TECHCO~1\LOCALS~1\Temp/ccQdbaaa.s:2479   .text:000018f8 $d
C:\DOCUME~1\TECHCO~1\LOCALS~1\Temp/ccQdbaaa.s:2485   .text:000018fc setOrientationPin_AR
C:\DOCUME~1\TECHCO~1\LOCALS~1\Temp/ccQdbaaa.s:2491   .text:000018fc $a
C:\DOCUME~1\TECHCO~1\LOCALS~1\Temp/ccQdbaaa.s:2537   .text:00001960 getMeasuredAngle
C:\DOCUME~1\TECHCO~1\LOCALS~1\Temp/ccQdbaaa.s:2624   .text:00001a40 $d
C:\DOCUME~1\TECHCO~1\LOCALS~1\Temp/ccQdbaaa.s:2630   .text:00001a44 getMeasuredAngle_AR
C:\DOCUME~1\TECHCO~1\LOCALS~1\Temp/ccQdbaaa.s:2636   .text:00001a44 $a
C:\DOCUME~1\TECHCO~1\LOCALS~1\Temp/ccQdbaaa.s:2673   .text:00001a90 setInitialState
C:\DOCUME~1\TECHCO~1\LOCALS~1\Temp/ccQdbaaa.s:2726   .text:00001b00 getOrientationPins
C:\DOCUME~1\TECHCO~1\LOCALS~1\Temp/ccQdbaaa.s:2830   .text:00001c00 $d
C:\DOCUME~1\TECHCO~1\LOCALS~1\Temp/ccQdbaaa.s:2837   .text:00001c08 getOrientationPins_AR
C:\DOCUME~1\TECHCO~1\LOCALS~1\Temp/ccQdbaaa.s:2843   .text:00001c08 $a
C:\DOCUME~1\TECHCO~1\LOCALS~1\Temp/ccQdbaaa.s:2882   .text:00001c5c broadcastSetAddressWithOrientationPin
C:\DOCUME~1\TECHCO~1\LOCALS~1\Temp/ccQdbaaa.s:2954   .text:00001d08 $d
ARM GAS  C:\DOCUME~1\TECHCO~1\LOCALS~1\Temp/ccQdbaaa.s 			page 215


C:\DOCUME~1\TECHCO~1\LOCALS~1\Temp/ccQdbaaa.s:2960   .text:00001d0c broadcastSetAddressWithOrientationPin_AR
C:\DOCUME~1\TECHCO~1\LOCALS~1\Temp/ccQdbaaa.s:2966   .text:00001d0c $a
C:\DOCUME~1\TECHCO~1\LOCALS~1\Temp/ccQdbaaa.s:2999   .text:00001d48 broadcastGetOrientationPins
C:\DOCUME~1\TECHCO~1\LOCALS~1\Temp/ccQdbaaa.s:3100   .text:00001e3c $d
C:\DOCUME~1\TECHCO~1\LOCALS~1\Temp/ccQdbaaa.s:3107   .text:00001e44 broadcastGetOrientationPins_AR
C:\DOCUME~1\TECHCO~1\LOCALS~1\Temp/ccQdbaaa.s:3113   .text:00001e44 $a
C:\DOCUME~1\TECHCO~1\LOCALS~1\Temp/ccQdbaaa.s:3195   .text:00001e88 buildMorphology
C:\DOCUME~1\TECHCO~1\LOCALS~1\Temp/ccQdbaaa.s:3607   .text:000022a8 $d
                            *COM*:00000004 cmesh
                            *COM*:00000050 filew
                            *COM*:00000034 list
                            *COM*:00000080 cmdBufferData
                            *COM*:0000000c cmdBuffer
                            *COM*:00000084 int_busRxPkt

UNDEFINED SYMBOLS
rprintf1RamRom
free
file_fopen
file_read
malloc
file_fclose
file_write
setServoSpeedAndAngle
printCommandErrorCode
setServoAngleTracking
realloc
rprintfu08
rprintfCRLF
cmd_BuildPacket
cmd_Execute
uartGetRxBuffer
packetRxProcess
packetRxProcess_NoAddrClassCheck
