ARM GAS  C:\DOCUME~1\TECHCO~1\LOCALS~1\Temp/cc6Paaaa.s 			page 1


   1              		.file	"queue.c"
   8 0000 92000000 		.text
   8      02004800 
   8      00000201 
   8      FB0E0A00 
   8      01010101 
   9              	.Ltext0:
  10              		.align	2
  11              		.global	initQueue
  12              		.type	initQueue, %function
  13              	initQueue:
  14              	.LFB3:
  15              		.file 1 "queue.c"
   1:queue.c       **** #include "global.h"
   2:queue.c       **** #include "queue.h"
   3:queue.c       **** #include "malloc.h"
   4:queue.c       **** #include "rprintf.h"
   5:queue.c       **** 
   6:queue.c       **** #define NULL ((void *) 0)
   7:queue.c       **** 
   8:queue.c       **** void initQueueArray(QUEUE *q, int count) {
   9:queue.c       **** 	int i;
  10:queue.c       **** 	for(i=0; i<count; i++)
  11:queue.c       **** 	{
  12:queue.c       **** 		initQueue(&q[i]);
  13:queue.c       **** 	}
  14:queue.c       **** }
  15:queue.c       **** 
  16:queue.c       **** void initQueue(QUEUE *q) {
  16              		.loc 1 16 0
  17              		@ args = 0, pretend = 0, frame = 0
  18              		@ frame_needed = 0, uses_anonymous_args = 0
  19              		@ link register save eliminated.
  20              	.LVL0:
  21              		@ lr needed for prologue
  17:queue.c       **** 	q->count = 0;
  22              		.loc 1 17 0
  23 0000 0020A0E3 		mov	r2, #0
  24 0004 042080E5 		str	r2, [r0, #4]
  18:queue.c       **** 	q->id = 0xFE; // default address
  25              		.loc 1 18 0
  26 0008 0130E0E3 		mvn	r3, #1
  27 000c 0030C0E5 		strb	r3, [r0, #0]
  19:queue.c       **** 	q->head = NULL;
  28              		.loc 1 19 0
  29 0010 082080E5 		str	r2, [r0, #8]
  20:queue.c       **** 	q->tail = NULL;
  30              		.loc 1 20 0
  31 0014 0C2080E5 		str	r2, [r0, #12]
  21:queue.c       **** }
  32              		.loc 1 21 0
ARM GAS  C:\DOCUME~1\TECHCO~1\LOCALS~1\Temp/cc6Paaaa.s 			page 2


  33 0018 1EFF2FE1 		bx	lr
  34              	.LFE3:
  35              		.size	initQueue, .-initQueue
  36              		.align	2
  37              		.global	initQueueArray
  38              		.type	initQueueArray, %function
  39              	initQueueArray:
  40              	.LFB2:
  41              		.loc 1 8 0
  42              		@ args = 0, pretend = 0, frame = 0
  43              		@ frame_needed = 0, uses_anonymous_args = 0
  44              	.LVL1:
  45 001c 70402DE9 		stmfd	sp!, {r4, r5, r6, lr}
  46              	.LCFI0:
  47              		.loc 1 10 0
  48 0020 006051E2 		subs	r6, r1, #0
  49 0024 7080BDD8 		ldmlefd	sp!, {r4, r5, r6, pc}
  50              	.LVL2:
  51 0028 0040A0E1 		mov	r4, r0
  52 002c 0050A0E3 		mov	r5, #0
  53              	.LVL3:
  54              	.L6:
  55              		.loc 1 12 0
  56 0030 0400A0E1 		mov	r0, r4
  57              	.LVL4:
  58 0034 FEFFFFEB 		bl	initQueue
  59              		.loc 1 10 0
  60 0038 015085E2 		add	r5, r5, #1
  61 003c 104084E2 		add	r4, r4, #16
  62 0040 050056E1 		cmp	r6, r5
  63 0044 0A00001A 		bne	.L6
  64 0048 7080BDE8 		ldmfd	sp!, {r4, r5, r6, pc}
  65              	.LFE2:
  66              		.size	initQueueArray, .-initQueueArray
  67              		.align	2
  68              		.global	enqueue
  69              		.type	enqueue, %function
  70              	enqueue:
  71              	.LFB4:
  22:queue.c       **** 
  23:queue.c       **** void enqueue(QUEUE *q, NODE *lnode) {
  72              		.loc 1 23 0
  73              		@ args = 0, pretend = 0, frame = 0
  74              		@ frame_needed = 0, uses_anonymous_args = 0
  75              		@ link register save eliminated.
  76              	.LVL5:
  77              		@ lr needed for prologue
  24:queue.c       **** 	if(q->head == NULL) {
  78              		.loc 1 24 0
  79 004c 083090E5 		ldr	r3, [r0, #8]
  80 0050 000053E3 		cmp	r3, #0
  25:queue.c       **** 		q->head = lnode;
  81              		.loc 1 25 0
  82 0054 08108005 		streq	r1, [r0, #8]
  26:queue.c       **** 		lnode->prev = NULL;
  83              		.loc 1 26 0
  84 0058 08308105 		streq	r3, [r1, #8]
ARM GAS  C:\DOCUME~1\TECHCO~1\LOCALS~1\Temp/cc6Paaaa.s 			page 3


  27:queue.c       **** 		q->count = 1;
  85              		.loc 1 27 0
  86 005c 01308302 		addeq	r3, r3, #1
  87 0060 04308005 		streq	r3, [r0, #4]
  88              		.loc 1 24 0
  89 0064 1F00000A 		beq	.L12
  28:queue.c       **** 	} else {
  29:queue.c       **** 		q->tail->next = lnode;
  90              		.loc 1 29 0
  91 0068 0C3090E5 		ldr	r3, [r0, #12]
  92 006c 041083E5 		str	r1, [r3, #4]
  30:queue.c       **** 		lnode->prev = q->tail;
  93              		.loc 1 30 0
  94 0070 0C3090E5 		ldr	r3, [r0, #12]
  95 0074 083081E5 		str	r3, [r1, #8]
  31:queue.c       **** 		q->count++;
  96              		.loc 1 31 0
  97 0078 043090E5 		ldr	r3, [r0, #4]
  98 007c 013083E2 		add	r3, r3, #1
  99 0080 043080E5 		str	r3, [r0, #4]
 100              	.L12:
  32:queue.c       **** 	}
  33:queue.c       **** 
  34:queue.c       **** 	q->tail = lnode;
 101              		.loc 1 34 0
 102 0084 0C1080E5 		str	r1, [r0, #12]
  35:queue.c       **** 	lnode->next = NULL;
 103              		.loc 1 35 0
 104 0088 0030A0E3 		mov	r3, #0
 105 008c 043081E5 		str	r3, [r1, #4]
  36:queue.c       **** }
 106              		.loc 1 36 0
 107 0090 1EFF2FE1 		bx	lr
 108              	.LFE4:
 109              		.size	enqueue, .-enqueue
 110              		.align	2
 111              		.global	getHead
 112              		.type	getHead, %function
 113              	getHead:
 114              	.LFB6:
  37:queue.c       **** 
  38:queue.c       **** u08 dequeue(QUEUE *q)
  39:queue.c       **** {
  40:queue.c       **** 	if(q->head == NULL) // queue empty error
  41:queue.c       **** 		return -1;
  42:queue.c       **** 	if(q->tail == q->head) // final element in queue
  43:queue.c       **** 	{
  44:queue.c       **** 		free(q->tail);
  45:queue.c       **** 		q->tail = NULL;
  46:queue.c       **** 		q->head = NULL;
  47:queue.c       **** 		q->count = 0;
  48:queue.c       **** 	}
  49:queue.c       **** 	else
  50:queue.c       **** 	{
  51:queue.c       **** 		q->head = q->head->next;
  52:queue.c       **** 		free(q->head->prev);
  53:queue.c       **** 		q->count--;
ARM GAS  C:\DOCUME~1\TECHCO~1\LOCALS~1\Temp/cc6Paaaa.s 			page 4


  54:queue.c       **** 	}
  55:queue.c       **** 	return 0;
  56:queue.c       **** }
  57:queue.c       **** 
  58:queue.c       **** NODE *getHead(QUEUE *q) {
 115              		.loc 1 58 0
 116              		@ args = 0, pretend = 0, frame = 0
 117              		@ frame_needed = 0, uses_anonymous_args = 0
 118              		@ link register save eliminated.
 119              	.LVL6:
 120              		@ lr needed for prologue
  59:queue.c       **** 	return q->head;
  60:queue.c       **** }
 121              		.loc 1 60 0
 122 0094 080090E5 		ldr	r0, [r0, #8]
 123              	.LVL7:
 124 0098 1EFF2FE1 		bx	lr
 125              	.LFE6:
 126              		.size	getHead, .-getHead
 127              		.align	2
 128              		.global	getTail
 129              		.type	getTail, %function
 130              	getTail:
 131              	.LFB7:
  61:queue.c       **** 
  62:queue.c       **** NODE *getTail(QUEUE *q) {
 132              		.loc 1 62 0
 133              		@ args = 0, pretend = 0, frame = 0
 134              		@ frame_needed = 0, uses_anonymous_args = 0
 135              		@ link register save eliminated.
 136              	.LVL8:
 137              		@ lr needed for prologue
  63:queue.c       **** 	return q->tail;
  64:queue.c       **** }
 138              		.loc 1 64 0
 139 009c 0C0090E5 		ldr	r0, [r0, #12]
 140              	.LVL9:
 141 00a0 1EFF2FE1 		bx	lr
 142              	.LFE7:
 143              		.size	getTail, .-getTail
 144              		.align	2
 145              		.global	getNodePtr
 146              		.type	getNodePtr, %function
 147              	getNodePtr:
 148              	.LFB8:
  65:queue.c       **** 
  66:queue.c       **** void *getNodePtr(NODE *n) {
 149              		.loc 1 66 0
 150              		@ args = 0, pretend = 0, frame = 0
 151              		@ frame_needed = 0, uses_anonymous_args = 0
 152              		@ link register save eliminated.
 153              	.LVL10:
 154              		@ lr needed for prologue
  67:queue.c       **** 	return n->ptr;
  68:queue.c       **** }
 155              		.loc 1 68 0
 156 00a4 000090E5 		ldr	r0, [r0, #0]
ARM GAS  C:\DOCUME~1\TECHCO~1\LOCALS~1\Temp/cc6Paaaa.s 			page 5


 157              	.LVL11:
 158 00a8 1EFF2FE1 		bx	lr
 159              	.LFE8:
 160              		.size	getNodePtr, .-getNodePtr
 161              		.align	2
 162              		.global	getQueueID
 163              		.type	getQueueID, %function
 164              	getQueueID:
 165              	.LFB9:
  69:queue.c       **** 
  70:queue.c       **** u08 getQueueID(QUEUE *q) {
 166              		.loc 1 70 0
 167              		@ args = 0, pretend = 0, frame = 0
 168              		@ frame_needed = 0, uses_anonymous_args = 0
 169              		@ link register save eliminated.
 170              	.LVL12:
 171              		@ lr needed for prologue
  71:queue.c       **** 	return q->id;
  72:queue.c       **** }
 172              		.loc 1 72 0
 173 00ac 0000D0E5 		ldrb	r0, [r0, #0]	@ zero_extendqisi2
 174              	.LVL13:
 175 00b0 1EFF2FE1 		bx	lr
 176              	.LFE9:
 177              		.size	getQueueID, .-getQueueID
 178              		.align	2
 179              		.global	setQueueID
 180              		.type	setQueueID, %function
 181              	setQueueID:
 182              	.LFB10:
  73:queue.c       **** 
  74:queue.c       **** void setQueueID(QUEUE *q, u08 id){
 183              		.loc 1 74 0
 184              		@ args = 0, pretend = 0, frame = 0
 185              		@ frame_needed = 0, uses_anonymous_args = 0
 186              		@ link register save eliminated.
 187              	.LVL14:
 188              		@ lr needed for prologue
  75:queue.c       **** 	q->id = id;
 189              		.loc 1 75 0
 190 00b4 0010C0E5 		strb	r1, [r0, #0]
  76:queue.c       **** }
 191              		.loc 1 76 0
 192 00b8 1EFF2FE1 		bx	lr
 193              	.LFE10:
 194              		.size	setQueueID, .-setQueueID
 195              		.align	2
 196              		.global	findQueueWithAddress
 197              		.type	findQueueWithAddress, %function
 198              	findQueueWithAddress:
 199              	.LFB11:
  77:queue.c       **** 
  78:queue.c       **** // returns first Queue with particular id
  79:queue.c       **** int findQueueWithAddress(u08 id, QUEUE *Qarray, u08 count, int *index) {
 200              		.loc 1 79 0
 201              		@ args = 0, pretend = 0, frame = 0
 202              		@ frame_needed = 0, uses_anonymous_args = 0
ARM GAS  C:\DOCUME~1\TECHCO~1\LOCALS~1\Temp/cc6Paaaa.s 			page 6


 203              	.LVL15:
 204 00bc 04E02DE5 		str	lr, [sp, #-4]!
 205              	.LCFI1:
 206 00c0 03E0A0E1 		mov	lr, r3
 207 00c4 FF0000E2 		and	r0, r0, #255
 208 00c8 FF2002E2 		and	r2, r2, #255
 209              	.LVL16:
  80:queue.c       **** 	int i;
  81:queue.c       **** 	for(i=0; i<count; i++)
 210              		.loc 1 81 0
 211 00cc 000052E3 		cmp	r2, #0
 212 00d0 420000DA 		ble	.L25
 213              	.LVL17:
  82:queue.c       **** 	{
  83:queue.c       **** 		if(Qarray[i].id == id)
 214              		.loc 1 83 0
 215 00d4 0030D1E5 		ldrb	r3, [r1, #0]	@ zero_extendqisi2
 216 00d8 000053E1 		cmp	r3, r0
 217 00dc 00C0A003 		moveq	ip, #0
 218              	.LVL18:
 219 00e0 3B00000A 		beq	.L29
 220 00e4 3E0000EA 		b	.L27
 221              	.L30:
 222 00e8 0C32D1E7 		ldrb	r3, [r1, ip, asl #4]	@ zero_extendqisi2
 223 00ec 000053E1 		cmp	r3, r0
 224 00f0 3F00001A 		bne	.L31
 225              	.L29:
  84:queue.c       **** 		{
  85:queue.c       **** 			*index = i;
 226              		.loc 1 85 0
 227 00f4 00C08EE5 		str	ip, [lr, #0]
 228 00f8 0000E0E3 		mvn	r0, #0
 229              	.LVL19:
 230 00fc 04F09DE4 		ldr	pc, [sp], #4
 231              	.LVL20:
 232              	.L27:
  86:queue.c       **** 			return TRUE;
 233              		.loc 1 86 0
 234 0100 00C0A0E3 		mov	ip, #0
 235              	.L31:
 236              		.loc 1 81 0
 237 0104 01C08CE2 		add	ip, ip, #1
 238 0108 02005CE1 		cmp	ip, r2
 239 010c 3800001A 		bne	.L30
 240              	.LVL21:
 241              	.L25:
 242 0110 0000A0E3 		mov	r0, #0
 243              	.LVL22:
  87:queue.c       **** 		}
  88:queue.c       **** 	}
  89:queue.c       **** 	return FALSE;
  90:queue.c       **** }
 244              		.loc 1 90 0
 245 0114 04F09DE4 		ldr	pc, [sp], #4
 246              	.LFE11:
 247              		.size	findQueueWithAddress, .-findQueueWithAddress
 248              		.align	2
ARM GAS  C:\DOCUME~1\TECHCO~1\LOCALS~1\Temp/cc6Paaaa.s 			page 7


 249              		.global	dequeue
 250              		.type	dequeue, %function
 251              	dequeue:
 252              	.LFB5:
 253              		.loc 1 39 0
 254              		@ args = 0, pretend = 0, frame = 0
 255              		@ frame_needed = 0, uses_anonymous_args = 0
 256              	.LVL23:
 257 0118 10402DE9 		stmfd	sp!, {r4, lr}
 258              	.LCFI2:
 259 011c 0040A0E1 		mov	r4, r0
 260              		.loc 1 40 0
 261 0120 080090E5 		ldr	r0, [r0, #8]
 262              	.LVL24:
 263 0124 000050E3 		cmp	r0, #0
 264 0128 FF008002 		addeq	r0, r0, #255
 265 012c 1080BD08 		ldmeqfd	sp!, {r4, pc}
 266              		.loc 1 42 0
 267 0130 0C3094E5 		ldr	r3, [r4, #12]
 268 0134 030050E1 		cmp	r0, r3
 269 0138 5400001A 		bne	.L39
 270              		.loc 1 44 0
 271 013c FEFFFFEB 		bl	free
 272              		.loc 1 45 0
 273 0140 0030A0E3 		mov	r3, #0
 274 0144 0C3084E5 		str	r3, [r4, #12]
 275              		.loc 1 46 0
 276 0148 083084E5 		str	r3, [r4, #8]
 277              		.loc 1 47 0
 278 014c 043084E5 		str	r3, [r4, #4]
 279 0150 0300A0E1 		mov	r0, r3
 280 0154 1080BDE8 		ldmfd	sp!, {r4, pc}
 281              	.L39:
 282              		.loc 1 51 0
 283 0158 043090E5 		ldr	r3, [r0, #4]
 284 015c 083084E5 		str	r3, [r4, #8]
 285              		.loc 1 52 0
 286 0160 080093E5 		ldr	r0, [r3, #8]
 287 0164 FEFFFFEB 		bl	free
 288              		.loc 1 53 0
 289 0168 043094E5 		ldr	r3, [r4, #4]
 290 016c 013043E2 		sub	r3, r3, #1
 291 0170 043084E5 		str	r3, [r4, #4]
 292 0174 0000A0E3 		mov	r0, #0
 293              		.loc 1 56 0
 294 0178 1080BDE8 		ldmfd	sp!, {r4, pc}
 295              	.LFE5:
 296              		.size	dequeue, .-dequeue
 297              		.section	.debug_frame,"",%progbits
 298              	.Lframe0:
 299 0000 0C000000 		.4byte	.LECIE0-.LSCIE0
 300              	.LSCIE0:
 301 0004 FFFFFFFF 		.4byte	0xffffffff
 302 0008 01       		.byte	0x1
 303 0009 00       		.ascii	"\000"
 304 000a 01       		.uleb128 0x1
 305 000b 7C       		.sleb128 -4
ARM GAS  C:\DOCUME~1\TECHCO~1\LOCALS~1\Temp/cc6Paaaa.s 			page 8


 306 000c 0E       		.byte	0xe
 307 000d 0C       		.byte	0xc
 308 000e 0D       		.uleb128 0xd
 309 000f 00       		.uleb128 0x0
 310              		.align	2
 311              	.LECIE0:
 312              	.LSFDE0:
 313 0010 0C000000 		.4byte	.LEFDE0-.LASFDE0
 314              	.LASFDE0:
 315 0014 00000000 		.4byte	.Lframe0
 316 0018 00000000 		.4byte	.LFB3
 317 001c 1C000000 		.4byte	.LFE3-.LFB3
 318              		.align	2
 319              	.LEFDE0:
 320              	.LSFDE2:
 321 0020 18000000 		.4byte	.LEFDE2-.LASFDE2
 322              	.LASFDE2:
 323 0024 00000000 		.4byte	.Lframe0
 324 0028 1C000000 		.4byte	.LFB2
 325 002c 30000000 		.4byte	.LFE2-.LFB2
 326 0030 44       		.byte	0x4
 327              		.4byte	.LCFI0-.LFB2
 328 0031 0E       		.byte	0xe
 329 0032 10       		.uleb128 0x10
 330 0033 8E       		.byte	0x8e
 331 0034 01       		.uleb128 0x1
 332 0035 86       		.byte	0x86
 333 0036 02       		.uleb128 0x2
 334 0037 85       		.byte	0x85
 335 0038 03       		.uleb128 0x3
 336 0039 84       		.byte	0x84
 337 003a 04       		.uleb128 0x4
 338 003b 00       		.align	2
 339              	.LEFDE2:
 340              	.LSFDE4:
 341 003c 0C000000 		.4byte	.LEFDE4-.LASFDE4
 342              	.LASFDE4:
 343 0040 00000000 		.4byte	.Lframe0
 344 0044 4C000000 		.4byte	.LFB4
 345 0048 48000000 		.4byte	.LFE4-.LFB4
 346              		.align	2
 347              	.LEFDE4:
 348              	.LSFDE6:
 349 004c 0C000000 		.4byte	.LEFDE6-.LASFDE6
 350              	.LASFDE6:
 351 0050 00000000 		.4byte	.Lframe0
 352 0054 94000000 		.4byte	.LFB6
 353 0058 08000000 		.4byte	.LFE6-.LFB6
 354              		.align	2
 355              	.LEFDE6:
 356              	.LSFDE8:
 357 005c 0C000000 		.4byte	.LEFDE8-.LASFDE8
 358              	.LASFDE8:
 359 0060 00000000 		.4byte	.Lframe0
 360 0064 9C000000 		.4byte	.LFB7
 361 0068 08000000 		.4byte	.LFE7-.LFB7
 362              		.align	2
ARM GAS  C:\DOCUME~1\TECHCO~1\LOCALS~1\Temp/cc6Paaaa.s 			page 9


 363              	.LEFDE8:
 364              	.LSFDE10:
 365 006c 0C000000 		.4byte	.LEFDE10-.LASFDE10
 366              	.LASFDE10:
 367 0070 00000000 		.4byte	.Lframe0
 368 0074 A4000000 		.4byte	.LFB8
 369 0078 08000000 		.4byte	.LFE8-.LFB8
 370              		.align	2
 371              	.LEFDE10:
 372              	.LSFDE12:
 373 007c 0C000000 		.4byte	.LEFDE12-.LASFDE12
 374              	.LASFDE12:
 375 0080 00000000 		.4byte	.Lframe0
 376 0084 AC000000 		.4byte	.LFB9
 377 0088 08000000 		.4byte	.LFE9-.LFB9
 378              		.align	2
 379              	.LEFDE12:
 380              	.LSFDE14:
 381 008c 0C000000 		.4byte	.LEFDE14-.LASFDE14
 382              	.LASFDE14:
 383 0090 00000000 		.4byte	.Lframe0
 384 0094 B4000000 		.4byte	.LFB10
 385 0098 08000000 		.4byte	.LFE10-.LFB10
 386              		.align	2
 387              	.LEFDE14:
 388              	.LSFDE16:
 389 009c 14000000 		.4byte	.LEFDE16-.LASFDE16
 390              	.LASFDE16:
 391 00a0 00000000 		.4byte	.Lframe0
 392 00a4 BC000000 		.4byte	.LFB11
 393 00a8 5C000000 		.4byte	.LFE11-.LFB11
 394 00ac 44       		.byte	0x4
 395              		.4byte	.LCFI1-.LFB11
 396 00ad 0E       		.byte	0xe
 397 00ae 04       		.uleb128 0x4
 398 00af 8E       		.byte	0x8e
 399 00b0 01       		.uleb128 0x1
 400 00b1 000000   		.align	2
 401              	.LEFDE16:
 402              	.LSFDE18:
 403 00b4 14000000 		.4byte	.LEFDE18-.LASFDE18
 404              	.LASFDE18:
 405 00b8 00000000 		.4byte	.Lframe0
 406 00bc 18010000 		.4byte	.LFB5
 407 00c0 64000000 		.4byte	.LFE5-.LFB5
 408 00c4 44       		.byte	0x4
 409              		.4byte	.LCFI2-.LFB5
 410 00c5 0E       		.byte	0xe
 411 00c6 08       		.uleb128 0x8
 412 00c7 8E       		.byte	0x8e
 413 00c8 01       		.uleb128 0x1
 414 00c9 84       		.byte	0x84
 415 00ca 02       		.uleb128 0x2
 416 00cb 00       		.align	2
 417              	.LEFDE18:
 418              		.file 2 "queue.h"
 419              		.file 3 "C:\\WinARM\\armlib/armlibtypes.h"
ARM GAS  C:\DOCUME~1\TECHCO~1\LOCALS~1\Temp/cc6Paaaa.s 			page 10


 420              		.text
 421              	.Letext0: