ARM GAS  C:\DOCUME~1\TECHCO~1\LOCALS~1\Temp/cc4Kaaaa.s 			page 1


   1              		.file	"sequenceExec.c"
   8 0000 6F020000 		.text
   8      02004801 
   8      00000201 
   8      FB0E0A00 
   8      01010101 
   9              	.Ltext0:
  10              		.align	2
  11              		.global	enableSequenceExec
  12              		.type	enableSequenceExec, %function
  13              	enableSequenceExec:
  14              	.LFB2:
  15              		.file 1 "sequenceExec.c"
   1:sequenceExec.c **** #include "global.h"
   2:sequenceExec.c **** #include <string.h>
   3:sequenceExec.c **** #include <ctype.h>
   4:sequenceExec.c **** #include "sequenceExec.h"
   5:sequenceExec.c **** #include "lpc2000.h"
   6:sequenceExec.c **** #include "processor.h"
   7:sequenceExec.c **** #include "rprintf.h"
   8:sequenceExec.c **** #include "queue.h"
   9:sequenceExec.c **** #include "runtime.h"
  10:sequenceExec.c **** #include "molecubePacket.h"
  11:sequenceExec.c **** #include "commands.h"
  12:sequenceExec.c **** 
  13:sequenceExec.c **** u32 TimeStep;
  14:sequenceExec.c **** u08 execute;
  15:sequenceExec.c **** 
  16:sequenceExec.c **** void enableSequenceExec(void)
  17:sequenceExec.c **** {
  16              		.loc 1 17 0
  17              		@ args = 0, pretend = 0, frame = 0
  18              		@ frame_needed = 0, uses_anonymous_args = 0
  19              		@ link register save eliminated.
  20              		@ lr needed for prologue
  18:sequenceExec.c **** 	execute = TRUE;
  21              		.loc 1 18 0
  22 0000 0020E0E3 		mvn	r2, #0
  23 0004 04309FE5 		ldr	r3, .L3
  24 0008 0020C3E5 		strb	r2, [r3, #0]
  19:sequenceExec.c **** }
  25              		.loc 1 19 0
  26 000c 1EFF2FE1 		bx	lr
  27              	.L4:
  28              		.align	2
  29              	.L3:
  30 0010 00000000 		.word	execute
  31              	.LFE2:
  32              		.size	enableSequenceExec, .-enableSequenceExec
  33              		.align	2
  34              		.global	disableSequenceExec
ARM GAS  C:\DOCUME~1\TECHCO~1\LOCALS~1\Temp/cc4Kaaaa.s 			page 2


  35              		.type	disableSequenceExec, %function
  36              	disableSequenceExec:
  37              	.LFB3:
  20:sequenceExec.c **** 
  21:sequenceExec.c **** void disableSequenceExec(void)
  22:sequenceExec.c **** {
  38              		.loc 1 22 0
  39              		@ args = 0, pretend = 0, frame = 0
  40              		@ frame_needed = 0, uses_anonymous_args = 0
  41              		@ link register save eliminated.
  42              		@ lr needed for prologue
  23:sequenceExec.c **** 	execute = FALSE;
  43              		.loc 1 23 0
  44 0014 0020A0E3 		mov	r2, #0
  45 0018 04309FE5 		ldr	r3, .L7
  46 001c 0020C3E5 		strb	r2, [r3, #0]
  24:sequenceExec.c **** }
  47              		.loc 1 24 0
  48 0020 1EFF2FE1 		bx	lr
  49              	.L8:
  50              		.align	2
  51              	.L7:
  52 0024 00000000 		.word	execute
  53              	.LFE3:
  54              		.size	disableSequenceExec, .-disableSequenceExec
  55              		.align	2
  56              		.global	isMsfFile
  57              		.type	isMsfFile, %function
  58              	isMsfFile:
  59              	.LFB5:
  25:sequenceExec.c **** 
  26:sequenceExec.c **** void sequenceExecProcess(char *filename)
  27:sequenceExec.c **** {
  28:sequenceExec.c **** 	int out;
  29:sequenceExec.c **** //	char filename[] = "test.msf";
  30:sequenceExec.c **** 	
  31:sequenceExec.c **** 	SEQHEADER rdSeq;
  32:sequenceExec.c **** 	u32 total_iters = 0;
  33:sequenceExec.c **** 	
  34:sequenceExec.c **** 	// echo any character received (do USB stuff in interrupt)
  35:sequenceExec.c **** //	while (1) 
  36:sequenceExec.c **** 	{
  37:sequenceExec.c **** 		rprintf("Iters:");
  38:sequenceExec.c **** 		rprintfNum(10,10,FALSE,' ',total_iters);
  39:sequenceExec.c **** 		rprintfCRLF();
  40:sequenceExec.c **** 		total_iters++;
  41:sequenceExec.c **** 
  42:sequenceExec.c **** 		// Load commands into buffers
  43:sequenceExec.c **** 		resetExecute();
  44:sequenceExec.c **** #ifdef PRINT_DEBUG
  45:sequenceExec.c **** 		rprintf("Reading Sequence from ");
  46:sequenceExec.c **** 		rprintfStr(filename);
  47:sequenceExec.c **** 		rprintf("...");
  48:sequenceExec.c **** #endif
  49:sequenceExec.c **** 		rprintf("Read Sequence File\r");
  50:sequenceExec.c **** 		if((out = readSequenceFile(filename, &rdSeq)))
  51:sequenceExec.c **** 		{
ARM GAS  C:\DOCUME~1\TECHCO~1\LOCALS~1\Temp/cc4Kaaaa.s 			page 3


  52:sequenceExec.c **** 			rprintf("\nRead failure has occurred %d\n",out);
  53:sequenceExec.c **** 			file_fclose( &filer );
  54:sequenceExec.c **** //			break;
  55:sequenceExec.c **** 			return;
  56:sequenceExec.c **** 		}
  57:sequenceExec.c **** #ifdef PRINT_DEBUG
  58:sequenceExec.c **** 		rprintf("ok\n");
  59:sequenceExec.c **** #endif
  60:sequenceExec.c **** 
  61:sequenceExec.c **** 		// Execute command buffers
  62:sequenceExec.c **** 		rprintf("Reset Timer\r");
  63:sequenceExec.c **** 		resetTimestep(); // possibly a shared resource problem? dont write to resettimestamp when timer i
  64:sequenceExec.c **** #ifdef PRINT_DEBUG
  65:sequenceExec.c **** 		rprintf("Running Sequence ...");
  66:sequenceExec.c **** #endif
  67:sequenceExec.c **** 		rprintf("Run Sequence\r");
  68:sequenceExec.c **** 		if((out = runSequence()))
  69:sequenceExec.c **** 		{
  70:sequenceExec.c **** 			rprintf("\nSequence failure has occurred %d\n",out);
  71:sequenceExec.c **** //			break;
  72:sequenceExec.c **** 			return;
  73:sequenceExec.c **** 		}
  74:sequenceExec.c **** 
  75:sequenceExec.c **** 		// deallocate memory here
  76:sequenceExec.c **** 		free(cmesh);
  77:sequenceExec.c **** 
  78:sequenceExec.c **** #ifdef PRINT_DEBUG
  79:sequenceExec.c **** 		rprintf("complete\n");
  80:sequenceExec.c **** #endif
  81:sequenceExec.c **** 
  82:sequenceExec.c **** 	}
  83:sequenceExec.c **** }
  84:sequenceExec.c **** 
  85:sequenceExec.c **** 
  86:sequenceExec.c **** u08 isMsfFile(char *filename)
  87:sequenceExec.c **** {
  60              		.loc 1 87 0
  61              		@ args = 0, pretend = 0, frame = 0
  62              		@ frame_needed = 0, uses_anonymous_args = 0
  63              		@ link register save eliminated.
  64              	.LVL0:
  65              		@ lr needed for prologue
  66 0028 0020A0E1 		mov	r2, r0
  88:sequenceExec.c **** 	int i = 0;
  89:sequenceExec.c **** 	while(isalnum(filename[i]) && (i < 255))
  67              		.loc 1 89 0
  68 002c B4309FE5 		ldr	r3, .L29
  69 0030 001093E5 		ldr	r1, [r3, #0]
  70 0034 0030D0E5 		ldrb	r3, [r0, #0]	@ zero_extendqisi2
  71 0038 0130D3E7 		ldrb	r3, [r3, r1]	@ zero_extendqisi2
  72 003c 073013E2 		ands	r3, r3, #7
  73 0040 0300A001 		moveq	r0, r3
  74              	.LVL1:
  75 0044 1B00000A 		beq	.L12
  76 0048 0000A0E3 		mov	r0, #0
  77              	.L13:
  90:sequenceExec.c **** 		i++;
ARM GAS  C:\DOCUME~1\TECHCO~1\LOCALS~1\Temp/cc4Kaaaa.s 			page 4


  78              		.loc 1 90 0
  79 004c 010080E2 		add	r0, r0, #1
  80              		.loc 1 89 0
  81 0050 0230D0E7 		ldrb	r3, [r0, r2]	@ zero_extendqisi2
  82 0054 0130D3E7 		ldrb	r3, [r3, r1]	@ zero_extendqisi2
  83 0058 073013E2 		ands	r3, r3, #7
  84 005c 0130A013 		movne	r3, #1
  85 0060 FE0050E3 		cmp	r0, #254
  86 0064 0030A0C3 		movgt	r3, #0
  87 0068 013003D2 		andle	r3, r3, #1
  88 006c 000053E3 		cmp	r3, #0
  89 0070 1100001A 		bne	.L13
  90              	.L12:
  91              	.LBB2:
  91:sequenceExec.c **** 
  92:sequenceExec.c **** 	if(tolower(filename[i-4]) == '.' && tolower(filename[i-3]) == 'm' && 
  92              		.loc 1 92 0
  93 0074 000082E0 		add	r0, r2, r0
  94              	.LVL2:
  95 0078 042050E5 		ldrb	r2, [r0, #-4]	@ zero_extendqisi2
  96              	.LVL3:
  97 007c 0130D2E7 		ldrb	r3, [r2, r1]	@ zero_extendqisi2
  98 0080 010013E3 		tst	r3, #1
  99 0084 20208212 		addne	r2, r2, #32
 100              	.LBE2:
 101 0088 2E0052E3 		cmp	r2, #46
 102 008c 3600001A 		bne	.L16
 103              	.LBB3:
 104 0090 032050E5 		ldrb	r2, [r0, #-3]	@ zero_extendqisi2
 105              	.LVL4:
 106 0094 0130D2E7 		ldrb	r3, [r2, r1]	@ zero_extendqisi2
 107 0098 010013E3 		tst	r3, #1
 108 009c 20208212 		addne	r2, r2, #32
 109              	.LBE3:
 110 00a0 6D0052E3 		cmp	r2, #109
 111 00a4 3600001A 		bne	.L16
 112              	.LBB4:
  93:sequenceExec.c **** 		tolower(filename[i-2]) == 's' && tolower(filename[i-1]) == 'f')
 113              		.loc 1 93 0
 114 00a8 022050E5 		ldrb	r2, [r0, #-2]	@ zero_extendqisi2
 115              	.LVL5:
 116 00ac 0130D2E7 		ldrb	r3, [r2, r1]	@ zero_extendqisi2
 117 00b0 010013E3 		tst	r3, #1
 118 00b4 20208212 		addne	r2, r2, #32
 119              	.LBE4:
 120              		.loc 1 92 0
 121 00b8 730052E3 		cmp	r2, #115
 122 00bc 3600001A 		bne	.L16
 123              	.LBB5:
 124              		.loc 1 93 0
 125 00c0 010050E5 		ldrb	r0, [r0, #-1]	@ zero_extendqisi2
 126              	.LVL6:
 127 00c4 0130D0E7 		ldrb	r3, [r0, r1]	@ zero_extendqisi2
 128 00c8 010013E3 		tst	r3, #1
 129 00cc 20008012 		addne	r0, r0, #32
 130 00d0 660050E3 		cmp	r0, #102
 131 00d4 0000A013 		movne	r0, #0
ARM GAS  C:\DOCUME~1\TECHCO~1\LOCALS~1\Temp/cc4Kaaaa.s 			page 5


 132 00d8 0100A003 		moveq	r0, #1
 133              	.LVL7:
 134 00dc 1EFF2FE1 		bx	lr
 135              	.LVL8:
 136              	.L16:
 137 00e0 0000A0E3 		mov	r0, #0
 138              	.LBE5:
  94:sequenceExec.c **** 	{
  95:sequenceExec.c **** 		return 1;
  96:sequenceExec.c **** 	}
  97:sequenceExec.c **** 	return 0;
  98:sequenceExec.c **** }
 139              		.loc 1 98 0
 140 00e4 1EFF2FE1 		bx	lr
 141              	.L30:
 142              		.align	2
 143              	.L29:
 144 00e8 00000000 		.word	__ctype_ptr
 145              	.LFE5:
 146              		.size	isMsfFile, .-isMsfFile
 147              		.align	2
 148              		.global	initCubeState
 149              		.type	initCubeState, %function
 150              	initCubeState:
 151              	.LFB10:
  99:sequenceExec.c **** 
 100:sequenceExec.c **** u32 runSequence(void)
 101:sequenceExec.c **** {
 102:sequenceExec.c **** 	//int timestep = 0, i;
 103:sequenceExec.c **** 	int i;
 104:sequenceExec.c **** 	int a = 0;
 105:sequenceExec.c **** 	int totalCmdsExec = 0;
 106:sequenceExec.c **** 	int cubeCount = cmesh->topologyHash & 0x000000ff;
 107:sequenceExec.c **** 	u08 selectedBus;
 108:sequenceExec.c **** 	CUBESTATE *cstate = (CUBESTATE *)malloc(sizeof(CUBESTATE)*cubeCount);
 109:sequenceExec.c **** 	RXPKT *trgPkt;
 110:sequenceExec.c **** 
 111:sequenceExec.c **** 	for(i=0; i<cubeCount; i++)
 112:sequenceExec.c **** 		initCubeState(&cstate[i]);
 113:sequenceExec.c **** 
 114:sequenceExec.c **** 	while(execute)
 115:sequenceExec.c **** 	{
 116:sequenceExec.c **** 		// i is an index for each cube in current topology
 117:sequenceExec.c **** 		for(i=0; i<cubeCount; i++) {
 118:sequenceExec.c **** 			//if(cstate[i].preloaded == 0) // false
 119:sequenceExec.c **** 			{ // if next in queue is due and is not a preload cmd
 120:sequenceExec.c **** 				if( cmesh->queues[i].count > 0 &&
 121:sequenceExec.c **** 					((CMDPKT*)cmesh->queues[i].head->ptr)->timestamp <= TimeStep) 
 122:sequenceExec.c **** 				{
 123:sequenceExec.c **** 					//execute command and dequeue
 124:sequenceExec.c **** 					
 125:sequenceExec.c **** 					cmd_BuildPacket(((CMDPKT*)cmesh->queues[i].head->ptr)->h_class, 
 126:sequenceExec.c **** 						((CMDPKT*)cmesh->queues[i].head->ptr)->id, 
 127:sequenceExec.c **** 						((CMDPKT*)cmesh->queues[i].head->ptr)->instruct, 
 128:sequenceExec.c **** 						((CMDPKT*)cmesh->queues[i].head->ptr)->len, 
 129:sequenceExec.c **** 						((CMDPKT*)cmesh->queues[i].head->ptr)->params);
 130:sequenceExec.c **** 					
ARM GAS  C:\DOCUME~1\TECHCO~1\LOCALS~1\Temp/cc4Kaaaa.s 			page 6


 131:sequenceExec.c **** 
 132:sequenceExec.c **** 					if(((CMDPKT*)cmesh->queues[i].head->ptr)->bus == 0x00)
 133:sequenceExec.c **** 					{
 134:sequenceExec.c **** 						selectedBus = INTERNAL_SERIAL;
 135:sequenceExec.c **** 						trgPkt = &int_busRxPkt;
 136:sequenceExec.c **** 					} else { 
 137:sequenceExec.c **** 						selectedBus = EXTERNAL_SERIAL;
 138:sequenceExec.c **** 						trgPkt = &ext_busRxPkt;
 139:sequenceExec.c **** 					}
 140:sequenceExec.c **** 
 141:sequenceExec.c **** 					printCommand(((CMDPKT*)cmesh->queues[i].head->ptr));
 142:sequenceExec.c **** 					
 143:sequenceExec.c **** 					cmd_Execute(selectedBus);
 144:sequenceExec.c **** 					
 145:sequenceExec.c **** 					a = 0;
 146:sequenceExec.c **** 					while ((packetRxProcess(selectedBus, 
 147:sequenceExec.c **** 						((CMDPKT*)cmesh->queues[i].head->ptr)->h_class, 
 148:sequenceExec.c **** 						((CMDPKT*)cmesh->queues[i].head->ptr)->id, 
 149:sequenceExec.c **** 						uartGetRxBuffer(selectedBus)) == FALSE) && 
 150:sequenceExec.c **** 						(a < HIGH_PRIORITY_TIMEOUT))
 151:sequenceExec.c **** 					{	a++; }
 152:sequenceExec.c **** 					
 153:sequenceExec.c **** 					if (a < HIGH_PRIORITY_TIMEOUT)	// wait intil a serial timeout occurs
 154:sequenceExec.c **** 					{	// check if the right command is confirmed
 155:sequenceExec.c **** 						if (trgPkt->cmd == ((CMDPKT*)cmesh->queues[i].head->ptr)->instruct)
 156:sequenceExec.c **** 						{	
 157:sequenceExec.c **** #ifdef PRINT_CMD_RESPONSE
 158:sequenceExec.c **** 							if(trgPkt->paramCnt > 0)
 159:sequenceExec.c **** 							{
 160:sequenceExec.c **** 								rprintf("RxClass:");
 161:sequenceExec.c **** 								rprintfu08(((CMDPKT*)cmesh->queues[i].head->ptr)->h_class);
 162:sequenceExec.c **** 								rprintf(" RxAddr:");
 163:sequenceExec.c **** 								rprintfu08(((CMDPKT*)cmesh->queues[i].head->ptr)->id);
 164:sequenceExec.c **** 								rprintfCRLF();
 165:sequenceExec.c **** 								cmd_PrintRxPacket(trgPkt);
 166:sequenceExec.c **** 							} else {
 167:sequenceExec.c **** 								rprintf("RxClass:");
 168:sequenceExec.c **** 								rprintfu08(((CMDPKT*)cmesh->queues[i].head->ptr)->h_class);
 169:sequenceExec.c **** 								rprintf(" RxAddr:");
 170:sequenceExec.c **** 								rprintfu08(((CMDPKT*)cmesh->queues[i].head->ptr)->id);
 171:sequenceExec.c **** 								rprintf(" RxCmd:");
 172:sequenceExec.c **** 								rprintfu08(((CMDPKT*)cmesh->queues[i].head->ptr)->instruct);
 173:sequenceExec.c **** 								rprintfCRLF();
 174:sequenceExec.c **** 							}
 175:sequenceExec.c **** #endif						
 176:sequenceExec.c **** 
 177:sequenceExec.c **** 							discardCommand((CMDPKT*)(getHead(&cmesh->queues[i])->ptr));
 178:sequenceExec.c **** 							dequeue(&cmesh->queues[i]);
 179:sequenceExec.c **** 							totalCmdsExec++;
 180:sequenceExec.c **** 						} 
 181:sequenceExec.c **** #ifdef PRINT_CMD_RESPONSE
 182:sequenceExec.c **** 						else {
 183:sequenceExec.c **** 							rprintf("Incorrect CMD received\n");
 184:sequenceExec.c **** 							rprintf("TxCmd:");
 185:sequenceExec.c **** 							rprintfu08(((CMDPKT*)cmesh->queues[i].head->ptr)->instruct);
 186:sequenceExec.c **** 							rprintf(" RxCmd:");
 187:sequenceExec.c **** 							rprintfu08(trgPkt->cmd);
ARM GAS  C:\DOCUME~1\TECHCO~1\LOCALS~1\Temp/cc4Kaaaa.s 			page 7


 188:sequenceExec.c **** 							rprintfCRLF();
 189:sequenceExec.c **** 						}
 190:sequenceExec.c **** #endif
 191:sequenceExec.c **** 					}
 192:sequenceExec.c **** #ifdef PRINT_CMD_RESPONSE					
 193:sequenceExec.c **** 					else {
 194:sequenceExec.c **** 
 195:sequenceExec.c **** 						rprintf("Timeout occurred\n");
 196:sequenceExec.c **** 
 197:sequenceExec.c **** 					}
 198:sequenceExec.c **** #endif
 199:sequenceExec.c **** 				}
 200:sequenceExec.c **** 			}
 201:sequenceExec.c **** 		}
 202:sequenceExec.c **** 		
 203:sequenceExec.c **** 		if(totalCmdsExec >= cmesh->cmdCount)
 204:sequenceExec.c **** 			execute = 0;
 205:sequenceExec.c **** 	}
 206:sequenceExec.c **** 	free(cmesh->queues);
 207:sequenceExec.c **** 	free(cstate);
 208:sequenceExec.c **** 	return 0;
 209:sequenceExec.c **** }
 210:sequenceExec.c **** // list queues
 211:sequenceExec.c **** // list commands (all queues)
 212:sequenceExec.c **** 
 213:sequenceExec.c **** u32 readSequenceFile(char* filename, SEQHEADER* trgseq)
 214:sequenceExec.c **** {
 215:sequenceExec.c **** 	//FILE *seqFile;
 216:sequenceExec.c **** 	CMDPKT* cmd_header;
 217:sequenceExec.c **** 	unsigned char *cmd_params;
 218:sequenceExec.c **** 	unsigned char param_chksum;
 219:sequenceExec.c **** 	int i;
 220:sequenceExec.c **** 	rprintf("Entering Read\r");
 221:sequenceExec.c **** 	//if(!(seqFile = fopen(filename, "rb")))
 222:sequenceExec.c **** 	//	return 1;
 223:sequenceExec.c **** 	if ( file_fopen( &filer, &efs.myFs , filename , 'r' ) )
 224:sequenceExec.c **** 		return 1;
 225:sequenceExec.c **** 
 226:sequenceExec.c **** 	file_read( &filer, sizeof(SEQHEADER), (void*)trgseq );
 227:sequenceExec.c **** 	//fread(trgseq,sizeof(SEQHEADER),1,seqFile);
 228:sequenceExec.c **** 
 229:sequenceExec.c **** 	if(validateHeaderChecksum(trgseq))
 230:sequenceExec.c **** 		return 2;
 231:sequenceExec.c **** 
 232:sequenceExec.c **** 	printHeader(trgseq);
 233:sequenceExec.c **** 	u08 cubeCount = (u08)(trgseq->topologyHash & 0x000000ff);
 234:sequenceExec.c **** 	
 235:sequenceExec.c **** 	QUEUE *cubequeue = (QUEUE*)malloc(sizeof(QUEUE)*cubeCount);
 236:sequenceExec.c **** 	initQueueArray(cubequeue, cubeCount);
 237:sequenceExec.c **** 
 238:sequenceExec.c **** 	cmesh = (CUBEMESH *)malloc(sizeof(CUBEMESH));
 239:sequenceExec.c **** 	cmesh->cmdCount = trgseq->cmdCount;
 240:sequenceExec.c **** 	cmesh->topologyHash = trgseq->topologyHash;
 241:sequenceExec.c **** 	cmesh->queues = cubequeue;
 242:sequenceExec.c **** 	rprintf("Counter %d\r",trgseq->cmdCount);
 243:sequenceExec.c **** 	for(i=0; i<trgseq->cmdCount; i++)
 244:sequenceExec.c **** 	{
ARM GAS  C:\DOCUME~1\TECHCO~1\LOCALS~1\Temp/cc4Kaaaa.s 			page 8


 245:sequenceExec.c **** 		cmd_header = (CMDPKT*)malloc(sizeof(CMDPKT));
 246:sequenceExec.c **** 		
 247:sequenceExec.c **** 		//fread(cmd_header, sizeof(CMDPKT)-5, 1, seqFile);
 248:sequenceExec.c **** 		file_read( &filer, sizeof(CMDPKT)-5, (void*)cmd_header );
 249:sequenceExec.c **** 
 250:sequenceExec.c **** 		cmd_params = (unsigned char*)malloc(sizeof(char)*cmd_header->len);
 251:sequenceExec.c **** 		cmd_header->params = cmd_params;
 252:sequenceExec.c **** 		
 253:sequenceExec.c **** 		//fread(cmd_params, sizeof(unsigned char), cmd_header->len, seqFile);
 254:sequenceExec.c **** 		file_read( &filer, sizeof(unsigned char) * cmd_header->len, cmd_params );
 255:sequenceExec.c **** 		//fread(&param_chksum, sizeof(unsigned char), 1, seqFile);
 256:sequenceExec.c **** 		file_read( &filer, sizeof(unsigned char), &param_chksum );
 257:sequenceExec.c **** 
 258:sequenceExec.c **** 		//printCommand(cmd_header);
 259:sequenceExec.c **** 
 260:sequenceExec.c **** 		if(calcPacketChecksum(cmd_header) != param_chksum)
 261:sequenceExec.c **** 			return 3;
 262:sequenceExec.c **** 		
 263:sequenceExec.c **** 		NODE *n = (NODE*)malloc(sizeof(NODE));
 264:sequenceExec.c **** 		n->ptr = cmd_header;
 265:sequenceExec.c **** 
 266:sequenceExec.c **** 		int queueIndex;
 267:sequenceExec.c **** 
 268:sequenceExec.c **** 		// setup queue id assignment
 269:sequenceExec.c **** 		if(findQueueWithAddress(cmd_header->id, cmesh->queues, cubeCount, &queueIndex) == FALSE) // if id
 270:sequenceExec.c **** 		{
 271:sequenceExec.c **** 			if(findQueueWithAddress(0xFE, cmesh->queues, cubeCount, &queueIndex) == TRUE) // find next unadd
 272:sequenceExec.c **** 				setQueueID(&cmesh->queues[queueIndex], cmd_header->id);
 273:sequenceExec.c **** 			else
 274:sequenceExec.c **** 				return 4; // error has occurred no opening found
 275:sequenceExec.c **** 		}
 276:sequenceExec.c **** 		
 277:sequenceExec.c **** 		findQueueWithAddress(cmd_header->id, cmesh->queues, cubeCount, &queueIndex);
 278:sequenceExec.c **** 		enqueue(&cmesh->queues[queueIndex], n);
 279:sequenceExec.c **** 		
 280:sequenceExec.c **** 	}
 281:sequenceExec.c **** 	rprintf("Exiting...");
 282:sequenceExec.c **** 	//fclose(seqFile);
 283:sequenceExec.c **** 	if(file_fclose( &filer ))
 284:sequenceExec.c **** 		return 5;
 285:sequenceExec.c **** 
 286:sequenceExec.c **** 	return 0;
 287:sequenceExec.c **** }
 288:sequenceExec.c **** 
 289:sequenceExec.c **** u32 loadSequenceFile(char *filename)
 290:sequenceExec.c **** {
 291:sequenceExec.c **** 	SEQHEADER rdSeq;
 292:sequenceExec.c **** 	int out;
 293:sequenceExec.c **** 
 294:sequenceExec.c **** 	if((out = readSequenceFile(filename, &rdSeq)))
 295:sequenceExec.c **** 		return -1;
 296:sequenceExec.c **** 	
 297:sequenceExec.c **** 	return 0;
 298:sequenceExec.c **** }
 299:sequenceExec.c **** 
 300:sequenceExec.c **** void discardCommand(CMDPKT* cmd)
 301:sequenceExec.c **** {
ARM GAS  C:\DOCUME~1\TECHCO~1\LOCALS~1\Temp/cc4Kaaaa.s 			page 9


 302:sequenceExec.c **** 	free(cmd->params);
 303:sequenceExec.c **** 	free(cmd);
 304:sequenceExec.c **** }
 305:sequenceExec.c **** 
 306:sequenceExec.c **** void initCubeState(CUBESTATE *c)
 307:sequenceExec.c **** {
 152              		.loc 1 307 0
 153              		@ args = 0, pretend = 0, frame = 0
 154              		@ frame_needed = 0, uses_anonymous_args = 0
 155              		@ link register save eliminated.
 156              	.LVL9:
 157              		@ lr needed for prologue
 308:sequenceExec.c **** 	c->preloaded = 0;
 158              		.loc 1 308 0
 159 00ec 0020A0E3 		mov	r2, #0
 160 00f0 0020C0E5 		strb	r2, [r0, #0]
 309:sequenceExec.c **** 	c->cmd = NULL;
 161              		.loc 1 309 0
 162 00f4 0030D0E5 		ldrb	r3, [r0, #0]	@ zero_extendqisi2
 163 00f8 003080E5 		str	r3, [r0, #0]
 164 00fc 0420C0E5 		strb	r2, [r0, #4]
 310:sequenceExec.c **** }
 165              		.loc 1 310 0
 166 0100 1EFF2FE1 		bx	lr
 167              	.LFE10:
 168              		.size	initCubeState, .-initCubeState
 169              		.align	2
 170              		.global	calcPacketChecksum
 171              		.type	calcPacketChecksum, %function
 172              	calcPacketChecksum:
 173              	.LFB12:
 311:sequenceExec.c **** 
 312:sequenceExec.c **** u08 validateHeaderChecksum(SEQHEADER *header)
 313:sequenceExec.c **** {
 314:sequenceExec.c **** 	return (calcHeaderChecksum(header) != header->header_checksum);
 315:sequenceExec.c **** }
 316:sequenceExec.c **** 
 317:sequenceExec.c **** u08 calcPacketChecksum(CMDPKT *cmd)
 318:sequenceExec.c **** { 
 174              		.loc 1 318 0
 175              		@ args = 0, pretend = 0, frame = 0
 176              		@ frame_needed = 0, uses_anonymous_args = 0
 177              	.LVL10:
 178 0104 04E02DE5 		str	lr, [sp, #-4]!
 179              	.LCFI0:
 180 0108 00C0A0E1 		mov	ip, r0
 319:sequenceExec.c **** 	int i;
 320:sequenceExec.c **** 	unsigned char chksum = 0;
 321:sequenceExec.c **** 	//char *ptr = (char*)cmd;
 322:sequenceExec.c **** 	chksum += (cmd->id + cmd->len + cmd->instruct);
 181              		.loc 1 322 0
 182 010c 0830D0E5 		ldrb	r3, [r0, #8]	@ zero_extendqisi2
 183 0110 0720D0E5 		ldrb	r2, [r0, #7]	@ zero_extendqisi2
 184 0114 022083E0 		add	r2, r3, r2
 185 0118 0910D0E5 		ldrb	r1, [r0, #9]	@ zero_extendqisi2
 186 011c 012082E0 		add	r2, r2, r1
 187 0120 FF0002E2 		and	r0, r2, #255
ARM GAS  C:\DOCUME~1\TECHCO~1\LOCALS~1\Temp/cc4Kaaaa.s 			page 10


 188              	.LVL11:
 323:sequenceExec.c **** 	for(i=0; i<cmd->len; i++)
 189              		.loc 1 323 0
 190 0124 00E053E2 		subs	lr, r3, #0
 191 0128 04F09DD4 		ldrle	pc, [sp], #4
 324:sequenceExec.c **** 		chksum += cmd->params[i];
 192              		.loc 1 324 0
 193 012c 0A30DCE5 		ldrb	r3, [ip, #10]	@ zero_extendqisi2
 194 0130 0B20DCE5 		ldrb	r2, [ip, #11]	@ zero_extendqisi2
 195 0134 023483E1 		orr	r3, r3, r2, asl #8
 196 0138 0C20DCE5 		ldrb	r2, [ip, #12]	@ zero_extendqisi2
 197 013c 023883E1 		orr	r3, r3, r2, asl #16
 198 0140 0D20DCE5 		ldrb	r2, [ip, #13]	@ zero_extendqisi2
 199 0144 021C83E1 		orr	r1, r3, r2, asl #24
 200 0148 0020A0E3 		mov	r2, #0
 201              	.LVL12:
 202              	.L36:
 203 014c 0130D2E7 		ldrb	r3, [r2, r1]	@ zero_extendqisi2
 204 0150 033080E0 		add	r3, r0, r3
 205 0154 FF0003E2 		and	r0, r3, #255
 206              		.loc 1 323 0
 207 0158 012082E2 		add	r2, r2, #1
 208 015c 02005EE1 		cmp	lr, r2
 209 0160 5100001A 		bne	.L36
 210              	.LVL13:
 325:sequenceExec.c **** 	return chksum;
 326:sequenceExec.c **** }
 211              		.loc 1 326 0
 212 0164 04F09DE4 		ldr	pc, [sp], #4
 213              	.LFE12:
 214              		.size	calcPacketChecksum, .-calcPacketChecksum
 215              		.align	2
 216              		.global	calcHeaderChecksum
 217              		.type	calcHeaderChecksum, %function
 218              	calcHeaderChecksum:
 219              	.LFB13:
 327:sequenceExec.c **** 
 328:sequenceExec.c **** u08 calcHeaderChecksum(SEQHEADER *header)
 329:sequenceExec.c **** { 
 220              		.loc 1 329 0
 221              		@ args = 0, pretend = 0, frame = 0
 222              		@ frame_needed = 0, uses_anonymous_args = 0
 223              		@ link register save eliminated.
 224              	.LVL14:
 225              		@ lr needed for prologue
 226 0168 0010A0E1 		mov	r1, r0
 227              	.LVL15:
 330:sequenceExec.c **** 	int i;
 331:sequenceExec.c **** 	unsigned char chksum = 0;
 332:sequenceExec.c **** 	char *ptr = (char*)header;
 228              		.loc 1 332 0
 229 016c 0000A0E3 		mov	r0, #0
 230              	.LVL16:
 231 0170 0020A0E1 		mov	r2, r0
 232              	.LVL17:
 233              	.L40:
 333:sequenceExec.c **** 	for(i=0; i<sizeof(SEQHEADER)-1; i++) // dont want to include checksum
ARM GAS  C:\DOCUME~1\TECHCO~1\LOCALS~1\Temp/cc4Kaaaa.s 			page 11


 334:sequenceExec.c **** 		chksum += ptr[i];
 234              		.loc 1 334 0
 235 0174 0130D2E7 		ldrb	r3, [r2, r1]	@ zero_extendqisi2
 236 0178 033080E0 		add	r3, r0, r3
 237 017c FF0003E2 		and	r0, r3, #255
 238              		.loc 1 333 0
 239 0180 012082E2 		add	r2, r2, #1
 240 0184 250052E3 		cmp	r2, #37
 241 0188 5B00001A 		bne	.L40
 335:sequenceExec.c **** 	return chksum;
 336:sequenceExec.c **** }
 242              		.loc 1 336 0
 243 018c 1EFF2FE1 		bx	lr
 244              	.LFE13:
 245              		.size	calcHeaderChecksum, .-calcHeaderChecksum
 246              		.align	2
 247              		.global	validateHeaderChecksum
 248              		.type	validateHeaderChecksum, %function
 249              	validateHeaderChecksum:
 250              	.LFB11:
 251              		.loc 1 313 0
 252              		@ args = 0, pretend = 0, frame = 0
 253              		@ frame_needed = 0, uses_anonymous_args = 0
 254              	.LVL18:
 255 0190 10402DE9 		stmfd	sp!, {r4, lr}
 256              	.LCFI1:
 257 0194 0040A0E1 		mov	r4, r0
 258              		.loc 1 314 0
 259 0198 FEFFFFEB 		bl	calcHeaderChecksum
 260              	.LVL19:
 261 019c 2530D4E5 		ldrb	r3, [r4, #37]	@ zero_extendqisi2
 262              		.loc 1 315 0
 263 01a0 000053E0 		subs	r0, r3, r0
 264 01a4 0100A013 		movne	r0, #1
 265 01a8 1080BDE8 		ldmfd	sp!, {r4, pc}
 266              	.LFE11:
 267              		.size	validateHeaderChecksum, .-validateHeaderChecksum
 268              		.align	2
 269              		.global	incTimestep
 270              		.type	incTimestep, %function
 271              	incTimestep:
 272              	.LFB16:
 337:sequenceExec.c **** 
 338:sequenceExec.c **** void printHeader(SEQHEADER* trg)
 339:sequenceExec.c **** {
 340:sequenceExec.c **** 	rprintf("\nName: ");
 341:sequenceExec.c **** 	rprintfStr(trg->name);
 342:sequenceExec.c **** 	rprintf("\nTopology: ");
 343:sequenceExec.c **** 	rprintfNum(10,10,FALSE,' ',trg->topologyHash);
 344:sequenceExec.c **** 	rprintf("\nCommand Count: ");
 345:sequenceExec.c **** 	rprintfNum(10,10,FALSE,' ',trg->cmdCount);
 346:sequenceExec.c **** 	rprintf("\nSize: ");
 347:sequenceExec.c **** 	rprintfNum(10,10,FALSE,' ',trg->size);
 348:sequenceExec.c **** 	rprintf("  bytes\n\n");
 349:sequenceExec.c **** }
 350:sequenceExec.c **** 
 351:sequenceExec.c **** void printCommand(CMDPKT* cmd)
ARM GAS  C:\DOCUME~1\TECHCO~1\LOCALS~1\Temp/cc4Kaaaa.s 			page 12


 352:sequenceExec.c **** {
 353:sequenceExec.c **** 	int i;
 354:sequenceExec.c **** 	if(cmd->instruct == 0x15)
 355:sequenceExec.c **** 	{
 356:sequenceExec.c **** 		u16 velo, pos;
 357:sequenceExec.c **** 		pos = cmd->params[0];
 358:sequenceExec.c **** 		pos |= cmd->params[1] << 8;
 359:sequenceExec.c **** 		velo = cmd->params[2];
 360:sequenceExec.c **** 		velo |= cmd->params[3] << 8;
 361:sequenceExec.c **** 
 362:sequenceExec.c **** 		rprintf("Set Pos Timestamp: ");
 363:sequenceExec.c **** 		rprintfNum(10,10,FALSE,' ',cmd->timestamp);
 364:sequenceExec.c **** 		rprintf("\nPos: ");
 365:sequenceExec.c **** 		rprintfNum(10,10,FALSE,' ',pos);
 366:sequenceExec.c **** 		rprintf(" Velo: ");
 367:sequenceExec.c **** 		rprintfNum(10,10,FALSE,' ',velo);
 368:sequenceExec.c **** 		rprintf("\n");
 369:sequenceExec.c **** 		return;
 370:sequenceExec.c **** 	}
 371:sequenceExec.c **** 
 372:sequenceExec.c **** 	rprintf("Timestamp: ");
 373:sequenceExec.c **** 	rprintfNum(10,10,FALSE,' ',cmd->timestamp);
 374:sequenceExec.c **** 	rprintf("\nBus: ");
 375:sequenceExec.c **** 	rprintfNum(10,10,FALSE,' ',cmd->bus);
 376:sequenceExec.c **** 	rprintf("\nHeader: ");
 377:sequenceExec.c **** 	rprintfNum(10,10,FALSE,' ',cmd->header);
 378:sequenceExec.c **** 	rprintf("\nClass: ");
 379:sequenceExec.c **** 	rprintfNum(10,10,FALSE,' ',cmd->h_class);
 380:sequenceExec.c **** 	rprintf("\nID: ");
 381:sequenceExec.c **** 	rprintfNum(10,10,FALSE,' ',cmd->id);
 382:sequenceExec.c **** 	rprintf("\nLength: ");
 383:sequenceExec.c **** 	rprintfNum(10,10,FALSE,' ',cmd->len);
 384:sequenceExec.c **** 	rprintf("\nInstruction: ");
 385:sequenceExec.c **** 	rprintfNum(10,10,FALSE,' ',cmd->instruct);
 386:sequenceExec.c **** 	rprintf("\n");
 387:sequenceExec.c **** 
 388:sequenceExec.c **** 	for(i=0;i<cmd->len;i++) {
 389:sequenceExec.c **** 		rprintf("Param%d: ",i);
 390:sequenceExec.c **** 		rprintfNum(16,3,FALSE,' ',cmd->params[i]);
 391:sequenceExec.c **** 		rprintf("\n");
 392:sequenceExec.c **** 	}
 393:sequenceExec.c **** }
 394:sequenceExec.c **** 
 395:sequenceExec.c **** void incTimestep(void)
 396:sequenceExec.c **** {
 273              		.loc 1 396 0
 274              		@ args = 0, pretend = 0, frame = 0
 275              		@ frame_needed = 0, uses_anonymous_args = 0
 276              		@ link register save eliminated.
 277              		@ lr needed for prologue
 397:sequenceExec.c **** 	if (TimeStep == 0xFFFFFFFF)
 278              		.loc 1 397 0
 279 01ac 20309FE5 		ldr	r3, .L51
 280 01b0 001093E5 		ldr	r1, [r3, #0]
 281 01b4 010071E3 		cmn	r1, #1
 398:sequenceExec.c **** 		execute = 0;
 282              		.loc 1 398 0
ARM GAS  C:\DOCUME~1\TECHCO~1\LOCALS~1\Temp/cc4Kaaaa.s 			page 13


 283 01b8 0020A003 		moveq	r2, #0
 284 01bc 14309F05 		ldreq	r3, .L51+4
 285 01c0 0020C305 		streqb	r2, [r3, #0]
 399:sequenceExec.c **** 	TimeStep++;
 286              		.loc 1 399 0
 287 01c4 012081E2 		add	r2, r1, #1
 288 01c8 04309FE5 		ldr	r3, .L51
 289 01cc 002083E5 		str	r2, [r3, #0]
 400:sequenceExec.c **** }
 290              		.loc 1 400 0
 291 01d0 1EFF2FE1 		bx	lr
 292              	.L52:
 293              		.align	2
 294              	.L51:
 295 01d4 00000000 		.word	TimeStep
 296 01d8 00000000 		.word	execute
 297              	.LFE16:
 298              		.size	incTimestep, .-incTimestep
 299              		.align	2
 300              		.global	resetTimestep
 301              		.type	resetTimestep, %function
 302              	resetTimestep:
 303              	.LFB17:
 401:sequenceExec.c **** 
 402:sequenceExec.c **** void resetTimestep(void)
 403:sequenceExec.c **** {
 304              		.loc 1 403 0
 305              		@ args = 0, pretend = 0, frame = 0
 306              		@ frame_needed = 0, uses_anonymous_args = 0
 307              		@ link register save eliminated.
 308              		@ lr needed for prologue
 404:sequenceExec.c **** 	TimeStep = 0;
 309              		.loc 1 404 0
 310 01dc 0020A0E3 		mov	r2, #0
 311 01e0 04309FE5 		ldr	r3, .L55
 312 01e4 002083E5 		str	r2, [r3, #0]
 405:sequenceExec.c **** }
 313              		.loc 1 405 0
 314 01e8 1EFF2FE1 		bx	lr
 315              	.L56:
 316              		.align	2
 317              	.L55:
 318 01ec 00000000 		.word	TimeStep
 319              	.LFE17:
 320              		.size	resetTimestep, .-resetTimestep
 321              		.align	2
 322              		.global	resetExecute
 323              		.type	resetExecute, %function
 324              	resetExecute:
 325              	.LFB18:
 406:sequenceExec.c **** 
 407:sequenceExec.c **** void resetExecute(void)
 408:sequenceExec.c **** {
 326              		.loc 1 408 0
 327              		@ args = 0, pretend = 0, frame = 0
 328              		@ frame_needed = 0, uses_anonymous_args = 0
 329              		@ link register save eliminated.
ARM GAS  C:\DOCUME~1\TECHCO~1\LOCALS~1\Temp/cc4Kaaaa.s 			page 14


 330              		@ lr needed for prologue
 409:sequenceExec.c **** 	execute = 1;
 331              		.loc 1 409 0
 332 01f0 0120A0E3 		mov	r2, #1
 333 01f4 04309FE5 		ldr	r3, .L59
 334 01f8 0020C3E5 		strb	r2, [r3, #0]
 410:sequenceExec.c **** }
 335              		.loc 1 410 0
 336 01fc 1EFF2FE1 		bx	lr
 337              	.L60:
 338              		.align	2
 339              	.L59:
 340 0200 00000000 		.word	execute
 341              	.LFE18:
 342              		.size	resetExecute, .-resetExecute
 343              		.section	.rodata.str1.4,"aMS",%progbits,1
 344              		.align	2
 345              	.LC0:
 346 0000 53657420 		.ascii	"Set Pos Timestamp: \000"
 346      506F7320 
 346      54696D65 
 346      7374616D 
 346      703A2000 
 347              		.align	2
 348              	.LC1:
 349 0014 0A506F73 		.ascii	"\012Pos: \000"
 349      3A2000
 350 001b 00       		.align	2
 351              	.LC2:
 352 001c 2056656C 		.ascii	" Velo: \000"
 352      6F3A2000 
 353              		.align	2
 354              	.LC3:
 355 0024 0A00     		.ascii	"\012\000"
 356 0026 0000     		.align	2
 357              	.LC4:
 358 0028 54696D65 		.ascii	"Timestamp: \000"
 358      7374616D 
 358      703A2000 
 359              		.align	2
 360              	.LC5:
 361 0034 0A427573 		.ascii	"\012Bus: \000"
 361      3A2000
 362 003b 00       		.align	2
 363              	.LC6:
 364 003c 0A486561 		.ascii	"\012Header: \000"
 364      6465723A 
 364      2000
 365 0046 0000     		.align	2
 366              	.LC7:
 367 0048 0A436C61 		.ascii	"\012Class: \000"
 367      73733A20 
 367      00
 368 0051 000000   		.align	2
 369              	.LC8:
 370 0054 0A49443A 		.ascii	"\012ID: \000"
 370      2000
ARM GAS  C:\DOCUME~1\TECHCO~1\LOCALS~1\Temp/cc4Kaaaa.s 			page 15


 371 005a 0000     		.align	2
 372              	.LC9:
 373 005c 0A4C656E 		.ascii	"\012Length: \000"
 373      6774683A 
 373      2000
 374 0066 0000     		.align	2
 375              	.LC10:
 376 0068 0A496E73 		.ascii	"\012Instruction: \000"
 376      74727563 
 376      74696F6E 
 376      3A2000
 377 0077 00       		.align	2
 378              	.LC11:
 379 0078 50617261 		.ascii	"Param%d: \000"
 379      6D25643A 
 379      2000
 380              		.text
 381              		.align	2
 382              		.global	printCommand
 383              		.type	printCommand, %function
 384              	printCommand:
 385              	.LFB15:
 386              		.loc 1 352 0
 387              		@ args = 0, pretend = 0, frame = 0
 388              		@ frame_needed = 0, uses_anonymous_args = 0
 389              	.LVL20:
 390 0204 70402DE9 		stmfd	sp!, {r4, r5, r6, lr}
 391              	.LCFI2:
 392 0208 04D04DE2 		sub	sp, sp, #4
 393              	.LCFI3:
 394 020c 0060A0E1 		mov	r6, r0
 395              		.loc 1 354 0
 396 0210 0930D0E5 		ldrb	r3, [r0, #9]	@ zero_extendqisi2
 397 0214 150053E3 		cmp	r3, #21
 398 0218 B800001A 		bne	.L62
 399              	.LBB6:
 400              		.loc 1 357 0
 401 021c 0A30D0E5 		ldrb	r3, [r0, #10]	@ zero_extendqisi2
 402 0220 0B20D0E5 		ldrb	r2, [r0, #11]	@ zero_extendqisi2
 403 0224 023483E1 		orr	r3, r3, r2, asl #8
 404 0228 0C20D0E5 		ldrb	r2, [r0, #12]	@ zero_extendqisi2
 405 022c 023883E1 		orr	r3, r3, r2, asl #16
 406 0230 0D20D0E5 		ldrb	r2, [r0, #13]	@ zero_extendqisi2
 407 0234 023C83E1 		orr	r3, r3, r2, asl #24
 408              		.loc 1 358 0
 409 0238 0120D3E5 		ldrb	r2, [r3, #1]	@ zero_extendqisi2
 410 023c 0040D3E5 		ldrb	r4, [r3, #0]	@ zero_extendqisi2
 411 0240 024484E1 		orr	r4, r4, r2, asl #8
 412              	.LVL21:
 413              		.loc 1 360 0
 414 0244 0320D3E5 		ldrb	r2, [r3, #3]	@ zero_extendqisi2
 415 0248 0250D3E5 		ldrb	r5, [r3, #2]	@ zero_extendqisi2
 416 024c 025485E1 		orr	r5, r5, r2, asl #8
 417              	.LVL22:
 418              		.loc 1 362 0
 419 0250 0000A0E3 		mov	r0, #0
 420              	.LVL23:
ARM GAS  C:\DOCUME~1\TECHCO~1\LOCALS~1\Temp/cc4Kaaaa.s 			page 16


 421 0254 44129FE5 		ldr	r1, .L69
 422 0258 FEFFFFEB 		bl	rprintf1RamRom
 423              		.loc 1 363 0
 424 025c 0030D6E5 		ldrb	r3, [r6, #0]	@ zero_extendqisi2
 425 0260 0120D6E5 		ldrb	r2, [r6, #1]	@ zero_extendqisi2
 426 0264 023483E1 		orr	r3, r3, r2, asl #8
 427 0268 0220D6E5 		ldrb	r2, [r6, #2]	@ zero_extendqisi2
 428 026c 023883E1 		orr	r3, r3, r2, asl #16
 429 0270 0320D6E5 		ldrb	r2, [r6, #3]	@ zero_extendqisi2
 430 0274 023C83E1 		orr	r3, r3, r2, asl #24
 431 0278 00308DE5 		str	r3, [sp, #0]
 432 027c 0A00A0E3 		mov	r0, #10
 433 0280 0010A0E1 		mov	r1, r0
 434 0284 0020A0E3 		mov	r2, #0
 435 0288 2030A0E3 		mov	r3, #32
 436 028c FEFFFFEB 		bl	rprintfNum
 437              		.loc 1 364 0
 438 0290 0000A0E3 		mov	r0, #0
 439 0294 08129FE5 		ldr	r1, .L69+4
 440 0298 FEFFFFEB 		bl	rprintf1RamRom
 441              		.loc 1 365 0
 442 029c 00408DE5 		str	r4, [sp, #0]
 443 02a0 0A00A0E3 		mov	r0, #10
 444 02a4 0010A0E1 		mov	r1, r0
 445 02a8 0020A0E3 		mov	r2, #0
 446 02ac 2030A0E3 		mov	r3, #32
 447 02b0 FEFFFFEB 		bl	rprintfNum
 448              		.loc 1 366 0
 449 02b4 0000A0E3 		mov	r0, #0
 450 02b8 E8119FE5 		ldr	r1, .L69+8
 451 02bc FEFFFFEB 		bl	rprintf1RamRom
 452              		.loc 1 367 0
 453 02c0 00508DE5 		str	r5, [sp, #0]
 454 02c4 0A00A0E3 		mov	r0, #10
 455 02c8 0010A0E1 		mov	r1, r0
 456 02cc 0020A0E3 		mov	r2, #0
 457 02d0 2030A0E3 		mov	r3, #32
 458 02d4 FEFFFFEB 		bl	rprintfNum
 459              		.loc 1 368 0
 460 02d8 0000A0E3 		mov	r0, #0
 461 02dc C8119FE5 		ldr	r1, .L69+12
 462 02e0 FEFFFFEB 		bl	rprintf1RamRom
 463 02e4 240100EA 		b	.L67
 464              	.LVL24:
 465              	.L62:
 466              	.LBE6:
 467              		.loc 1 372 0
 468 02e8 0000A0E3 		mov	r0, #0
 469              	.LVL25:
 470 02ec BC119FE5 		ldr	r1, .L69+16
 471 02f0 FEFFFFEB 		bl	rprintf1RamRom
 472              		.loc 1 373 0
 473 02f4 0030D6E5 		ldrb	r3, [r6, #0]	@ zero_extendqisi2
 474 02f8 0120D6E5 		ldrb	r2, [r6, #1]	@ zero_extendqisi2
 475 02fc 023483E1 		orr	r3, r3, r2, asl #8
 476 0300 0220D6E5 		ldrb	r2, [r6, #2]	@ zero_extendqisi2
 477 0304 023883E1 		orr	r3, r3, r2, asl #16
ARM GAS  C:\DOCUME~1\TECHCO~1\LOCALS~1\Temp/cc4Kaaaa.s 			page 17


 478 0308 0320D6E5 		ldrb	r2, [r6, #3]	@ zero_extendqisi2
 479 030c 023C83E1 		orr	r3, r3, r2, asl #24
 480 0310 00308DE5 		str	r3, [sp, #0]
 481 0314 0A00A0E3 		mov	r0, #10
 482 0318 0010A0E1 		mov	r1, r0
 483 031c 0020A0E3 		mov	r2, #0
 484 0320 2030A0E3 		mov	r3, #32
 485 0324 FEFFFFEB 		bl	rprintfNum
 486              		.loc 1 374 0
 487 0328 0000A0E3 		mov	r0, #0
 488 032c 80119FE5 		ldr	r1, .L69+20
 489 0330 FEFFFFEB 		bl	rprintf1RamRom
 490              		.loc 1 375 0
 491 0334 0430D6E5 		ldrb	r3, [r6, #4]	@ zero_extendqisi2
 492 0338 00308DE5 		str	r3, [sp, #0]
 493 033c 0A00A0E3 		mov	r0, #10
 494 0340 0010A0E1 		mov	r1, r0
 495 0344 0020A0E3 		mov	r2, #0
 496 0348 2030A0E3 		mov	r3, #32
 497 034c FEFFFFEB 		bl	rprintfNum
 498              		.loc 1 376 0
 499 0350 0000A0E3 		mov	r0, #0
 500 0354 5C119FE5 		ldr	r1, .L69+24
 501 0358 FEFFFFEB 		bl	rprintf1RamRom
 502              		.loc 1 377 0
 503 035c 0530D6E5 		ldrb	r3, [r6, #5]	@ zero_extendqisi2
 504 0360 00308DE5 		str	r3, [sp, #0]
 505 0364 0A00A0E3 		mov	r0, #10
 506 0368 0010A0E1 		mov	r1, r0
 507 036c 0020A0E3 		mov	r2, #0
 508 0370 2030A0E3 		mov	r3, #32
 509 0374 FEFFFFEB 		bl	rprintfNum
 510              		.loc 1 378 0
 511 0378 0000A0E3 		mov	r0, #0
 512 037c 38119FE5 		ldr	r1, .L69+28
 513 0380 FEFFFFEB 		bl	rprintf1RamRom
 514              		.loc 1 379 0
 515 0384 0630D6E5 		ldrb	r3, [r6, #6]	@ zero_extendqisi2
 516 0388 00308DE5 		str	r3, [sp, #0]
 517 038c 0A00A0E3 		mov	r0, #10
 518 0390 0010A0E1 		mov	r1, r0
 519 0394 0020A0E3 		mov	r2, #0
 520 0398 2030A0E3 		mov	r3, #32
 521 039c FEFFFFEB 		bl	rprintfNum
 522              		.loc 1 380 0
 523 03a0 0000A0E3 		mov	r0, #0
 524 03a4 14119FE5 		ldr	r1, .L69+32
 525 03a8 FEFFFFEB 		bl	rprintf1RamRom
 526              		.loc 1 381 0
 527 03ac 0730D6E5 		ldrb	r3, [r6, #7]	@ zero_extendqisi2
 528 03b0 00308DE5 		str	r3, [sp, #0]
 529 03b4 0A00A0E3 		mov	r0, #10
 530 03b8 0010A0E1 		mov	r1, r0
 531 03bc 0020A0E3 		mov	r2, #0
 532 03c0 2030A0E3 		mov	r3, #32
 533 03c4 FEFFFFEB 		bl	rprintfNum
 534              		.loc 1 382 0
ARM GAS  C:\DOCUME~1\TECHCO~1\LOCALS~1\Temp/cc4Kaaaa.s 			page 18


 535 03c8 0000A0E3 		mov	r0, #0
 536 03cc F0109FE5 		ldr	r1, .L69+36
 537 03d0 FEFFFFEB 		bl	rprintf1RamRom
 538              		.loc 1 383 0
 539 03d4 0830D6E5 		ldrb	r3, [r6, #8]	@ zero_extendqisi2
 540 03d8 00308DE5 		str	r3, [sp, #0]
 541 03dc 0A00A0E3 		mov	r0, #10
 542 03e0 0010A0E1 		mov	r1, r0
 543 03e4 0020A0E3 		mov	r2, #0
 544 03e8 2030A0E3 		mov	r3, #32
 545 03ec FEFFFFEB 		bl	rprintfNum
 546              		.loc 1 384 0
 547 03f0 0000A0E3 		mov	r0, #0
 548 03f4 CC109FE5 		ldr	r1, .L69+40
 549 03f8 FEFFFFEB 		bl	rprintf1RamRom
 550              		.loc 1 385 0
 551 03fc 0930D6E5 		ldrb	r3, [r6, #9]	@ zero_extendqisi2
 552 0400 00308DE5 		str	r3, [sp, #0]
 553 0404 0A00A0E3 		mov	r0, #10
 554 0408 0010A0E1 		mov	r1, r0
 555 040c 0020A0E3 		mov	r2, #0
 556 0410 2030A0E3 		mov	r3, #32
 557 0414 FEFFFFEB 		bl	rprintfNum
 558              		.loc 1 386 0
 559 0418 0000A0E3 		mov	r0, #0
 560 041c 88109FE5 		ldr	r1, .L69+12
 561 0420 FEFFFFEB 		bl	rprintf1RamRom
 562              		.loc 1 388 0
 563 0424 0830D6E5 		ldrb	r3, [r6, #8]	@ zero_extendqisi2
 564 0428 000053E3 		cmp	r3, #0
 565 042c 240100DA 		ble	.L67
 566 0430 0040A0E3 		mov	r4, #0
 567              	.LVL26:
 568              	.L66:
 569              		.loc 1 389 0
 570 0434 0000A0E3 		mov	r0, #0
 571 0438 8C109FE5 		ldr	r1, .L69+44
 572 043c 0420A0E1 		mov	r2, r4
 573 0440 FEFFFFEB 		bl	rprintf1RamRom
 574              		.loc 1 390 0
 575 0444 0A30D6E5 		ldrb	r3, [r6, #10]	@ zero_extendqisi2
 576 0448 0B20D6E5 		ldrb	r2, [r6, #11]	@ zero_extendqisi2
 577 044c 023483E1 		orr	r3, r3, r2, asl #8
 578 0450 0C20D6E5 		ldrb	r2, [r6, #12]	@ zero_extendqisi2
 579 0454 023883E1 		orr	r3, r3, r2, asl #16
 580 0458 0D20D6E5 		ldrb	r2, [r6, #13]	@ zero_extendqisi2
 581 045c 023C83E1 		orr	r3, r3, r2, asl #24
 582 0460 0330D4E7 		ldrb	r3, [r4, r3]	@ zero_extendqisi2
 583 0464 00308DE5 		str	r3, [sp, #0]
 584 0468 1000A0E3 		mov	r0, #16
 585 046c 0310A0E3 		mov	r1, #3
 586 0470 0020A0E3 		mov	r2, #0
 587 0474 2030A0E3 		mov	r3, #32
 588 0478 FEFFFFEB 		bl	rprintfNum
 589              		.loc 1 391 0
 590 047c 0000A0E3 		mov	r0, #0
 591 0480 24109FE5 		ldr	r1, .L69+12
ARM GAS  C:\DOCUME~1\TECHCO~1\LOCALS~1\Temp/cc4Kaaaa.s 			page 19


 592 0484 FEFFFFEB 		bl	rprintf1RamRom
 593              		.loc 1 388 0
 594 0488 014084E2 		add	r4, r4, #1
 595 048c 0830D6E5 		ldrb	r3, [r6, #8]	@ zero_extendqisi2
 596 0490 040053E1 		cmp	r3, r4
 597 0494 0B0100CA 		bgt	.L66
 598              	.LVL27:
 599              	.L67:
 600              		.loc 1 393 0
 601 0498 04D08DE2 		add	sp, sp, #4
 602 049c 7080BDE8 		ldmfd	sp!, {r4, r5, r6, pc}
 603              	.L70:
 604              		.align	2
 605              	.L69:
 606 04a0 00000000 		.word	.LC0
 607 04a4 14000000 		.word	.LC1
 608 04a8 1C000000 		.word	.LC2
 609 04ac 24000000 		.word	.LC3
 610 04b0 28000000 		.word	.LC4
 611 04b4 34000000 		.word	.LC5
 612 04b8 3C000000 		.word	.LC6
 613 04bc 48000000 		.word	.LC7
 614 04c0 54000000 		.word	.LC8
 615 04c4 5C000000 		.word	.LC9
 616 04c8 68000000 		.word	.LC10
 617 04cc 78000000 		.word	.LC11
 618              	.LFE15:
 619              		.size	printCommand, .-printCommand
 620              		.section	.rodata.str1.4
 621 0082 0000     		.align	2
 622              	.LC12:
 623 0084 0A4E616D 		.ascii	"\012Name: \000"
 623      653A2000 
 624              		.align	2
 625              	.LC13:
 626 008c 0A546F70 		.ascii	"\012Topology: \000"
 626      6F6C6F67 
 626      793A2000 
 627              		.align	2
 628              	.LC14:
 629 0098 0A436F6D 		.ascii	"\012Command Count: \000"
 629      6D616E64 
 629      20436F75 
 629      6E743A20 
 629      00
 630 00a9 000000   		.align	2
 631              	.LC15:
 632 00ac 0A53697A 		.ascii	"\012Size: \000"
 632      653A2000 
 633              		.align	2
 634              	.LC16:
 635 00b4 20206279 		.ascii	"  bytes\012\012\000"
 635      7465730A 
 635      0A00
 636              		.text
 637              		.align	2
 638              		.global	printHeader
ARM GAS  C:\DOCUME~1\TECHCO~1\LOCALS~1\Temp/cc4Kaaaa.s 			page 20


 639              		.type	printHeader, %function
 640              	printHeader:
 641              	.LFB14:
 642              		.loc 1 339 0
 643              		@ args = 0, pretend = 0, frame = 0
 644              		@ frame_needed = 0, uses_anonymous_args = 0
 645              	.LVL28:
 646 04d0 10402DE9 		stmfd	sp!, {r4, lr}
 647              	.LCFI4:
 648 04d4 04D04DE2 		sub	sp, sp, #4
 649              	.LCFI5:
 650 04d8 0040A0E1 		mov	r4, r0
 651              		.loc 1 340 0
 652 04dc 0000A0E3 		mov	r0, #0
 653              	.LVL29:
 654 04e0 DC109FE5 		ldr	r1, .L73
 655 04e4 FEFFFFEB 		bl	rprintf1RamRom
 656              		.loc 1 341 0
 657 04e8 0400A0E1 		mov	r0, r4
 658 04ec FEFFFFEB 		bl	rprintfStr
 659              		.loc 1 342 0
 660 04f0 0000A0E3 		mov	r0, #0
 661 04f4 CC109FE5 		ldr	r1, .L73+4
 662 04f8 FEFFFFEB 		bl	rprintf1RamRom
 663              		.loc 1 343 0
 664 04fc 1930D4E5 		ldrb	r3, [r4, #25]	@ zero_extendqisi2
 665 0500 1A20D4E5 		ldrb	r2, [r4, #26]	@ zero_extendqisi2
 666 0504 023483E1 		orr	r3, r3, r2, asl #8
 667 0508 1B20D4E5 		ldrb	r2, [r4, #27]	@ zero_extendqisi2
 668 050c 023883E1 		orr	r3, r3, r2, asl #16
 669 0510 1C20D4E5 		ldrb	r2, [r4, #28]	@ zero_extendqisi2
 670 0514 023C83E1 		orr	r3, r3, r2, asl #24
 671 0518 00308DE5 		str	r3, [sp, #0]
 672 051c 0A00A0E3 		mov	r0, #10
 673 0520 0010A0E1 		mov	r1, r0
 674 0524 0020A0E3 		mov	r2, #0
 675 0528 2030A0E3 		mov	r3, #32
 676 052c FEFFFFEB 		bl	rprintfNum
 677              		.loc 1 344 0
 678 0530 0000A0E3 		mov	r0, #0
 679 0534 90109FE5 		ldr	r1, .L73+8
 680 0538 FEFFFFEB 		bl	rprintf1RamRom
 681              		.loc 1 345 0
 682 053c 1D30D4E5 		ldrb	r3, [r4, #29]	@ zero_extendqisi2
 683 0540 1E20D4E5 		ldrb	r2, [r4, #30]	@ zero_extendqisi2
 684 0544 023483E1 		orr	r3, r3, r2, asl #8
 685 0548 1F20D4E5 		ldrb	r2, [r4, #31]	@ zero_extendqisi2
 686 054c 023883E1 		orr	r3, r3, r2, asl #16
 687 0550 2020D4E5 		ldrb	r2, [r4, #32]	@ zero_extendqisi2
 688 0554 023C83E1 		orr	r3, r3, r2, asl #24
 689 0558 00308DE5 		str	r3, [sp, #0]
 690 055c 0A00A0E3 		mov	r0, #10
 691 0560 0010A0E1 		mov	r1, r0
 692 0564 0020A0E3 		mov	r2, #0
 693 0568 2030A0E3 		mov	r3, #32
 694 056c FEFFFFEB 		bl	rprintfNum
 695              		.loc 1 346 0
ARM GAS  C:\DOCUME~1\TECHCO~1\LOCALS~1\Temp/cc4Kaaaa.s 			page 21


 696 0570 0000A0E3 		mov	r0, #0
 697 0574 54109FE5 		ldr	r1, .L73+12
 698 0578 FEFFFFEB 		bl	rprintf1RamRom
 699              		.loc 1 347 0
 700 057c 2130D4E5 		ldrb	r3, [r4, #33]	@ zero_extendqisi2
 701 0580 2220D4E5 		ldrb	r2, [r4, #34]	@ zero_extendqisi2
 702 0584 023483E1 		orr	r3, r3, r2, asl #8
 703 0588 2320D4E5 		ldrb	r2, [r4, #35]	@ zero_extendqisi2
 704 058c 023883E1 		orr	r3, r3, r2, asl #16
 705 0590 2420D4E5 		ldrb	r2, [r4, #36]	@ zero_extendqisi2
 706 0594 023C83E1 		orr	r3, r3, r2, asl #24
 707 0598 00308DE5 		str	r3, [sp, #0]
 708 059c 0A00A0E3 		mov	r0, #10
 709 05a0 0010A0E1 		mov	r1, r0
 710 05a4 0020A0E3 		mov	r2, #0
 711 05a8 2030A0E3 		mov	r3, #32
 712 05ac FEFFFFEB 		bl	rprintfNum
 713              		.loc 1 348 0
 714 05b0 0000A0E3 		mov	r0, #0
 715 05b4 18109FE5 		ldr	r1, .L73+16
 716 05b8 FEFFFFEB 		bl	rprintf1RamRom
 717              		.loc 1 349 0
 718 05bc 04D08DE2 		add	sp, sp, #4
 719 05c0 1080BDE8 		ldmfd	sp!, {r4, pc}
 720              	.L74:
 721              		.align	2
 722              	.L73:
 723 05c4 84000000 		.word	.LC12
 724 05c8 8C000000 		.word	.LC13
 725 05cc 98000000 		.word	.LC14
 726 05d0 AC000000 		.word	.LC15
 727 05d4 B4000000 		.word	.LC16
 728              	.LFE14:
 729              		.size	printHeader, .-printHeader
 730              		.align	2
 731              		.global	discardCommand
 732              		.type	discardCommand, %function
 733              	discardCommand:
 734              	.LFB9:
 735              		.loc 1 301 0
 736              		@ args = 0, pretend = 0, frame = 0
 737              		@ frame_needed = 0, uses_anonymous_args = 0
 738              	.LVL30:
 739 05d8 10402DE9 		stmfd	sp!, {r4, lr}
 740              	.LCFI6:
 741 05dc 0040A0E1 		mov	r4, r0
 742              		.loc 1 302 0
 743 05e0 0A00D0E5 		ldrb	r0, [r0, #10]	@ zero_extendqisi2
 744              	.LVL31:
 745 05e4 0B30D4E5 		ldrb	r3, [r4, #11]	@ zero_extendqisi2
 746 05e8 030480E1 		orr	r0, r0, r3, asl #8
 747 05ec 0C30D4E5 		ldrb	r3, [r4, #12]	@ zero_extendqisi2
 748 05f0 030880E1 		orr	r0, r0, r3, asl #16
 749 05f4 0D30D4E5 		ldrb	r3, [r4, #13]	@ zero_extendqisi2
 750 05f8 030C80E1 		orr	r0, r0, r3, asl #24
 751 05fc FEFFFFEB 		bl	free
 752              		.loc 1 303 0
ARM GAS  C:\DOCUME~1\TECHCO~1\LOCALS~1\Temp/cc4Kaaaa.s 			page 22


 753 0600 0400A0E1 		mov	r0, r4
 754 0604 FEFFFFEB 		bl	free
 755              		.loc 1 304 0
 756 0608 1080BDE8 		ldmfd	sp!, {r4, pc}
 757              	.LFE9:
 758              		.size	discardCommand, .-discardCommand
 759              		.section	.rodata.str1.4
 760 00be 0000     		.align	2
 761              	.LC17:
 762 00c0 456E7465 		.ascii	"Entering Read\015\000"
 762      72696E67 
 762      20526561 
 762      640D00
 763 00cf 00       		.align	2
 764              	.LC18:
 765 00d0 436F756E 		.ascii	"Counter %d\015\000"
 765      74657220 
 765      25640D00 
 766              		.align	2
 767              	.LC19:
 768 00dc 45786974 		.ascii	"Exiting...\000"
 768      696E672E 
 768      2E2E00
 769              		.text
 770              		.align	2
 771              		.global	readSequenceFile
 772              		.type	readSequenceFile, %function
 773              	readSequenceFile:
 774              	.LFB7:
 775              		.loc 1 214 0
 776              		@ args = 0, pretend = 0, frame = 12
 777              		@ frame_needed = 0, uses_anonymous_args = 0
 778              	.LVL32:
 779 060c F04F2DE9 		stmfd	sp!, {r4, r5, r6, r7, r8, r9, sl, fp, lr}
 780              	.LCFI7:
 781 0610 0CD04DE2 		sub	sp, sp, #12
 782              	.LCFI8:
 783 0614 0040A0E1 		mov	r4, r0
 784 0618 0160A0E1 		mov	r6, r1
 785              		.loc 1 220 0
 786 061c 0000A0E3 		mov	r0, #0
 787              	.LVL33:
 788 0620 80129FE5 		ldr	r1, .L98
 789              	.LVL34:
 790 0624 FEFFFFEB 		bl	rprintf1RamRom
 791              		.loc 1 223 0
 792 0628 7C029FE5 		ldr	r0, .L98+4
 793 062c 7C129FE5 		ldr	r1, .L98+8
 794 0630 0420A0E1 		mov	r2, r4
 795 0634 7230A0E3 		mov	r3, #114
 796 0638 FEFFFFEB 		bl	file_fopen
 797 063c FF0010E3 		tst	r0, #255
 798 0640 0100A013 		movne	r0, #1
 799 0644 2602001A 		bne	.L80
 800              		.loc 1 226 0
 801 0648 5C029FE5 		ldr	r0, .L98+4
 802 064c 2610A0E3 		mov	r1, #38
ARM GAS  C:\DOCUME~1\TECHCO~1\LOCALS~1\Temp/cc4Kaaaa.s 			page 23


 803 0650 0620A0E1 		mov	r2, r6
 804 0654 FEFFFFEB 		bl	file_read
 805              		.loc 1 229 0
 806 0658 0600A0E1 		mov	r0, r6
 807 065c FEFFFFEB 		bl	validateHeaderChecksum
 808 0660 000050E3 		cmp	r0, #0
 809 0664 0200A013 		movne	r0, #2
 810 0668 2602001A 		bne	.L80
 811              		.loc 1 232 0
 812 066c 0600A0E1 		mov	r0, r6
 813 0670 FEFFFFEB 		bl	printHeader
 814              		.loc 1 233 0
 815 0674 1940D6E5 		ldrb	r4, [r6, #25]	@ zero_extendqisi2
 816              	.LVL35:
 817              		.loc 1 235 0
 818 0678 0402A0E1 		mov	r0, r4, asl #4
 819 067c FEFFFFEB 		bl	malloc
 820 0680 0050A0E1 		mov	r5, r0
 821              		.loc 1 236 0
 822 0684 04A0A0E1 		mov	sl, r4
 823              	.LVL36:
 824 0688 0410A0E1 		mov	r1, r4
 825 068c FEFFFFEB 		bl	initQueueArray
 826              		.loc 1 238 0
 827 0690 0C00A0E3 		mov	r0, #12
 828 0694 FEFFFFEB 		bl	malloc
 829 0698 14329FE5 		ldr	r3, .L98+12
 830 069c 000083E5 		str	r0, [r3, #0]
 831              		.loc 1 239 0
 832 06a0 1D20D6E5 		ldrb	r2, [r6, #29]	@ zero_extendqisi2
 833 06a4 1E30D6E5 		ldrb	r3, [r6, #30]	@ zero_extendqisi2
 834 06a8 032482E1 		orr	r2, r2, r3, asl #8
 835 06ac 1F30D6E5 		ldrb	r3, [r6, #31]	@ zero_extendqisi2
 836 06b0 032882E1 		orr	r2, r2, r3, asl #16
 837 06b4 2030D6E5 		ldrb	r3, [r6, #32]	@ zero_extendqisi2
 838 06b8 032C82E1 		orr	r2, r2, r3, asl #24
 839 06bc 042080E5 		str	r2, [r0, #4]
 840              		.loc 1 240 0
 841 06c0 1930D6E5 		ldrb	r3, [r6, #25]	@ zero_extendqisi2
 842 06c4 1A10D6E5 		ldrb	r1, [r6, #26]	@ zero_extendqisi2
 843 06c8 013483E1 		orr	r3, r3, r1, asl #8
 844 06cc 1B10D6E5 		ldrb	r1, [r6, #27]	@ zero_extendqisi2
 845 06d0 013883E1 		orr	r3, r3, r1, asl #16
 846 06d4 1C10D6E5 		ldrb	r1, [r6, #28]	@ zero_extendqisi2
 847 06d8 013C83E1 		orr	r3, r3, r1, asl #24
 848 06dc 003080E5 		str	r3, [r0, #0]
 849              		.loc 1 241 0
 850 06e0 085080E5 		str	r5, [r0, #8]
 851              		.loc 1 242 0
 852 06e4 0000A0E3 		mov	r0, #0
 853 06e8 C8119FE5 		ldr	r1, .L98+16
 854 06ec FEFFFFEB 		bl	rprintf1RamRom
 855              		.loc 1 243 0
 856 06f0 1D30D6E5 		ldrb	r3, [r6, #29]	@ zero_extendqisi2
 857 06f4 1E20D6E5 		ldrb	r2, [r6, #30]	@ zero_extendqisi2
 858 06f8 023483E1 		orr	r3, r3, r2, asl #8
 859 06fc 1F20D6E5 		ldrb	r2, [r6, #31]	@ zero_extendqisi2
ARM GAS  C:\DOCUME~1\TECHCO~1\LOCALS~1\Temp/cc4Kaaaa.s 			page 24


 860 0700 023883E1 		orr	r3, r3, r2, asl #16
 861 0704 2020D6E5 		ldrb	r2, [r6, #32]	@ zero_extendqisi2
 862 0708 023C93E1 		orrs	r3, r3, r2, asl #24
 863 070c 1802000A 		beq	.L83
 864 0710 0020A0E3 		mov	r2, #0
 865 0714 00208DE5 		str	r2, [sp, #0]
 866              	.LVL37:
 867 0718 8C919FE5 		ldr	r9, .L98+4
 868 071c 90B19FE5 		ldr	fp, .L98+12
 869              	.LVL38:
 870              	.L85:
 871              	.LBB7:
 872              		.loc 1 245 0
 873 0720 0F00A0E3 		mov	r0, #15
 874 0724 FEFFFFEB 		bl	malloc
 875 0728 0050A0E1 		mov	r5, r0
 876              		.loc 1 248 0
 877 072c 0900A0E1 		mov	r0, r9
 878 0730 0A10A0E3 		mov	r1, #10
 879 0734 0520A0E1 		mov	r2, r5
 880 0738 FEFFFFEB 		bl	file_read
 881              		.loc 1 250 0
 882 073c 0800D5E5 		ldrb	r0, [r5, #8]	@ zero_extendqisi2
 883 0740 FEFFFFEB 		bl	malloc
 884 0744 0020A0E1 		mov	r2, r0
 885              		.loc 1 251 0
 886 0748 0A00C5E5 		strb	r0, [r5, #10]
 887 074c 2034A0E1 		mov	r3, r0, lsr #8
 888 0750 0B30C5E5 		strb	r3, [r5, #11]
 889 0754 2038A0E1 		mov	r3, r0, lsr #16
 890 0758 0C30C5E5 		strb	r3, [r5, #12]
 891 075c 203CA0E1 		mov	r3, r0, lsr #24
 892 0760 0D30C5E5 		strb	r3, [r5, #13]
 893              		.loc 1 254 0
 894 0764 0900A0E1 		mov	r0, r9
 895 0768 0810D5E5 		ldrb	r1, [r5, #8]	@ zero_extendqisi2
 896 076c FEFFFFEB 		bl	file_read
 897              		.loc 1 256 0
 898 0770 0900A0E1 		mov	r0, r9
 899 0774 0110A0E3 		mov	r1, #1
 900 0778 0B208DE2 		add	r2, sp, #11
 901 077c FEFFFFEB 		bl	file_read
 902              		.loc 1 260 0
 903 0780 0500A0E1 		mov	r0, r5
 904 0784 FEFFFFEB 		bl	calcPacketChecksum
 905 0788 0B30DDE5 		ldrb	r3, [sp, #11]	@ zero_extendqisi2
 906 078c 000053E1 		cmp	r3, r0
 907 0790 2102001A 		bne	.L95
 908              	.LVL39:
 909              		.loc 1 263 0
 910 0794 0C00A0E3 		mov	r0, #12
 911 0798 FEFFFFEB 		bl	malloc
 912              	.LVL40:
 913 079c 0080A0E1 		mov	r8, r0
 914              		.loc 1 264 0
 915 07a0 005080E5 		str	r5, [r0, #0]
 916              		.loc 1 269 0
ARM GAS  C:\DOCUME~1\TECHCO~1\LOCALS~1\Temp/cc4Kaaaa.s 			page 25


 917 07a4 08719FE5 		ldr	r7, .L98+12
 918 07a8 003097E5 		ldr	r3, [r7, #0]
 919 07ac 04408DE2 		add	r4, sp, #4
 920 07b0 0700D5E5 		ldrb	r0, [r5, #7]	@ zero_extendqisi2
 921 07b4 081093E5 		ldr	r1, [r3, #8]
 922 07b8 0A20A0E1 		mov	r2, sl
 923 07bc 0430A0E1 		mov	r3, r4
 924 07c0 FEFFFFEB 		bl	findQueueWithAddress
 925 07c4 000050E3 		cmp	r0, #0
 926 07c8 FF01001A 		bne	.L88
 927              		.loc 1 271 0
 928 07cc 003097E5 		ldr	r3, [r7, #0]
 929 07d0 FE0080E2 		add	r0, r0, #254
 930 07d4 081093E5 		ldr	r1, [r3, #8]
 931 07d8 0A20A0E1 		mov	r2, sl
 932 07dc 0430A0E1 		mov	r3, r4
 933 07e0 FEFFFFEB 		bl	findQueueWithAddress
 934 07e4 010070E3 		cmn	r0, #1
 935 07e8 2302001A 		bne	.L96
 936              		.loc 1 272 0
 937 07ec 00309BE5 		ldr	r3, [fp, #0]
 938 07f0 083093E5 		ldr	r3, [r3, #8]
 939 07f4 04009DE5 		ldr	r0, [sp, #4]
 940 07f8 000283E0 		add	r0, r3, r0, asl #4
 941 07fc 0710D5E5 		ldrb	r1, [r5, #7]	@ zero_extendqisi2
 942 0800 FEFFFFEB 		bl	setQueueID
 943              	.L88:
 944              		.loc 1 277 0
 945 0804 00309BE5 		ldr	r3, [fp, #0]
 946 0808 0700D5E5 		ldrb	r0, [r5, #7]	@ zero_extendqisi2
 947 080c 081093E5 		ldr	r1, [r3, #8]
 948 0810 0A20A0E1 		mov	r2, sl
 949 0814 04308DE2 		add	r3, sp, #4
 950 0818 FEFFFFEB 		bl	findQueueWithAddress
 951              		.loc 1 278 0
 952 081c 00309BE5 		ldr	r3, [fp, #0]
 953 0820 083093E5 		ldr	r3, [r3, #8]
 954 0824 04009DE5 		ldr	r0, [sp, #4]
 955 0828 000283E0 		add	r0, r3, r0, asl #4
 956 082c 0810A0E1 		mov	r1, r8
 957 0830 FEFFFFEB 		bl	enqueue
 958              	.LBE7:
 959              		.loc 1 243 0
 960 0834 00309DE5 		ldr	r3, [sp, #0]
 961 0838 013083E2 		add	r3, r3, #1
 962 083c 00308DE5 		str	r3, [sp, #0]
 963 0840 1D30D6E5 		ldrb	r3, [r6, #29]	@ zero_extendqisi2
 964 0844 1E20D6E5 		ldrb	r2, [r6, #30]	@ zero_extendqisi2
 965 0848 023483E1 		orr	r3, r3, r2, asl #8
 966 084c 1F20D6E5 		ldrb	r2, [r6, #31]	@ zero_extendqisi2
 967 0850 023883E1 		orr	r3, r3, r2, asl #16
 968 0854 2020D6E5 		ldrb	r2, [r6, #32]	@ zero_extendqisi2
 969 0858 023C83E1 		orr	r3, r3, r2, asl #24
 970 085c 00209DE5 		ldr	r2, [sp, #0]
 971 0860 020053E1 		cmp	r3, r2
 972 0864 C601008A 		bhi	.L85
 973              	.L83:
ARM GAS  C:\DOCUME~1\TECHCO~1\LOCALS~1\Temp/cc4Kaaaa.s 			page 26


 974              		.loc 1 281 0
 975 0868 0000A0E3 		mov	r0, #0
 976 086c 48109FE5 		ldr	r1, .L98+20
 977 0870 FEFFFFEB 		bl	rprintf1RamRom
 978              		.loc 1 283 0
 979 0874 30009FE5 		ldr	r0, .L98+4
 980 0878 FEFFFFEB 		bl	file_fclose
 981 087c FF0010E3 		tst	r0, #255
 982 0880 0500A013 		movne	r0, #5
 983 0884 2602001A 		bne	.L80
 984 0888 250200EA 		b	.L92
 985              	.LVL41:
 986              	.L95:
 987              	.LBB8:
 988              		.loc 1 260 0
 989 088c 0300A0E3 		mov	r0, #3
 990 0890 260200EA 		b	.L80
 991              	.LVL42:
 992              	.L96:
 993              		.loc 1 271 0
 994 0894 0400A0E3 		mov	r0, #4
 995 0898 260200EA 		b	.L80
 996              	.L92:
 997              	.LBE8:
 998              		.loc 1 283 0
 999 089c 0000A0E3 		mov	r0, #0
 1000              	.LVL43:
 1001              	.L80:
 1002              		.loc 1 287 0
 1003 08a0 0CD08DE2 		add	sp, sp, #12
 1004 08a4 F08FBDE8 		ldmfd	sp!, {r4, r5, r6, r7, r8, r9, sl, fp, pc}
 1005              	.L99:
 1006              		.align	2
 1007              	.L98:
 1008 08a8 C0000000 		.word	.LC17
 1009 08ac 00000000 		.word	filer
 1010 08b0 84020000 		.word	efs+644
 1011 08b4 00000000 		.word	cmesh
 1012 08b8 D0000000 		.word	.LC18
 1013 08bc DC000000 		.word	.LC19
 1014              	.LFE7:
 1015              		.size	readSequenceFile, .-readSequenceFile
 1016              		.align	2
 1017              		.global	loadSequenceFile
 1018              		.type	loadSequenceFile, %function
 1019              	loadSequenceFile:
 1020              	.LFB8:
 1021              		.loc 1 290 0
 1022              		@ args = 0, pretend = 0, frame = 40
 1023              		@ frame_needed = 0, uses_anonymous_args = 0
 1024              	.LVL44:
 1025 08c0 04E02DE5 		str	lr, [sp, #-4]!
 1026              	.LCFI9:
 1027 08c4 28D04DE2 		sub	sp, sp, #40
 1028              	.LCFI10:
 1029              		.loc 1 294 0
 1030 08c8 02108DE2 		add	r1, sp, #2
ARM GAS  C:\DOCUME~1\TECHCO~1\LOCALS~1\Temp/cc4Kaaaa.s 			page 27


 1031 08cc FEFFFFEB 		bl	readSequenceFile
 1032              	.LVL45:
 1033 08d0 000050E3 		cmp	r0, #0
 1034              		.loc 1 298 0
 1035 08d4 0000A003 		moveq	r0, #0
 1036 08d8 0000E013 		mvnne	r0, #0
 1037 08dc 28D08DE2 		add	sp, sp, #40
 1038 08e0 0080BDE8 		ldmfd	sp!, {pc}
 1039              	.LFE8:
 1040              		.size	loadSequenceFile, .-loadSequenceFile
 1041              		.section	.rodata.str1.4
 1042 00e7 00       		.align	2
 1043              	.LC20:
 1044 00e8 5278436C 		.ascii	"RxClass:\000"
 1044      6173733A 
 1044      00
 1045 00f1 000000   		.align	2
 1046              	.LC21:
 1047 00f4 20527841 		.ascii	" RxAddr:\000"
 1047      6464723A 
 1047      00
 1048 00fd 000000   		.align	2
 1049              	.LC22:
 1050 0100 20527843 		.ascii	" RxCmd:\000"
 1050      6D643A00 
 1051              		.align	2
 1052              	.LC23:
 1053 0108 496E636F 		.ascii	"Incorrect CMD received\012\000"
 1053      72726563 
 1053      7420434D 
 1053      44207265 
 1053      63656976 
 1054              		.align	2
 1055              	.LC24:
 1056 0120 5478436D 		.ascii	"TxCmd:\000"
 1056      643A00
 1057 0127 00       		.align	2
 1058              	.LC25:
 1059 0128 54696D65 		.ascii	"Timeout occurred\012\000"
 1059      6F757420 
 1059      6F636375 
 1059      72726564 
 1059      0A00
 1060              		.text
 1061              		.align	2
 1062              		.global	runSequence
 1063              		.type	runSequence, %function
 1064              	runSequence:
 1065              	.LFB6:
 1066              		.loc 1 101 0
 1067              		@ args = 0, pretend = 0, frame = 16
 1068              		@ frame_needed = 0, uses_anonymous_args = 0
 1069 08e4 F04F2DE9 		stmfd	sp!, {r4, r5, r6, r7, r8, r9, sl, fp, lr}
 1070              	.LCFI11:
 1071 08e8 14D04DE2 		sub	sp, sp, #20
 1072              	.LCFI12:
 1073              		.loc 1 106 0
ARM GAS  C:\DOCUME~1\TECHCO~1\LOCALS~1\Temp/cc4Kaaaa.s 			page 28


 1074 08ec B0339FE5 		ldr	r3, .L142
 1075 08f0 003093E5 		ldr	r3, [r3, #0]
 1076 08f4 0030D3E5 		ldrb	r3, [r3, #0]	@ zero_extendqisi2
 1077 08f8 08308DE5 		str	r3, [sp, #8]
 1078              	.LVL46:
 1079              		.loc 1 108 0
 1080 08fc 8301A0E1 		mov	r0, r3, asl #3
 1081 0900 FEFFFFEB 		bl	malloc
 1082 0904 0040A0E1 		mov	r4, r0
 1083 0908 0C008DE5 		str	r0, [sp, #12]
 1084              	.LVL47:
 1085              		.loc 1 111 0
 1086 090c 08109DE5 		ldr	r1, [sp, #8]
 1087 0910 000051E3 		cmp	r1, #0
 1088 0914 4C0200DA 		ble	.L106
 1089 0918 0050A0E3 		mov	r5, #0
 1090              	.LVL48:
 1091              	.L108:
 1092              		.loc 1 112 0
 1093 091c 0400A0E1 		mov	r0, r4
 1094 0920 FEFFFFEB 		bl	initCubeState
 1095              		.loc 1 111 0
 1096 0924 015085E2 		add	r5, r5, #1
 1097 0928 084084E2 		add	r4, r4, #8
 1098 092c 08209DE5 		ldr	r2, [sp, #8]
 1099 0930 050052E1 		cmp	r2, r5
 1100 0934 4502001A 		bne	.L108
 1101              	.L106:
 1102 0938 0030A0E3 		mov	r3, #0
 1103 093c 04308DE5 		str	r3, [sp, #4]
 1104              	.LVL49:
 1105 0940 140300EA 		b	.L141
 1106              	.LVL50:
 1107              	.L111:
 1108 0944 0BA2A0E1 		mov	sl, fp, asl #4
 1109              		.loc 1 120 0
 1110 0948 003099E5 		ldr	r3, [r9, #0]
 1111 094c 083093E5 		ldr	r3, [r3, #8]
 1112 0950 03208AE0 		add	r2, sl, r3
 1113 0954 043092E5 		ldr	r3, [r2, #4]
 1114 0958 000053E3 		cmp	r3, #0
 1115 095c 080300DA 		ble	.L112
 1116 0960 083092E5 		ldr	r3, [r2, #8]
 1117 0964 004093E5 		ldr	r4, [r3, #0]
 1118 0968 0030D4E5 		ldrb	r3, [r4, #0]	@ zero_extendqisi2
 1119 096c 0120D4E5 		ldrb	r2, [r4, #1]	@ zero_extendqisi2
 1120 0970 023483E1 		orr	r3, r3, r2, asl #8
 1121 0974 0220D4E5 		ldrb	r2, [r4, #2]	@ zero_extendqisi2
 1122 0978 023883E1 		orr	r3, r3, r2, asl #16
 1123 097c 0320D4E5 		ldrb	r2, [r4, #3]	@ zero_extendqisi2
 1124 0980 023C83E1 		orr	r3, r3, r2, asl #24
 1125 0984 1C239FE5 		ldr	r2, .L142+4
 1126 0988 002092E5 		ldr	r2, [r2, #0]
 1127 098c 020053E1 		cmp	r3, r2
 1128 0990 0803008A 		bhi	.L112
 1129              		.loc 1 125 0
 1130 0994 0600D4E5 		ldrb	r0, [r4, #6]	@ zero_extendqisi2
ARM GAS  C:\DOCUME~1\TECHCO~1\LOCALS~1\Temp/cc4Kaaaa.s 			page 29


 1131 0998 0710D4E5 		ldrb	r1, [r4, #7]	@ zero_extendqisi2
 1132 099c 0920D4E5 		ldrb	r2, [r4, #9]	@ zero_extendqisi2
 1133 09a0 0830D4E5 		ldrb	r3, [r4, #8]	@ zero_extendqisi2
 1134 09a4 0AC0D4E5 		ldrb	ip, [r4, #10]	@ zero_extendqisi2
 1135 09a8 0BE0D4E5 		ldrb	lr, [r4, #11]	@ zero_extendqisi2
 1136 09ac 0EC48CE1 		orr	ip, ip, lr, asl #8
 1137 09b0 0CE0D4E5 		ldrb	lr, [r4, #12]	@ zero_extendqisi2
 1138 09b4 0EC88CE1 		orr	ip, ip, lr, asl #16
 1139 09b8 0DE0D4E5 		ldrb	lr, [r4, #13]	@ zero_extendqisi2
 1140 09bc 0ECC8CE1 		orr	ip, ip, lr, asl #24
 1141 09c0 00C08DE5 		str	ip, [sp, #0]
 1142 09c4 FEFFFFEB 		bl	cmd_BuildPacket
 1143              		.loc 1 132 0
 1144 09c8 003099E5 		ldr	r3, [r9, #0]
 1145 09cc 083093E5 		ldr	r3, [r3, #8]
 1146 09d0 0A3083E0 		add	r3, r3, sl
 1147 09d4 083093E5 		ldr	r3, [r3, #8]
 1148 09d8 000093E5 		ldr	r0, [r3, #0]
 1149 09dc 0420D0E5 		ldrb	r2, [r0, #4]	@ zero_extendqisi2
 1150 09e0 000052E3 		cmp	r2, #0
 1151 09e4 0240A001 		moveq	r4, r2
 1152              	.LVL51:
 1153 09e8 BC129F05 		ldreq	r1, .L142+8
 1154 09ec 10108D05 		streq	r1, [sp, #16]
 1155 09f0 0140A013 		movne	r4, #1
 1156 09f4 B4229F15 		ldrne	r2, .L142+12
 1157 09f8 10208D15 		strne	r2, [sp, #16]
 1158              		.loc 1 141 0
 1159 09fc FEFFFFEB 		bl	printCommand
 1160              		.loc 1 143 0
 1161 0a00 0460A0E1 		mov	r6, r4
 1162              	.LVL52:
 1163 0a04 0400A0E1 		mov	r0, r4
 1164 0a08 FEFFFFEB 		bl	cmd_Execute
 1165 0a0c 0070A0E3 		mov	r7, #0
 1166              		.loc 1 146 0
 1167 0a10 358EA0E3 		mov	r8, #848
 1168 0a14 028088E2 		add	r8, r8, #2
 1169 0a18 860200EA 		b	.L118
 1170              	.LVL53:
 1171              	.L119:
 1172              		.loc 1 151 0
 1173 0a1c 017087E2 		add	r7, r7, #1
 1174              	.LVL54:
 1175              	.L118:
 1176              		.loc 1 146 0
 1177 0a20 003099E5 		ldr	r3, [r9, #0]
 1178 0a24 083093E5 		ldr	r3, [r3, #8]
 1179 0a28 0A3083E0 		add	r3, r3, sl
 1180 0a2c 083093E5 		ldr	r3, [r3, #8]
 1181 0a30 003093E5 		ldr	r3, [r3, #0]
 1182 0a34 0640D3E5 		ldrb	r4, [r3, #6]	@ zero_extendqisi2
 1183 0a38 0750D3E5 		ldrb	r5, [r3, #7]	@ zero_extendqisi2
 1184              	.LVL55:
 1185 0a3c 0600A0E1 		mov	r0, r6
 1186 0a40 FEFFFFEB 		bl	uartGetRxBuffer
 1187 0a44 0030A0E1 		mov	r3, r0
ARM GAS  C:\DOCUME~1\TECHCO~1\LOCALS~1\Temp/cc4Kaaaa.s 			page 30


 1188 0a48 0600A0E1 		mov	r0, r6
 1189 0a4c 0410A0E1 		mov	r1, r4
 1190 0a50 0520A0E1 		mov	r2, r5
 1191 0a54 FEFFFFEB 		bl	packetRxProcess
 1192 0a58 000050E3 		cmp	r0, #0
 1193 0a5c 9902001A 		bne	.L120
 1194 0a60 080057E1 		cmp	r7, r8
 1195 0a64 8502001A 		bne	.L119
 1196 0a68 050300EA 		b	.L122
 1197              	.L120:
 1198              		.loc 1 153 0
 1199 0a6c 353EA0E3 		mov	r3, #848
 1200 0a70 013083E2 		add	r3, r3, #1
 1201 0a74 030057E1 		cmp	r7, r3
 1202 0a78 050300CA 		bgt	.L122
 1203              		.loc 1 155 0
 1204 0a7c 20429FE5 		ldr	r4, .L142
 1205 0a80 003094E5 		ldr	r3, [r4, #0]
 1206 0a84 083093E5 		ldr	r3, [r3, #8]
 1207 0a88 0A3083E0 		add	r3, r3, sl
 1208 0a8c 083093E5 		ldr	r3, [r3, #8]
 1209 0a90 003093E5 		ldr	r3, [r3, #0]
 1210 0a94 10109DE5 		ldr	r1, [sp, #16]
 1211 0a98 0220D1E5 		ldrb	r2, [r1, #2]	@ zero_extendqisi2
 1212 0a9c 0930D3E5 		ldrb	r3, [r3, #9]	@ zero_extendqisi2
 1213 0aa0 030052E1 		cmp	r2, r3
 1214 0aa4 F002001A 		bne	.L124
 1215              		.loc 1 158 0
 1216 0aa8 8330D1E5 		ldrb	r3, [r1, #131]	@ zero_extendqisi2
 1217 0aac 000053E3 		cmp	r3, #0
 1218 0ab0 C302000A 		beq	.L126
 1219              		.loc 1 160 0
 1220 0ab4 0000A0E3 		mov	r0, #0
 1221 0ab8 F4119FE5 		ldr	r1, .L142+16
 1222 0abc FEFFFFEB 		bl	rprintf1RamRom
 1223              		.loc 1 161 0
 1224 0ac0 003094E5 		ldr	r3, [r4, #0]
 1225 0ac4 083093E5 		ldr	r3, [r3, #8]
 1226 0ac8 03308AE0 		add	r3, sl, r3
 1227 0acc 083093E5 		ldr	r3, [r3, #8]
 1228 0ad0 003093E5 		ldr	r3, [r3, #0]
 1229 0ad4 0600D3E5 		ldrb	r0, [r3, #6]	@ zero_extendqisi2
 1230 0ad8 FEFFFFEB 		bl	rprintfu08
 1231              		.loc 1 162 0
 1232 0adc 0000A0E3 		mov	r0, #0
 1233 0ae0 D0119FE5 		ldr	r1, .L142+20
 1234 0ae4 FEFFFFEB 		bl	rprintf1RamRom
 1235              		.loc 1 163 0
 1236 0ae8 003094E5 		ldr	r3, [r4, #0]
 1237 0aec 083093E5 		ldr	r3, [r3, #8]
 1238 0af0 03308AE0 		add	r3, sl, r3
 1239 0af4 083093E5 		ldr	r3, [r3, #8]
 1240 0af8 003093E5 		ldr	r3, [r3, #0]
 1241 0afc 0700D3E5 		ldrb	r0, [r3, #7]	@ zero_extendqisi2
 1242 0b00 FEFFFFEB 		bl	rprintfu08
 1243              		.loc 1 164 0
 1244 0b04 FEFFFFEB 		bl	rprintfCRLF
ARM GAS  C:\DOCUME~1\TECHCO~1\LOCALS~1\Temp/cc4Kaaaa.s 			page 31


 1245              		.loc 1 165 0
 1246 0b08 10009DE5 		ldr	r0, [sp, #16]
 1247 0b0c FEFFFFEB 		bl	cmd_PrintRxPacket
 1248 0b10 E20200EA 		b	.L128
 1249              	.L126:
 1250              		.loc 1 167 0
 1251 0b14 0000A0E3 		mov	r0, #0
 1252 0b18 94119FE5 		ldr	r1, .L142+16
 1253 0b1c FEFFFFEB 		bl	rprintf1RamRom
 1254              		.loc 1 168 0
 1255 0b20 003099E5 		ldr	r3, [r9, #0]
 1256 0b24 083093E5 		ldr	r3, [r3, #8]
 1257 0b28 0A3083E0 		add	r3, r3, sl
 1258 0b2c 083093E5 		ldr	r3, [r3, #8]
 1259 0b30 003093E5 		ldr	r3, [r3, #0]
 1260 0b34 0600D3E5 		ldrb	r0, [r3, #6]	@ zero_extendqisi2
 1261 0b38 FEFFFFEB 		bl	rprintfu08
 1262              		.loc 1 169 0
 1263 0b3c 0000A0E3 		mov	r0, #0
 1264 0b40 70119FE5 		ldr	r1, .L142+20
 1265 0b44 FEFFFFEB 		bl	rprintf1RamRom
 1266              		.loc 1 170 0
 1267 0b48 003099E5 		ldr	r3, [r9, #0]
 1268 0b4c 083093E5 		ldr	r3, [r3, #8]
 1269 0b50 0A3083E0 		add	r3, r3, sl
 1270 0b54 083093E5 		ldr	r3, [r3, #8]
 1271 0b58 003093E5 		ldr	r3, [r3, #0]
 1272 0b5c 0700D3E5 		ldrb	r0, [r3, #7]	@ zero_extendqisi2
 1273 0b60 FEFFFFEB 		bl	rprintfu08
 1274              		.loc 1 171 0
 1275 0b64 0000A0E3 		mov	r0, #0
 1276 0b68 4C119FE5 		ldr	r1, .L142+24
 1277 0b6c FEFFFFEB 		bl	rprintf1RamRom
 1278              		.loc 1 172 0
 1279 0b70 003099E5 		ldr	r3, [r9, #0]
 1280 0b74 083093E5 		ldr	r3, [r3, #8]
 1281 0b78 0A3083E0 		add	r3, r3, sl
 1282 0b7c 083093E5 		ldr	r3, [r3, #8]
 1283 0b80 003093E5 		ldr	r3, [r3, #0]
 1284 0b84 0900D3E5 		ldrb	r0, [r3, #9]	@ zero_extendqisi2
 1285 0b88 FEFFFFEB 		bl	rprintfu08
 1286              		.loc 1 173 0
 1287 0b8c FEFFFFEB 		bl	rprintfCRLF
 1288              	.L128:
 1289              		.loc 1 177 0
 1290 0b90 003099E5 		ldr	r3, [r9, #0]
 1291 0b94 080093E5 		ldr	r0, [r3, #8]
 1292 0b98 00008AE0 		add	r0, sl, r0
 1293 0b9c FEFFFFEB 		bl	getHead
 1294 0ba0 000090E5 		ldr	r0, [r0, #0]
 1295 0ba4 FEFFFFEB 		bl	discardCommand
 1296              		.loc 1 178 0
 1297 0ba8 003099E5 		ldr	r3, [r9, #0]
 1298 0bac 080093E5 		ldr	r0, [r3, #8]
 1299 0bb0 00008AE0 		add	r0, sl, r0
 1300 0bb4 FEFFFFEB 		bl	dequeue
 1301              		.loc 1 179 0
ARM GAS  C:\DOCUME~1\TECHCO~1\LOCALS~1\Temp/cc4Kaaaa.s 			page 32


 1302 0bb8 04209DE5 		ldr	r2, [sp, #4]
 1303 0bbc 012082E2 		add	r2, r2, #1
 1304 0bc0 04208DE5 		str	r2, [sp, #4]
 1305 0bc4 080300EA 		b	.L112
 1306              	.L124:
 1307              		.loc 1 183 0
 1308 0bc8 0000A0E3 		mov	r0, #0
 1309 0bcc EC109FE5 		ldr	r1, .L142+28
 1310 0bd0 FEFFFFEB 		bl	rprintf1RamRom
 1311              		.loc 1 184 0
 1312 0bd4 0000A0E3 		mov	r0, #0
 1313 0bd8 E4109FE5 		ldr	r1, .L142+32
 1314 0bdc FEFFFFEB 		bl	rprintf1RamRom
 1315              		.loc 1 185 0
 1316 0be0 003099E5 		ldr	r3, [r9, #0]
 1317 0be4 083093E5 		ldr	r3, [r3, #8]
 1318 0be8 0A3083E0 		add	r3, r3, sl
 1319 0bec 083093E5 		ldr	r3, [r3, #8]
 1320 0bf0 003093E5 		ldr	r3, [r3, #0]
 1321 0bf4 0900D3E5 		ldrb	r0, [r3, #9]	@ zero_extendqisi2
 1322 0bf8 FEFFFFEB 		bl	rprintfu08
 1323              		.loc 1 186 0
 1324 0bfc 0000A0E3 		mov	r0, #0
 1325 0c00 B4109FE5 		ldr	r1, .L142+24
 1326 0c04 FEFFFFEB 		bl	rprintf1RamRom
 1327              		.loc 1 187 0
 1328 0c08 10309DE5 		ldr	r3, [sp, #16]
 1329 0c0c 0200D3E5 		ldrb	r0, [r3, #2]	@ zero_extendqisi2
 1330 0c10 FEFFFFEB 		bl	rprintfu08
 1331              		.loc 1 188 0
 1332 0c14 FEFFFFEB 		bl	rprintfCRLF
 1333 0c18 080300EA 		b	.L112
 1334              	.L122:
 1335              		.loc 1 195 0
 1336 0c1c 0000A0E3 		mov	r0, #0
 1337 0c20 A0109FE5 		ldr	r1, .L142+36
 1338 0c24 FEFFFFEB 		bl	rprintf1RamRom
 1339              	.LVL56:
 1340              	.L112:
 1341              		.loc 1 117 0
 1342 0c28 01B08BE2 		add	fp, fp, #1
 1343 0c2c 08109DE5 		ldr	r1, [sp, #8]
 1344 0c30 0B0051E1 		cmp	r1, fp
 1345 0c34 4F02001A 		bne	.L111
 1346              	.L129:
 1347              		.loc 1 203 0
 1348 0c38 64309FE5 		ldr	r3, .L142
 1349 0c3c 003093E5 		ldr	r3, [r3, #0]
 1350 0c40 043093E5 		ldr	r3, [r3, #4]
 1351 0c44 04209DE5 		ldr	r2, [sp, #4]
 1352 0c48 030052E1 		cmp	r2, r3
 1353              		.loc 1 204 0
 1354 0c4c 0020A023 		movcs	r2, #0
 1355 0c50 74309F25 		ldrcs	r3, .L142+40
 1356 0c54 0020C325 		strcsb	r2, [r3, #0]
 1357              	.L141:
 1358              		.loc 1 114 0
ARM GAS  C:\DOCUME~1\TECHCO~1\LOCALS~1\Temp/cc4Kaaaa.s 			page 33


 1359 0c58 6C309FE5 		ldr	r3, .L142+40
 1360 0c5c 0030D3E5 		ldrb	r3, [r3, #0]	@ zero_extendqisi2
 1361 0c60 000053E3 		cmp	r3, #0
 1362 0c64 1E03000A 		beq	.L131
 1363              		.loc 1 117 0
 1364 0c68 08309DE5 		ldr	r3, [sp, #8]
 1365 0c6c 000053E3 		cmp	r3, #0
 1366              		.loc 1 111 0
 1367 0c70 00B0A0C3 		movgt	fp, #0
 1368 0c74 28909FC5 		ldrgt	r9, .L142
 1369              		.loc 1 117 0
 1370 0c78 4F0200CA 		bgt	.L111
 1371 0c7c 0C0300EA 		b	.L129
 1372              	.L131:
 1373              		.loc 1 206 0
 1374 0c80 1C309FE5 		ldr	r3, .L142
 1375 0c84 003093E5 		ldr	r3, [r3, #0]
 1376 0c88 080093E5 		ldr	r0, [r3, #8]
 1377 0c8c FEFFFFEB 		bl	free
 1378              		.loc 1 207 0
 1379 0c90 0C009DE5 		ldr	r0, [sp, #12]
 1380 0c94 FEFFFFEB 		bl	free
 1381              		.loc 1 209 0
 1382 0c98 0000A0E3 		mov	r0, #0
 1383 0c9c 14D08DE2 		add	sp, sp, #20
 1384 0ca0 F08FBDE8 		ldmfd	sp!, {r4, r5, r6, r7, r8, r9, sl, fp, pc}
 1385              	.L143:
 1386              		.align	2
 1387              	.L142:
 1388 0ca4 00000000 		.word	cmesh
 1389 0ca8 00000000 		.word	TimeStep
 1390 0cac 00000000 		.word	int_busRxPkt
 1391 0cb0 00000000 		.word	ext_busRxPkt
 1392 0cb4 E8000000 		.word	.LC20
 1393 0cb8 F4000000 		.word	.LC21
 1394 0cbc 00010000 		.word	.LC22
 1395 0cc0 08010000 		.word	.LC23
 1396 0cc4 20010000 		.word	.LC24
 1397 0cc8 28010000 		.word	.LC25
 1398 0ccc 00000000 		.word	execute
 1399              	.LFE6:
 1400              		.size	runSequence, .-runSequence
 1401              		.section	.rodata.str1.4
 1402 013a 0000     		.align	2
 1403              	.LC26:
 1404 013c 49746572 		.ascii	"Iters:\000"
 1404      733A00
 1405 0143 00       		.align	2
 1406              	.LC27:
 1407 0144 52656164 		.ascii	"Reading Sequence from \000"
 1407      696E6720 
 1407      53657175 
 1407      656E6365 
 1407      2066726F 
 1408 015b 00       		.align	2
 1409              	.LC28:
 1410 015c 2E2E2E00 		.ascii	"...\000"
ARM GAS  C:\DOCUME~1\TECHCO~1\LOCALS~1\Temp/cc4Kaaaa.s 			page 34


 1411              		.align	2
 1412              	.LC29:
 1413 0160 52656164 		.ascii	"Read Sequence File\015\000"
 1413      20536571 
 1413      75656E63 
 1413      65204669 
 1413      6C650D00 
 1414              		.align	2
 1415              	.LC30:
 1416 0174 0A526561 		.ascii	"\012Read failure has occurred %d\012\000"
 1416      64206661 
 1416      696C7572 
 1416      65206861 
 1416      73206F63 
 1417 0193 00       		.align	2
 1418              	.LC31:
 1419 0194 6F6B0A00 		.ascii	"ok\012\000"
 1420              		.align	2
 1421              	.LC32:
 1422 0198 52657365 		.ascii	"Reset Timer\015\000"
 1422      74205469 
 1422      6D65720D 
 1422      00
 1423 01a5 000000   		.align	2
 1424              	.LC33:
 1425 01a8 52756E6E 		.ascii	"Running Sequence ...\000"
 1425      696E6720 
 1425      53657175 
 1425      656E6365 
 1425      202E2E2E 
 1426 01bd 000000   		.align	2
 1427              	.LC34:
 1428 01c0 52756E20 		.ascii	"Run Sequence\015\000"
 1428      53657175 
 1428      656E6365 
 1428      0D00
 1429 01ce 0000     		.align	2
 1430              	.LC35:
 1431 01d0 0A536571 		.ascii	"\012Sequence failure has occurred %d\012\000"
 1431      75656E63 
 1431      65206661 
 1431      696C7572 
 1431      65206861 
 1432 01f3 00       		.align	2
 1433              	.LC36:
 1434 01f4 636F6D70 		.ascii	"complete\012\000"
 1434      6C657465 
 1434      0A00
 1435 01fe 0000     		.text
 1436              		.align	2
 1437              		.global	sequenceExecProcess
 1438              		.type	sequenceExecProcess, %function
 1439              	sequenceExecProcess:
 1440              	.LFB4:
 1441              		.loc 1 27 0
 1442              		@ args = 0, pretend = 0, frame = 40
 1443              		@ frame_needed = 0, uses_anonymous_args = 0
ARM GAS  C:\DOCUME~1\TECHCO~1\LOCALS~1\Temp/cc4Kaaaa.s 			page 35


 1444              	.LVL57:
 1445 0cd0 30402DE9 		stmfd	sp!, {r4, r5, lr}
 1446              	.LCFI13:
 1447 0cd4 2CD04DE2 		sub	sp, sp, #44
 1448              	.LCFI14:
 1449 0cd8 0040A0E1 		mov	r4, r0
 1450              		.loc 1 37 0
 1451 0cdc 0000A0E3 		mov	r0, #0
 1452              	.LVL58:
 1453 0ce0 EC109FE5 		ldr	r1, .L151
 1454 0ce4 FEFFFFEB 		bl	rprintf1RamRom
 1455              		.loc 1 38 0
 1456 0ce8 0050A0E3 		mov	r5, #0
 1457 0cec 00508DE5 		str	r5, [sp, #0]
 1458 0cf0 0A00A0E3 		mov	r0, #10
 1459 0cf4 0010A0E1 		mov	r1, r0
 1460 0cf8 0520A0E1 		mov	r2, r5
 1461 0cfc 2030A0E3 		mov	r3, #32
 1462 0d00 FEFFFFEB 		bl	rprintfNum
 1463              		.loc 1 39 0
 1464 0d04 FEFFFFEB 		bl	rprintfCRLF
 1465              		.loc 1 43 0
 1466 0d08 FEFFFFEB 		bl	resetExecute
 1467              		.loc 1 45 0
 1468 0d0c 0500A0E1 		mov	r0, r5
 1469 0d10 C0109FE5 		ldr	r1, .L151+4
 1470 0d14 FEFFFFEB 		bl	rprintf1RamRom
 1471              		.loc 1 46 0
 1472 0d18 0400A0E1 		mov	r0, r4
 1473 0d1c FEFFFFEB 		bl	rprintfStr
 1474              		.loc 1 47 0
 1475 0d20 0500A0E1 		mov	r0, r5
 1476 0d24 B0109FE5 		ldr	r1, .L151+8
 1477 0d28 FEFFFFEB 		bl	rprintf1RamRom
 1478              		.loc 1 49 0
 1479 0d2c 0500A0E1 		mov	r0, r5
 1480 0d30 A8109FE5 		ldr	r1, .L151+12
 1481 0d34 FEFFFFEB 		bl	rprintf1RamRom
 1482              		.loc 1 50 0
 1483 0d38 0400A0E1 		mov	r0, r4
 1484 0d3c 06108DE2 		add	r1, sp, #6
 1485 0d40 FEFFFFEB 		bl	readSequenceFile
 1486 0d44 002050E2 		subs	r2, r0, #0
 1487 0d48 5703000A 		beq	.L145
 1488              		.loc 1 52 0
 1489 0d4c 0500A0E1 		mov	r0, r5
 1490 0d50 8C109FE5 		ldr	r1, .L151+16
 1491 0d54 FEFFFFEB 		bl	rprintf1RamRom
 1492              		.loc 1 53 0
 1493 0d58 88009FE5 		ldr	r0, .L151+20
 1494 0d5c FEFFFFEB 		bl	file_fclose
 1495 0d60 710300EA 		b	.L150
 1496              	.L145:
 1497              		.loc 1 58 0
 1498 0d64 0000A0E3 		mov	r0, #0
 1499 0d68 7C109FE5 		ldr	r1, .L151+24
 1500 0d6c FEFFFFEB 		bl	rprintf1RamRom
ARM GAS  C:\DOCUME~1\TECHCO~1\LOCALS~1\Temp/cc4Kaaaa.s 			page 36


 1501              		.loc 1 62 0
 1502 0d70 0000A0E3 		mov	r0, #0
 1503 0d74 74109FE5 		ldr	r1, .L151+28
 1504 0d78 FEFFFFEB 		bl	rprintf1RamRom
 1505              		.loc 1 63 0
 1506 0d7c FEFFFFEB 		bl	resetTimestep
 1507              		.loc 1 65 0
 1508 0d80 0000A0E3 		mov	r0, #0
 1509 0d84 68109FE5 		ldr	r1, .L151+32
 1510 0d88 FEFFFFEB 		bl	rprintf1RamRom
 1511              		.loc 1 67 0
 1512 0d8c 0000A0E3 		mov	r0, #0
 1513 0d90 60109FE5 		ldr	r1, .L151+36
 1514 0d94 FEFFFFEB 		bl	rprintf1RamRom
 1515              		.loc 1 68 0
 1516 0d98 FEFFFFEB 		bl	runSequence
 1517 0d9c 002050E2 		subs	r2, r0, #0
 1518 0da0 6B03000A 		beq	.L148
 1519              		.loc 1 70 0
 1520 0da4 0000A0E3 		mov	r0, #0
 1521 0da8 4C109FE5 		ldr	r1, .L151+40
 1522 0dac FEFFFFEB 		bl	rprintf1RamRom
 1523 0db0 710300EA 		b	.L150
 1524              	.L148:
 1525              		.loc 1 76 0
 1526 0db4 44309FE5 		ldr	r3, .L151+44
 1527 0db8 000093E5 		ldr	r0, [r3, #0]
 1528 0dbc FEFFFFEB 		bl	free
 1529              		.loc 1 79 0
 1530 0dc0 0000A0E3 		mov	r0, #0
 1531 0dc4 38109FE5 		ldr	r1, .L151+48
 1532 0dc8 FEFFFFEB 		bl	rprintf1RamRom
 1533              	.L150:
 1534              		.loc 1 83 0
 1535 0dcc 2CD08DE2 		add	sp, sp, #44
 1536 0dd0 3080BDE8 		ldmfd	sp!, {r4, r5, pc}
 1537              	.L152:
 1538              		.align	2
 1539              	.L151:
 1540 0dd4 3C010000 		.word	.LC26
 1541 0dd8 44010000 		.word	.LC27
 1542 0ddc 5C010000 		.word	.LC28
 1543 0de0 60010000 		.word	.LC29
 1544 0de4 74010000 		.word	.LC30
 1545 0de8 00000000 		.word	filer
 1546 0dec 94010000 		.word	.LC31
 1547 0df0 98010000 		.word	.LC32
 1548 0df4 A8010000 		.word	.LC33
 1549 0df8 C0010000 		.word	.LC34
 1550 0dfc D0010000 		.word	.LC35
 1551 0e00 00000000 		.word	cmesh
 1552 0e04 F4010000 		.word	.LC36
 1553              	.LFE4:
 1554              		.size	sequenceExecProcess, .-sequenceExecProcess
 1555              		.comm	cmesh,4,4
 1556              		.comm	efs,708,4
 1557              		.comm	filer,80,4
ARM GAS  C:\DOCUME~1\TECHCO~1\LOCALS~1\Temp/cc4Kaaaa.s 			page 37


 1558              		.comm	filew,80,4
 1559              		.comm	list,52,4
 1560              		.comm	cmdBufferData,128,1
 1561              		.comm	cmdBuffer,12,4
 1562              		.comm	int_busRxPkt,132,4
 1563              		.comm	ext_busRxPkt,132,4
 1564              		.comm	TimeStep,4,4
 1565              		.comm	execute,1,1
 1566              		.section	.debug_frame,"",%progbits
 1567              	.Lframe0:
 1568 0000 0C000000 		.4byte	.LECIE0-.LSCIE0
 1569              	.LSCIE0:
 1570 0004 FFFFFFFF 		.4byte	0xffffffff
 1571 0008 01       		.byte	0x1
 1572 0009 00       		.ascii	"\000"
 1573 000a 01       		.uleb128 0x1
 1574 000b 7C       		.sleb128 -4
 1575 000c 0E       		.byte	0xe
 1576 000d 0C       		.byte	0xc
 1577 000e 0D       		.uleb128 0xd
 1578 000f 00       		.uleb128 0x0
 1579              		.align	2
 1580              	.LECIE0:
 1581              	.LSFDE0:
 1582 0010 0C000000 		.4byte	.LEFDE0-.LASFDE0
 1583              	.LASFDE0:
 1584 0014 00000000 		.4byte	.Lframe0
 1585 0018 00000000 		.4byte	.LFB2
 1586 001c 14000000 		.4byte	.LFE2-.LFB2
 1587              		.align	2
 1588              	.LEFDE0:
 1589              	.LSFDE2:
 1590 0020 0C000000 		.4byte	.LEFDE2-.LASFDE2
 1591              	.LASFDE2:
 1592 0024 00000000 		.4byte	.Lframe0
 1593 0028 14000000 		.4byte	.LFB3
 1594 002c 14000000 		.4byte	.LFE3-.LFB3
 1595              		.align	2
 1596              	.LEFDE2:
 1597              	.LSFDE4:
 1598 0030 0C000000 		.4byte	.LEFDE4-.LASFDE4
 1599              	.LASFDE4:
 1600 0034 00000000 		.4byte	.Lframe0
 1601 0038 28000000 		.4byte	.LFB5
 1602 003c C4000000 		.4byte	.LFE5-.LFB5
 1603              		.align	2
 1604              	.LEFDE4:
 1605              	.LSFDE6:
 1606 0040 0C000000 		.4byte	.LEFDE6-.LASFDE6
 1607              	.LASFDE6:
 1608 0044 00000000 		.4byte	.Lframe0
 1609 0048 EC000000 		.4byte	.LFB10
 1610 004c 18000000 		.4byte	.LFE10-.LFB10
 1611              		.align	2
 1612              	.LEFDE6:
 1613              	.LSFDE8:
 1614 0050 14000000 		.4byte	.LEFDE8-.LASFDE8
ARM GAS  C:\DOCUME~1\TECHCO~1\LOCALS~1\Temp/cc4Kaaaa.s 			page 38


 1615              	.LASFDE8:
 1616 0054 00000000 		.4byte	.Lframe0
 1617 0058 04010000 		.4byte	.LFB12
 1618 005c 64000000 		.4byte	.LFE12-.LFB12
 1619 0060 44       		.byte	0x4
 1620              		.4byte	.LCFI0-.LFB12
 1621 0061 0E       		.byte	0xe
 1622 0062 04       		.uleb128 0x4
 1623 0063 8E       		.byte	0x8e
 1624 0064 01       		.uleb128 0x1
 1625 0065 000000   		.align	2
 1626              	.LEFDE8:
 1627              	.LSFDE10:
 1628 0068 0C000000 		.4byte	.LEFDE10-.LASFDE10
 1629              	.LASFDE10:
 1630 006c 00000000 		.4byte	.Lframe0
 1631 0070 68010000 		.4byte	.LFB13
 1632 0074 28000000 		.4byte	.LFE13-.LFB13
 1633              		.align	2
 1634              	.LEFDE10:
 1635              	.LSFDE12:
 1636 0078 14000000 		.4byte	.LEFDE12-.LASFDE12
 1637              	.LASFDE12:
 1638 007c 00000000 		.4byte	.Lframe0
 1639 0080 90010000 		.4byte	.LFB11
 1640 0084 1C000000 		.4byte	.LFE11-.LFB11
 1641 0088 44       		.byte	0x4
 1642              		.4byte	.LCFI1-.LFB11
 1643 0089 0E       		.byte	0xe
 1644 008a 08       		.uleb128 0x8
 1645 008b 8E       		.byte	0x8e
 1646 008c 01       		.uleb128 0x1
 1647 008d 84       		.byte	0x84
 1648 008e 02       		.uleb128 0x2
 1649 008f 00       		.align	2
 1650              	.LEFDE12:
 1651              	.LSFDE14:
 1652 0090 0C000000 		.4byte	.LEFDE14-.LASFDE14
 1653              	.LASFDE14:
 1654 0094 00000000 		.4byte	.Lframe0
 1655 0098 AC010000 		.4byte	.LFB16
 1656 009c 30000000 		.4byte	.LFE16-.LFB16
 1657              		.align	2
 1658              	.LEFDE14:
 1659              	.LSFDE16:
 1660 00a0 0C000000 		.4byte	.LEFDE16-.LASFDE16
 1661              	.LASFDE16:
 1662 00a4 00000000 		.4byte	.Lframe0
 1663 00a8 DC010000 		.4byte	.LFB17
 1664 00ac 14000000 		.4byte	.LFE17-.LFB17
 1665              		.align	2
 1666              	.LEFDE16:
 1667              	.LSFDE18:
 1668 00b0 0C000000 		.4byte	.LEFDE18-.LASFDE18
 1669              	.LASFDE18:
 1670 00b4 00000000 		.4byte	.Lframe0
 1671 00b8 F0010000 		.4byte	.LFB18
ARM GAS  C:\DOCUME~1\TECHCO~1\LOCALS~1\Temp/cc4Kaaaa.s 			page 39


 1672 00bc 14000000 		.4byte	.LFE18-.LFB18
 1673              		.align	2
 1674              	.LEFDE18:
 1675              	.LSFDE20:
 1676 00c0 1C000000 		.4byte	.LEFDE20-.LASFDE20
 1677              	.LASFDE20:
 1678 00c4 00000000 		.4byte	.Lframe0
 1679 00c8 04020000 		.4byte	.LFB15
 1680 00cc CC020000 		.4byte	.LFE15-.LFB15
 1681 00d0 44       		.byte	0x4
 1682              		.4byte	.LCFI2-.LFB15
 1683 00d1 0E       		.byte	0xe
 1684 00d2 10       		.uleb128 0x10
 1685 00d3 44       		.byte	0x4
 1686              		.4byte	.LCFI3-.LCFI2
 1687 00d4 0E       		.byte	0xe
 1688 00d5 14       		.uleb128 0x14
 1689 00d6 8E       		.byte	0x8e
 1690 00d7 01       		.uleb128 0x1
 1691 00d8 86       		.byte	0x86
 1692 00d9 02       		.uleb128 0x2
 1693 00da 85       		.byte	0x85
 1694 00db 03       		.uleb128 0x3
 1695 00dc 84       		.byte	0x84
 1696 00dd 04       		.uleb128 0x4
 1697 00de 0000     		.align	2
 1698              	.LEFDE20:
 1699              	.LSFDE22:
 1700 00e0 18000000 		.4byte	.LEFDE22-.LASFDE22
 1701              	.LASFDE22:
 1702 00e4 00000000 		.4byte	.Lframe0
 1703 00e8 D0040000 		.4byte	.LFB14
 1704 00ec 08010000 		.4byte	.LFE14-.LFB14
 1705 00f0 44       		.byte	0x4
 1706              		.4byte	.LCFI4-.LFB14
 1707 00f1 0E       		.byte	0xe
 1708 00f2 08       		.uleb128 0x8
 1709 00f3 44       		.byte	0x4
 1710              		.4byte	.LCFI5-.LCFI4
 1711 00f4 0E       		.byte	0xe
 1712 00f5 0C       		.uleb128 0xc
 1713 00f6 8E       		.byte	0x8e
 1714 00f7 01       		.uleb128 0x1
 1715 00f8 84       		.byte	0x84
 1716 00f9 02       		.uleb128 0x2
 1717 00fa 0000     		.align	2
 1718              	.LEFDE22:
 1719              	.LSFDE24:
 1720 00fc 14000000 		.4byte	.LEFDE24-.LASFDE24
 1721              	.LASFDE24:
 1722 0100 00000000 		.4byte	.Lframe0
 1723 0104 D8050000 		.4byte	.LFB9
 1724 0108 34000000 		.4byte	.LFE9-.LFB9
 1725 010c 44       		.byte	0x4
 1726              		.4byte	.LCFI6-.LFB9
 1727 010d 0E       		.byte	0xe
 1728 010e 08       		.uleb128 0x8
ARM GAS  C:\DOCUME~1\TECHCO~1\LOCALS~1\Temp/cc4Kaaaa.s 			page 40


 1729 010f 8E       		.byte	0x8e
 1730 0110 01       		.uleb128 0x1
 1731 0111 84       		.byte	0x84
 1732 0112 02       		.uleb128 0x2
 1733 0113 00       		.align	2
 1734              	.LEFDE24:
 1735              	.LSFDE26:
 1736 0114 24000000 		.4byte	.LEFDE26-.LASFDE26
 1737              	.LASFDE26:
 1738 0118 00000000 		.4byte	.Lframe0
 1739 011c 0C060000 		.4byte	.LFB7
 1740 0120 B4020000 		.4byte	.LFE7-.LFB7
 1741 0124 44       		.byte	0x4
 1742              		.4byte	.LCFI7-.LFB7
 1743 0125 0E       		.byte	0xe
 1744 0126 24       		.uleb128 0x24
 1745 0127 44       		.byte	0x4
 1746              		.4byte	.LCFI8-.LCFI7
 1747 0128 0E       		.byte	0xe
 1748 0129 30       		.uleb128 0x30
 1749 012a 8E       		.byte	0x8e
 1750 012b 01       		.uleb128 0x1
 1751 012c 8B       		.byte	0x8b
 1752 012d 02       		.uleb128 0x2
 1753 012e 8A       		.byte	0x8a
 1754 012f 03       		.uleb128 0x3
 1755 0130 89       		.byte	0x89
 1756 0131 04       		.uleb128 0x4
 1757 0132 88       		.byte	0x88
 1758 0133 05       		.uleb128 0x5
 1759 0134 87       		.byte	0x87
 1760 0135 06       		.uleb128 0x6
 1761 0136 86       		.byte	0x86
 1762 0137 07       		.uleb128 0x7
 1763 0138 85       		.byte	0x85
 1764 0139 08       		.uleb128 0x8
 1765 013a 84       		.byte	0x84
 1766 013b 09       		.uleb128 0x9
 1767              		.align	2
 1768              	.LEFDE26:
 1769              	.LSFDE28:
 1770 013c 14000000 		.4byte	.LEFDE28-.LASFDE28
 1771              	.LASFDE28:
 1772 0140 00000000 		.4byte	.Lframe0
 1773 0144 C0080000 		.4byte	.LFB8
 1774 0148 24000000 		.4byte	.LFE8-.LFB8
 1775 014c 44       		.byte	0x4
 1776              		.4byte	.LCFI9-.LFB8
 1777 014d 0E       		.byte	0xe
 1778 014e 04       		.uleb128 0x4
 1779 014f 44       		.byte	0x4
 1780              		.4byte	.LCFI10-.LCFI9
 1781 0150 0E       		.byte	0xe
 1782 0151 2C       		.uleb128 0x2c
 1783 0152 8E       		.byte	0x8e
 1784 0153 01       		.uleb128 0x1
 1785              		.align	2
ARM GAS  C:\DOCUME~1\TECHCO~1\LOCALS~1\Temp/cc4Kaaaa.s 			page 41


 1786              	.LEFDE28:
 1787              	.LSFDE30:
 1788 0154 24000000 		.4byte	.LEFDE30-.LASFDE30
 1789              	.LASFDE30:
 1790 0158 00000000 		.4byte	.Lframe0
 1791 015c E4080000 		.4byte	.LFB6
 1792 0160 EC030000 		.4byte	.LFE6-.LFB6
 1793 0164 44       		.byte	0x4
 1794              		.4byte	.LCFI11-.LFB6
 1795 0165 0E       		.byte	0xe
 1796 0166 24       		.uleb128 0x24
 1797 0167 44       		.byte	0x4
 1798              		.4byte	.LCFI12-.LCFI11
 1799 0168 0E       		.byte	0xe
 1800 0169 38       		.uleb128 0x38
 1801 016a 8E       		.byte	0x8e
 1802 016b 01       		.uleb128 0x1
 1803 016c 8B       		.byte	0x8b
 1804 016d 02       		.uleb128 0x2
 1805 016e 8A       		.byte	0x8a
 1806 016f 03       		.uleb128 0x3
 1807 0170 89       		.byte	0x89
 1808 0171 04       		.uleb128 0x4
 1809 0172 88       		.byte	0x88
 1810 0173 05       		.uleb128 0x5
 1811 0174 87       		.byte	0x87
 1812 0175 06       		.uleb128 0x6
 1813 0176 86       		.byte	0x86
 1814 0177 07       		.uleb128 0x7
 1815 0178 85       		.byte	0x85
 1816 0179 08       		.uleb128 0x8
 1817 017a 84       		.byte	0x84
 1818 017b 09       		.uleb128 0x9
 1819              		.align	2
 1820              	.LEFDE30:
 1821              	.LSFDE32:
 1822 017c 18000000 		.4byte	.LEFDE32-.LASFDE32
 1823              	.LASFDE32:
 1824 0180 00000000 		.4byte	.Lframe0
 1825 0184 D00C0000 		.4byte	.LFB4
 1826 0188 38010000 		.4byte	.LFE4-.LFB4
 1827 018c 44       		.byte	0x4
 1828              		.4byte	.LCFI13-.LFB4
 1829 018d 0E       		.byte	0xe
 1830 018e 0C       		.uleb128 0xc
 1831 018f 44       		.byte	0x4
 1832              		.4byte	.LCFI14-.LCFI13
 1833 0190 0E       		.byte	0xe
 1834 0191 38       		.uleb128 0x38
 1835 0192 8E       		.byte	0x8e
 1836 0193 01       		.uleb128 0x1
 1837 0194 85       		.byte	0x85
 1838 0195 02       		.uleb128 0x2
 1839 0196 84       		.byte	0x84
 1840 0197 03       		.uleb128 0x3
 1841              		.align	2
 1842              	.LEFDE32:
ARM GAS  C:\DOCUME~1\TECHCO~1\LOCALS~1\Temp/cc4Kaaaa.s 			page 42


 1843              		.file 2 "C:\\WinARM\\armlib/armlibtypes.h"
 1844              		.file 3 "runtime.h"
 1845              		.file 4 "queue.h"
 1846              		.file 5 "molecubePacket.h"
 1847              		.file 6 "c:\\winarm\\bin\\../lib/gcc/arm-elf/4.1.1/../../../../arm-elf/sys-include/ctype.h"
 1848              		.file 7 "./inc/efs.h"
 1849              		.file 8 "./inc/interfaces/lpc2000_spi.h"
 1850              		.file 9 "./inc/types.h"
 1851              		.file 10 "./inc/ioman.h"
 1852              		.file 11 "./inc/disc.h"
 1853              		.file 12 "./inc/partition.h"
 1854              		.file 13 "./inc/fs.h"
 1855              		.file 14 "./inc/file.h"
 1856              		.file 15 "./inc/ls.h"
 1857              		.file 16 "C:\\WinARM\\armlib/buffer.h"
 1858              		.text
 1859              	.Letext0: