ARM GAS  D:\DOCUME~1\VIKTOR~1\LOCALS~1\Temp/ccmcbaaa.s 			page 1


   1              		.file	"main_serial.c"
   8 0000 CB000000 		.text
   8      02006600 
   8      00000201 
   8      FB0E0D00 
   8      01010101 
   9              	.Ltext0:
  10              		.align	2
  11              		.global	uartGetRxBuffer
  12              		.type	uartGetRxBuffer, %function
  13              	uartGetRxBuffer:
  14              	.LFB2:
  15              		.file 1 "main_serial.c"
   1:main_serial.c **** /*
   2:main_serial.c **** 	LPCUSB, an USB device driver for LPC microcontrollers	
   3:main_serial.c **** 	Copyright (C) 2006 Bertrik Sikken (bertrik@sikken.nl)
   4:main_serial.c **** 
   5:main_serial.c **** 	Redistribution and use in source and binary forms, with or without
   6:main_serial.c **** 	modification, are permitted provided that the following conditions are met:
   7:main_serial.c **** 
   8:main_serial.c **** 	1. Redistributions of source code must retain the above copyright
   9:main_serial.c **** 	   notice, this list of conditions and the following disclaimer.
  10:main_serial.c **** 	2. Redistributions in binary form must reproduce the above copyright
  11:main_serial.c **** 	   notice, this list of conditions and the following disclaimer in the
  12:main_serial.c **** 	   documentation and/or other materials provided with the distribution.
  13:main_serial.c **** 	3. The name of the author may not be used to endorse or promote products
  14:main_serial.c **** 	   derived from this software without specific prior written permission.
  15:main_serial.c **** 
  16:main_serial.c **** 	THIS SOFTWARE IS PROVIDED BY THE AUTHOR ``AS IS'' AND ANY EXPRESS OR
  17:main_serial.c **** 	IMPLIED WARRANTIES, INCLUDING, BUT NOT LIMITED TO, THE IMPLIED WARRANTIES
  18:main_serial.c **** 	OF MERCHANTABILITY AND FITNESS FOR A PARTICULAR PURPOSE ARE DISCLAIMED.
  19:main_serial.c **** 	IN NO EVENT SHALL THE AUTHOR BE LIABLE FOR ANY DIRECT, INDIRECT, 
  20:main_serial.c **** 	INCIDENTAL, SPECIAL, EXEMPLARY, OR CONSEQUENTIAL DAMAGES (INCLUDING, BUT
  21:main_serial.c **** 	NOT LIMITED TO, PROCUREMENT OF SUBSTITUTE GOODS OR SERVICES; LOSS OF USE,
  22:main_serial.c **** 	DATA, OR PROFITS; OR BUSINESS INTERRUPTION) HOWEVER CAUSED AND ON ANY
  23:main_serial.c **** 	THEORY OF LIABILITY, WHETHER IN CONTRACT, STRICT LIABILITY, OR TORT
  24:main_serial.c **** 	(INCLUDING NEGLIGENCE OR OTHERWISE) ARISING IN ANY WAY OUT OF THE USE OF
  25:main_serial.c **** 	THIS SOFTWARE, EVEN IF ADVISED OF THE POSSIBILITY OF SUCH DAMAGE.
  26:main_serial.c **** */
  27:main_serial.c **** 
  28:main_serial.c **** /*
  29:main_serial.c **** 	Minimal implementation of a USB serial port, using the CDC class.
  30:main_serial.c **** 	This example application simply echoes everything it receives right back
  31:main_serial.c **** 	to the host.
  32:main_serial.c **** 
  33:main_serial.c **** 	Windows:
  34:main_serial.c **** 	Extract the usbser.sys file from .cab file in C:\WINDOWS\Driver Cache\i386
  35:main_serial.c **** 	and store it somewhere (C:\temp is a good place) along with the usbser.inf
  36:main_serial.c **** 	file. Then plug in the LPC214x and direct windows to the usbser driver.
  37:main_serial.c **** 	Windows then creates an extra COMx port that you can open in a terminal
  38:main_serial.c **** 	program, like hyperterminal.
ARM GAS  D:\DOCUME~1\VIKTOR~1\LOCALS~1\Temp/ccmcbaaa.s 			page 2


  39:main_serial.c **** 
  40:main_serial.c **** 	Linux:
  41:main_serial.c **** 	The device should be recognised automatically by the cdc_acm driver,
  42:main_serial.c **** 	which creates a /dev/ttyACMx device file that acts just like a regular
  43:main_serial.c **** 	serial port.
  44:main_serial.c **** 
  45:main_serial.c **** */
  46:main_serial.c **** #include <string.h>
  47:main_serial.c **** #include "global.h"			// include our global project settings
  48:main_serial.c **** #include "lpc2000.h"		// include LPC210x defines
  49:main_serial.c **** 
  50:main_serial.c **** #include "processor.h"		// include processor initialization functions
  51:main_serial.c **** #include "timer.h"			// include timer functions
  52:main_serial.c **** #include "buffer.h"
  53:main_serial.c **** 
  54:main_serial.c **** #include "uartintr.h"
  55:main_serial.c **** #include "spi.h"
  56:main_serial.c **** #include "a2d.h"
  57:main_serial.c **** #include "i2c.h"
  58:main_serial.c **** #include "rprintf.h"
  59:main_serial.c **** #include "usb.h"
  60:main_serial.c **** #include "uartintr.h"
  61:main_serial.c **** 
  62:main_serial.c **** #include "molecubePacket.h"
  63:main_serial.c **** //#include "orientationControl.h"
  64:main_serial.c **** 
  65:main_serial.c **** #define broadcastAddress	0xFE
  66:main_serial.c **** #define broadcastClass		0xFE
  67:main_serial.c **** 
  68:main_serial.c **** 
  69:main_serial.c **** cBuffer* uartGetRxBuffer(u08 bus)
  70:main_serial.c **** {
  16              		.loc 1 70 0
  17              		@ args = 0, pretend = 0, frame = 0
  18              		@ frame_needed = 0, uses_anonymous_args = 0
  19              	.LVL0:
  20 0000 04E02DE5 		str	lr, [sp, #-4]!
  21              	.LCFI0:
  71:main_serial.c **** 	if(bus == 0)
  22              		.loc 1 71 0
  23 0004 FF0010E3 		tst	r0, #255
  24 0008 0100001A 		bne	.L2
  72:main_serial.c **** 		return uart0GetRxBuffer();
  25              		.loc 1 72 0
  26 000c FEFFFFEB 		bl	uart0GetRxBuffer
  27              	.LVL1:
  28 0010 04F09DE4 		ldr	pc, [sp], #4
  29              	.LVL2:
  30              	.L2:
  73:main_serial.c **** 	else
  74:main_serial.c **** 		return uart1GetRxBuffer();
  31              		.loc 1 74 0
  32 0014 FEFFFFEB 		bl	uart1GetRxBuffer
  33              	.LVL3:
  75:main_serial.c **** }
  34              		.loc 1 75 0
  35 0018 04F09DE4 		ldr	pc, [sp], #4
ARM GAS  D:\DOCUME~1\VIKTOR~1\LOCALS~1\Temp/ccmcbaaa.s 			page 3


  36              	.LFE2:
  37              		.size	uartGetRxBuffer, .-uartGetRxBuffer
  38              		.align	2
  39              		.global	GetResponse
  40              		.type	GetResponse, %function
  41              	GetResponse:
  42              	.LFB3:
  76:main_serial.c **** 
  77:main_serial.c **** 
  78:main_serial.c **** u08 GetResponse(u08 serBus, u08 devClass, u08 devAddress)
  79:main_serial.c **** {
  43              		.loc 1 79 0
  44              		@ args = 0, pretend = 0, frame = 0
  45              		@ frame_needed = 0, uses_anonymous_args = 0
  46              	.LVL4:
  47 001c F0412DE9 		stmfd	sp!, {r4, r5, r6, r7, r8, lr}
  48              	.LCFI1:
  49 0020 FF5000E2 		and	r5, r0, #255
  50 0024 FF7001E2 		and	r7, r1, #255
  51 0028 FF6002E2 		and	r6, r2, #255
  52              		.loc 1 79 0
  53 002c 0040A0E3 		mov	r4, #0
  54              	.LVL5:
  55 0030 5D3DA0E3 		mov	r3, #5952
  56 0034 308083E2 		add	r8, r3, #48
  57 0038 000000EA 		b	.L7
  58              	.LVL6:
  59              	.L8:
  80:main_serial.c **** 	u32 a = 0;
  81:main_serial.c **** 	while ((packetRxProcess(serBus, devClass, devAddress, 
  82:main_serial.c **** 			uartGetRxBuffer(serBus)) == FALSE) && 
  83:main_serial.c **** 			(a < CMD_RESPONSE_TIMEOUT))
  84:main_serial.c **** 	{	a+=1;	};
  60              		.loc 1 84 0
  61 003c 014084E2 		add	r4, r4, #1
  62              	.LVL7:
  63              	.L7:
  64              		.loc 1 81 0
  65 0040 0500A0E1 		mov	r0, r5
  66 0044 FEFFFFEB 		bl	uartGetRxBuffer
  67 0048 0030A0E1 		mov	r3, r0
  68 004c 0500A0E1 		mov	r0, r5
  69 0050 0710A0E1 		mov	r1, r7
  70 0054 0620A0E1 		mov	r2, r6
  71 0058 FEFFFFEB 		bl	packetRxProcess
  72 005c 000050E3 		cmp	r0, #0
  73 0060 0200001A 		bne	.L9
  74 0064 080054E1 		cmp	r4, r8
  75 0068 F3FFFF1A 		bne	.L8
  76 006c 040000EA 		b	.L11
  77              	.L9:
  85:main_serial.c **** 	
  86:main_serial.c **** 	if (a < CMD_RESPONSE_TIMEOUT)	// wait intil a serial timeout occurs
  78              		.loc 1 86 0
  79 0070 5D3DA0E3 		mov	r3, #5952
  80 0074 2F3083E2 		add	r3, r3, #47
  81 0078 030054E1 		cmp	r4, r3
ARM GAS  D:\DOCUME~1\VIKTOR~1\LOCALS~1\Temp/ccmcbaaa.s 			page 4


  82 007c FF00A093 		movls	r0, #255
  83 0080 F081BD98 		ldmlsfd	sp!, {r4, r5, r6, r7, r8, pc}
  84              	.L11:
  85 0084 0000A0E3 		mov	r0, #0
  87:main_serial.c **** 	{				// check if the right command is confirmed
  88:main_serial.c **** 		return TRUE;
  89:main_serial.c **** //		RGB_LED_PWMx(M_PCA, 0x01, 0xFF, 0x01);
  90:main_serial.c **** //		timerPause(5);
  91:main_serial.c **** //		RGB_LED_PWMx(M_PCA, 0.01, 0x01, 0x01);
  92:main_serial.c **** 	} // report an error: serial communication timeout occurred 
  93:main_serial.c **** 	return FALSE;
  94:main_serial.c **** };
  86              		.loc 1 94 0
  87 0088 F081BDE8 		ldmfd	sp!, {r4, r5, r6, r7, r8, pc}
  88              	.LFE3:
  89              		.size	GetResponse, .-GetResponse
  90              		.section	.rodata.str1.4,"aMS",%progbits,1
  91              		.align	2
  92              	.LC0:
  93 0000 3A2800   		.ascii	":(\000"
  94 0003 00       		.text
  95              		.align	2
  96              		.global	main
  97              		.type	main, %function
  98              	main:
  99              	.LFB4:
  95:main_serial.c **** 
  96:main_serial.c **** 
  97:main_serial.c **** /*************************************************************************
  98:main_serial.c **** 	main
  99:main_serial.c **** 	====
 100:main_serial.c **** **************************************************************************/
 101:main_serial.c **** int main(void)
 102:main_serial.c **** {
 100              		.loc 1 102 0
 101              		@ args = 0, pretend = 0, frame = 64
 102              		@ frame_needed = 0, uses_anonymous_args = 0
 103 008c 30402DE9 		stmfd	sp!, {r4, r5, lr}
 104              	.LCFI2:
 105 0090 44D04DE2 		sub	sp, sp, #68
 106              	.LCFI3:
 103:main_serial.c **** 	int c;
 104:main_serial.c **** 	u08 params[MAX_PACKET_SIZE];
 105:main_serial.c **** 
 106:main_serial.c **** 	// initialize processor
 107:main_serial.c **** 	processorInit();
 107              		.loc 1 107 0
 108 0094 FEFFFFEB 		bl	processorInit
 108:main_serial.c **** 	// initialize timers
 109:main_serial.c **** 	
 110:main_serial.c **** 	usbSetup();
 109              		.loc 1 110 0
 110 0098 FEFFFFEB 		bl	usbSetup
 111:main_serial.c **** 	rprintfInit((void*)VCOM_putchar);
 111              		.loc 1 111 0
 112 009c 18039FE5 		ldr	r0, .L51
 113 00a0 FEFFFFEB 		bl	rprintfInit
ARM GAS  D:\DOCUME~1\VIKTOR~1\LOCALS~1\Temp/ccmcbaaa.s 			page 5


 112:main_serial.c **** 	HD232_Init();
 114              		.loc 1 112 0
 115 00a4 FEFFFFEB 		bl	HD232_Init
 113:main_serial.c **** 	timerInit();
 116              		.loc 1 113 0
 117 00a8 FEFFFFEB 		bl	timerInit
 114:main_serial.c **** 	
 115:main_serial.c **** 	a2dInit();
 118              		.loc 1 115 0
 119 00ac FEFFFFEB 		bl	a2dInit
 116:main_serial.c **** 	spiInit();
 120              		.loc 1 116 0
 121 00b0 FEFFFFEB 		bl	spiInit
 117:main_serial.c **** 	i2cInit();
 122              		.loc 1 117 0
 123 00b4 FEFFFFEB 		bl	i2cInit
 118:main_serial.c **** 	cmd_Init();
 124              		.loc 1 118 0
 125 00b8 FEFFFFEB 		bl	cmd_Init
 119:main_serial.c **** 
 120:main_serial.c **** 	
 121:main_serial.c **** 	RXPKT *trgPkt;
 122:main_serial.c **** 	trgPkt = &ext_busRxPkt;
 123:main_serial.c **** 
 124:main_serial.c **** //	u16 HalfPeriod = 2000;
 125:main_serial.c **** //	u16 b = 0;
 126:main_serial.c **** 
 127:main_serial.c **** 
 128:main_serial.c **** 		timerPause(5000);
 126              		.loc 1 128 0
 127 00bc 4E0DA0E3 		mov	r0, #4992
 128 00c0 080080E2 		add	r0, r0, #8
 129 00c4 FEFFFFEB 		bl	timerPause
 129:main_serial.c **** 
 130:main_serial.c **** 		// Turn an output ON
 131:main_serial.c **** 
 132:main_serial.c **** 		u08 InSide = 3; 	// 0..5 Side ID: Main = 0, Right = 1, Left = 2, S_Main = 3, S_R = 4, S_L = 5
 133:main_serial.c **** 		u08 InPin = 0;		// 0..4 - individual pins
 134:main_serial.c **** 		u08 InState = 1;	// 0..1 OUTPUT HIGH On = 1 / Off = 0 toggle, desired state of pin
 135:main_serial.c **** 				
 136:main_serial.c **** 		params[0] = (InSide<<4) | (InPin<<2) | InState;  		
 130              		.loc 1 136 0
 131 00c8 3130A0E3 		mov	r3, #49
 132 00cc 0430CDE5 		strb	r3, [sp, #4]
 137:main_serial.c **** 
 138:main_serial.c **** 		cmd_BuildPacket(controllerTripletClass, 0x00, 0x08, 1, params);
 133              		.loc 1 138 0
 134 00d0 04308DE2 		add	r3, sp, #4
 135 00d4 00308DE5 		str	r3, [sp, #0]
 136 00d8 FC00A0E3 		mov	r0, #252
 137 00dc 0010A0E3 		mov	r1, #0
 138 00e0 0820A0E3 		mov	r2, #8
 139 00e4 0130A0E3 		mov	r3, #1
 140 00e8 FEFFFFEB 		bl	cmd_BuildPacket
 139:main_serial.c **** 		cmd_Execute(EXTERNAL_SERIAL);	
 141              		.loc 1 139 0
 142 00ec 0100A0E3 		mov	r0, #1
ARM GAS  D:\DOCUME~1\VIKTOR~1\LOCALS~1\Temp/ccmcbaaa.s 			page 6


 143 00f0 FEFFFFEB 		bl	cmd_Execute
 140:main_serial.c **** 
 141:main_serial.c **** 
 142:main_serial.c **** 		if (GetResponse(EXTERNAL_SERIAL, controllerTripletClass, 0x00))
 144              		.loc 1 142 0
 145 00f4 0100A0E3 		mov	r0, #1
 146 00f8 FC10A0E3 		mov	r1, #252
 147 00fc 0020A0E3 		mov	r2, #0
 148 0100 FEFFFFEB 		bl	GetResponse
 149 0104 000050E3 		cmp	r0, #0
 150 0108 1400000A 		beq	.L16
 151              	.LBB2:
 143:main_serial.c **** 		{
 144:main_serial.c **** 			rprintfu08(trgPkt->cmd);		//	VCOM_putchar(' ');
 152              		.loc 1 144 0
 153 010c AC429FE5 		ldr	r4, .L51+4
 154 0110 0000D4E5 		ldrb	r0, [r4, #0]	@ zero_extendqisi2
 155 0114 FEFFFFEB 		bl	rprintfu08
 145:main_serial.c **** 			rprintfu08(trgPkt->paramCnt);	//	VCOM_putchar(' ');
 156              		.loc 1 145 0
 157 0118 8100D4E5 		ldrb	r0, [r4, #129]	@ zero_extendqisi2
 158 011c FEFFFFEB 		bl	rprintfu08
 146:main_serial.c **** 			u08 i = 0;
 147:main_serial.c **** 			for(i=0; i<trgPkt->paramCnt; i++)
 159              		.loc 1 147 0
 160 0120 8130D4E5 		ldrb	r3, [r4, #129]	@ zero_extendqisi2
 161 0124 000053E3 		cmp	r3, #0
 162 0128 0900000A 		beq	.L18
 163 012c 0040A0E3 		mov	r4, #0
 164              	.LVL8:
 165 0130 88529FE5 		ldr	r5, .L51+4
 166              	.L20:
 148:main_serial.c **** 			{	
 149:main_serial.c **** 				rprintfu08(trgPkt->params[i]);//	VCOM_putchar(' ');
 167              		.loc 1 149 0
 168 0134 053084E0 		add	r3, r4, r5
 169 0138 0100D3E5 		ldrb	r0, [r3, #1]	@ zero_extendqisi2
 170 013c FEFFFFEB 		bl	rprintfu08
 171              		.loc 1 147 0
 172 0140 013084E2 		add	r3, r4, #1
 173 0144 FF4003E2 		and	r4, r3, #255
 174 0148 8130D5E5 		ldrb	r3, [r5, #129]	@ zero_extendqisi2
 175 014c 040053E1 		cmp	r3, r4
 176 0150 F7FFFF8A 		bhi	.L20
 177              	.L18:
 150:main_serial.c **** 			};
 151:main_serial.c **** 			VCOM_putchar('\r');
 178              		.loc 1 151 0
 179 0154 0D00A0E3 		mov	r0, #13
 180 0158 FEFFFFEB 		bl	VCOM_putchar
 181 015c 040000EA 		b	.L21
 182              	.LVL9:
 183              	.L16:
 184              	.LBE2:
 152:main_serial.c **** 		}
 153:main_serial.c **** 		else	{	rprintf(":(");	 VCOM_putchar('\r');	};
 185              		.loc 1 153 0
ARM GAS  D:\DOCUME~1\VIKTOR~1\LOCALS~1\Temp/ccmcbaaa.s 			page 7


 186 0160 0000A0E3 		mov	r0, #0
 187 0164 58129FE5 		ldr	r1, .L51+8
 188 0168 FEFFFFEB 		bl	rprintf1RamRom
 189 016c 0D00A0E3 		mov	r0, #13
 190 0170 FEFFFFEB 		bl	VCOM_putchar
 191              	.LVL10:
 192              	.L21:
 154:main_serial.c **** 
 155:main_serial.c **** 
 156:main_serial.c **** /*
 157:main_serial.c **** 		timerPause(100);
 158:main_serial.c **** 
 159:main_serial.c **** 		// Turn an output OFF
 160:main_serial.c **** 
 161:main_serial.c **** 		InSide = 0; 	// 0..5 Side ID: Main = 0, Right = 1, Left = 2, S_Main = 3, S_R = 4, S_L = 5
 162:main_serial.c **** 		InPin = 0;		// 0..4 - individual pins
 163:main_serial.c **** 		InState = 0;	// 0..1 OUTPUT HIGH On = 1 / Off = 0 toggle, desired state of pin
 164:main_serial.c **** 				
 165:main_serial.c **** 		params[0] = (InSide<<4) | (InPin<<2) | InState;  		
 166:main_serial.c **** 
 167:main_serial.c **** 		cmd_BuildPacket(0xFC, 0x00, 0x08, 1, params);
 168:main_serial.c **** 		cmd_Execute(EXTERNAL_SERIAL);		
 169:main_serial.c **** 
 170:main_serial.c **** 
 171:main_serial.c **** 		if (GetResponse(EXTERNAL_SERIAL, 0xFC, 0x00))
 172:main_serial.c **** 		{
 173:main_serial.c **** 			rprintfu08(trgPkt->cmd);			//VCOM_putchar(' ');
 174:main_serial.c **** 			rprintfu08(trgPkt->paramCnt);		//VCOM_putchar(' ');
 175:main_serial.c **** 			u08 i = 0;
 176:main_serial.c **** 			for(i=0; i<trgPkt->paramCnt; i++)
 177:main_serial.c **** 			{	
 178:main_serial.c **** 				rprintfu08(trgPkt->params[i]);//	VCOM_putchar(' ');
 179:main_serial.c **** 			};
 180:main_serial.c **** 			VCOM_putchar('\r');
 181:main_serial.c **** 		}
 182:main_serial.c **** 		else	{	rprintf(":(");	VCOM_putchar('\r');		};
 183:main_serial.c **** 
 184:main_serial.c **** */
 185:main_serial.c **** 
 186:main_serial.c **** 
 187:main_serial.c **** /*		timerPause(10);
 188:main_serial.c **** 
 189:main_serial.c **** 		// Poll INPUTS
 190:main_serial.c **** 
 191:main_serial.c **** 		cmd_BuildPacket(0xFE, 0x00, 0x09, 0, params);
 192:main_serial.c **** 		cmd_Execute(EXTERNAL_SERIAL);	
 193:main_serial.c **** 
 194:main_serial.c **** 		if (GetResponse(EXTERNAL_SERIAL, 0xFC, 0x00))
 195:main_serial.c **** 		{
 196:main_serial.c **** 			rprintfu08(trgPkt->cmd);		//	VCOM_putchar(' ');
 197:main_serial.c **** 			rprintfu08(trgPkt->paramCnt);	//	VCOM_putchar(' ');
 198:main_serial.c **** 			u08 i = 0;
 199:main_serial.c **** 			for(i=0; i<trgPkt->paramCnt; i++)
 200:main_serial.c **** 			{	
 201:main_serial.c **** 				rprintfu08(trgPkt->params[i]);//	VCOM_putchar(' ');
 202:main_serial.c **** 			};
 203:main_serial.c **** 			VCOM_putchar('\r');
ARM GAS  D:\DOCUME~1\VIKTOR~1\LOCALS~1\Temp/ccmcbaaa.s 			page 8


 204:main_serial.c **** 		}
 205:main_serial.c **** 		else	{	rprintf(":(");	 VCOM_putchar('\r');	};
 206:main_serial.c **** */
 207:main_serial.c **** 
 208:main_serial.c **** 		timerPause(100);
 193              		.loc 1 208 0
 194 0174 6400A0E3 		mov	r0, #100
 195 0178 FEFFFFEB 		bl	timerPause
 209:main_serial.c **** 
 210:main_serial.c **** 		// Conditional address assignment upon sensing a high input
 211:main_serial.c **** 
 212:main_serial.c **** 		u08 goalAddress = 1;
 213:main_serial.c **** 
 214:main_serial.c **** 		params[0] = goalAddress;
 196              		.loc 1 214 0
 197 017c 0140A0E3 		mov	r4, #1
 198              	.LVL11:
 199 0180 0440CDE5 		strb	r4, [sp, #4]
 215:main_serial.c **** 
 216:main_serial.c **** 		cmd_BuildPacket(broadcastClass, broadcastAddress, 0x04, 1, params);
 200              		.loc 1 216 0
 201 0184 04308DE2 		add	r3, sp, #4
 202 0188 00308DE5 		str	r3, [sp, #0]
 203 018c FE00A0E3 		mov	r0, #254
 204 0190 0010A0E1 		mov	r1, r0
 205 0194 0420A0E3 		mov	r2, #4
 206 0198 0430A0E1 		mov	r3, r4
 207 019c FEFFFFEB 		bl	cmd_BuildPacket
 217:main_serial.c **** 		cmd_Execute(EXTERNAL_SERIAL);	
 208              		.loc 1 217 0
 209 01a0 0400A0E1 		mov	r0, r4
 210 01a4 FEFFFFEB 		bl	cmd_Execute
 218:main_serial.c **** 
 219:main_serial.c **** 		if (GetResponse(EXTERNAL_SERIAL, actuatorSouthClass, goalAddress))
 211              		.loc 1 219 0
 212 01a8 0400A0E1 		mov	r0, r4
 213 01ac FA10A0E3 		mov	r1, #250
 214 01b0 0420A0E1 		mov	r2, r4
 215 01b4 FEFFFFEB 		bl	GetResponse
 216 01b8 000050E3 		cmp	r0, #0
 217 01bc 1400000A 		beq	.L22
 218              	.LBB3:
 220:main_serial.c **** 		{
 221:main_serial.c **** 			rprintfu08(trgPkt->cmd);		//	VCOM_putchar(' ');
 219              		.loc 1 221 0
 220 01c0 F8419FE5 		ldr	r4, .L51+4
 221 01c4 0000D4E5 		ldrb	r0, [r4, #0]	@ zero_extendqisi2
 222 01c8 FEFFFFEB 		bl	rprintfu08
 222:main_serial.c **** 			rprintfu08(trgPkt->paramCnt);	//	VCOM_putchar(' ');
 223              		.loc 1 222 0
 224 01cc 8100D4E5 		ldrb	r0, [r4, #129]	@ zero_extendqisi2
 225 01d0 FEFFFFEB 		bl	rprintfu08
 223:main_serial.c **** 			u08 i = 0;
 224:main_serial.c **** 			for(i=0; i<trgPkt->paramCnt; i++)
 226              		.loc 1 224 0
 227 01d4 8130D4E5 		ldrb	r3, [r4, #129]	@ zero_extendqisi2
 228 01d8 000053E3 		cmp	r3, #0
ARM GAS  D:\DOCUME~1\VIKTOR~1\LOCALS~1\Temp/ccmcbaaa.s 			page 9


 229 01dc 0900000A 		beq	.L24
 230 01e0 0040A0E3 		mov	r4, #0
 231              	.LVL12:
 232 01e4 D4519FE5 		ldr	r5, .L51+4
 233              	.L26:
 225:main_serial.c **** 			{	
 226:main_serial.c **** 				rprintfu08(trgPkt->params[i]);//	VCOM_putchar(' ');
 234              		.loc 1 226 0
 235 01e8 053084E0 		add	r3, r4, r5
 236 01ec 0100D3E5 		ldrb	r0, [r3, #1]	@ zero_extendqisi2
 237 01f0 FEFFFFEB 		bl	rprintfu08
 238              		.loc 1 224 0
 239 01f4 013084E2 		add	r3, r4, #1
 240 01f8 FF4003E2 		and	r4, r3, #255
 241 01fc 8130D5E5 		ldrb	r3, [r5, #129]	@ zero_extendqisi2
 242 0200 040053E1 		cmp	r3, r4
 243 0204 F7FFFF8A 		bhi	.L26
 244              	.L24:
 227:main_serial.c **** 			};
 228:main_serial.c **** 			VCOM_putchar('\r');
 245              		.loc 1 228 0
 246 0208 0D00A0E3 		mov	r0, #13
 247 020c FEFFFFEB 		bl	VCOM_putchar
 248 0210 040000EA 		b	.L50
 249              	.LVL13:
 250              	.L22:
 251              	.LBE3:
 229:main_serial.c **** 		}
 230:main_serial.c **** 		else	{	rprintf(":(");	 VCOM_putchar('\r');	};
 252              		.loc 1 230 0
 253 0214 0000A0E3 		mov	r0, #0
 254 0218 A4119FE5 		ldr	r1, .L51+8
 255 021c FEFFFFEB 		bl	rprintf1RamRom
 256 0220 0D00A0E3 		mov	r0, #13
 257 0224 FEFFFFEB 		bl	VCOM_putchar
 258              	.LVL14:
 259              	.L50:
 231:main_serial.c **** 
 232:main_serial.c **** 
 233:main_serial.c **** 
 234:main_serial.c **** 		while(1)
 235:main_serial.c **** 		{
 236:main_serial.c **** 
 237:main_serial.c **** 		timerPause(20);
 260              		.loc 1 237 0
 261 0228 1400A0E3 		mov	r0, #20
 262 022c FEFFFFEB 		bl	timerPause
 238:main_serial.c **** 
 239:main_serial.c **** 		// Setting LEDs
 240:main_serial.c **** 
 241:main_serial.c **** 		params[0] = 0;
 263              		.loc 1 241 0
 264 0230 0050A0E3 		mov	r5, #0
 265 0234 0450CDE5 		strb	r5, [sp, #4]
 242:main_serial.c **** 		params[1] = 2;
 266              		.loc 1 242 0
 267 0238 0230A0E3 		mov	r3, #2
ARM GAS  D:\DOCUME~1\VIKTOR~1\LOCALS~1\Temp/ccmcbaaa.s 			page 10


 268 023c 0530CDE5 		strb	r3, [sp, #5]
 243:main_serial.c **** 		params[2] = 50;
 269              		.loc 1 243 0
 270 0240 303083E2 		add	r3, r3, #48
 271 0244 0630CDE5 		strb	r3, [sp, #6]
 244:main_serial.c **** 		params[3] = 50;
 272              		.loc 1 244 0
 273 0248 0730CDE5 		strb	r3, [sp, #7]
 245:main_serial.c **** 
 246:main_serial.c **** 		cmd_BuildPacket(actuatorSouthClass, goalAddress, 0x12, 4, params);
 274              		.loc 1 246 0
 275 024c 04308DE2 		add	r3, sp, #4
 276 0250 00308DE5 		str	r3, [sp, #0]
 277 0254 FA00A0E3 		mov	r0, #250
 278 0258 0110A0E3 		mov	r1, #1
 279 025c 1220A0E3 		mov	r2, #18
 280 0260 0430A0E3 		mov	r3, #4
 281 0264 FEFFFFEB 		bl	cmd_BuildPacket
 247:main_serial.c **** 		cmd_Execute(EXTERNAL_SERIAL);	
 282              		.loc 1 247 0
 283 0268 0100A0E3 		mov	r0, #1
 284 026c FEFFFFEB 		bl	cmd_Execute
 248:main_serial.c **** 
 249:main_serial.c **** 		if (GetResponse(EXTERNAL_SERIAL, actuatorSouthClass, goalAddress))
 285              		.loc 1 249 0
 286 0270 0100A0E3 		mov	r0, #1
 287 0274 FA10A0E3 		mov	r1, #250
 288 0278 0020A0E1 		mov	r2, r0
 289 027c FEFFFFEB 		bl	GetResponse
 290 0280 050050E1 		cmp	r0, r5
 291 0284 1400000A 		beq	.L28
 292              	.LBB4:
 250:main_serial.c **** 		{
 251:main_serial.c **** 			rprintfu08(trgPkt->cmd);		//	VCOM_putchar(' ');
 293              		.loc 1 251 0
 294 0288 30419FE5 		ldr	r4, .L51+4
 295              	.LVL15:
 296 028c 0000D4E5 		ldrb	r0, [r4, #0]	@ zero_extendqisi2
 297 0290 FEFFFFEB 		bl	rprintfu08
 252:main_serial.c **** 			rprintfu08(trgPkt->paramCnt);	//	VCOM_putchar(' ');
 298              		.loc 1 252 0
 299 0294 8100D4E5 		ldrb	r0, [r4, #129]	@ zero_extendqisi2
 300 0298 FEFFFFEB 		bl	rprintfu08
 253:main_serial.c **** 			u08 i = 0;
 254:main_serial.c **** 			for(i=0; i<trgPkt->paramCnt; i++)
 301              		.loc 1 254 0
 302 029c 8130D4E5 		ldrb	r3, [r4, #129]	@ zero_extendqisi2
 303 02a0 050053E1 		cmp	r3, r5
 304 02a4 0900000A 		beq	.L30
 305 02a8 0540A0E1 		mov	r4, r5
 306              	.LVL16:
 307 02ac 0C519FE5 		ldr	r5, .L51+4
 308              	.L32:
 255:main_serial.c **** 			{	
 256:main_serial.c **** 				rprintfu08(trgPkt->params[i]);//	VCOM_putchar(' ');
 309              		.loc 1 256 0
 310 02b0 053084E0 		add	r3, r4, r5
ARM GAS  D:\DOCUME~1\VIKTOR~1\LOCALS~1\Temp/ccmcbaaa.s 			page 11


 311 02b4 0100D3E5 		ldrb	r0, [r3, #1]	@ zero_extendqisi2
 312 02b8 FEFFFFEB 		bl	rprintfu08
 313              		.loc 1 254 0
 314 02bc 013084E2 		add	r3, r4, #1
 315 02c0 FF4003E2 		and	r4, r3, #255
 316 02c4 8130D5E5 		ldrb	r3, [r5, #129]	@ zero_extendqisi2
 317 02c8 040053E1 		cmp	r3, r4
 318 02cc F7FFFF8A 		bhi	.L32
 319              	.L30:
 257:main_serial.c **** 			};
 258:main_serial.c **** 			VCOM_putchar('\r');
 320              		.loc 1 258 0
 321 02d0 0D00A0E3 		mov	r0, #13
 322 02d4 FEFFFFEB 		bl	VCOM_putchar
 323 02d8 040000EA 		b	.L33
 324              	.LVL17:
 325              	.L28:
 326              	.LBE4:
 259:main_serial.c **** 		}
 260:main_serial.c **** 		else	{	rprintf(":(");	 VCOM_putchar('\r');	};
 327              		.loc 1 260 0
 328 02dc 0000A0E3 		mov	r0, #0
 329 02e0 DC109FE5 		ldr	r1, .L51+8
 330 02e4 FEFFFFEB 		bl	rprintf1RamRom
 331 02e8 0D00A0E3 		mov	r0, #13
 332 02ec FEFFFFEB 		bl	VCOM_putchar
 333              	.L33:
 261:main_serial.c **** 
 262:main_serial.c **** 
 263:main_serial.c **** 		timerPause(20);
 334              		.loc 1 263 0
 335 02f0 1400A0E3 		mov	r0, #20
 336 02f4 FEFFFFEB 		bl	timerPause
 264:main_serial.c **** 
 265:main_serial.c **** 		// Setting LEDs
 266:main_serial.c **** 
 267:main_serial.c **** 		params[0] = 0;
 337              		.loc 1 267 0
 338 02f8 0050A0E3 		mov	r5, #0
 339 02fc 0450CDE5 		strb	r5, [sp, #4]
 268:main_serial.c **** 		params[1] = 2;
 340              		.loc 1 268 0
 341 0300 0230A0E3 		mov	r3, #2
 342 0304 0530CDE5 		strb	r3, [sp, #5]
 269:main_serial.c **** 		params[2] = 2;
 343              		.loc 1 269 0
 344 0308 0630CDE5 		strb	r3, [sp, #6]
 270:main_serial.c **** 		params[3] = 3;
 345              		.loc 1 270 0
 346 030c 013083E2 		add	r3, r3, #1
 347 0310 0730CDE5 		strb	r3, [sp, #7]
 271:main_serial.c **** 
 272:main_serial.c **** 		cmd_BuildPacket(actuatorSouthClass, goalAddress, 0x12, 4, params);
 348              		.loc 1 272 0
 349 0314 04308DE2 		add	r3, sp, #4
 350 0318 00308DE5 		str	r3, [sp, #0]
 351 031c FA00A0E3 		mov	r0, #250
ARM GAS  D:\DOCUME~1\VIKTOR~1\LOCALS~1\Temp/ccmcbaaa.s 			page 12


 352 0320 0110A0E3 		mov	r1, #1
 353 0324 1220A0E3 		mov	r2, #18
 354 0328 0430A0E3 		mov	r3, #4
 355 032c FEFFFFEB 		bl	cmd_BuildPacket
 273:main_serial.c **** 		cmd_Execute(EXTERNAL_SERIAL);	
 356              		.loc 1 273 0
 357 0330 0100A0E3 		mov	r0, #1
 358 0334 FEFFFFEB 		bl	cmd_Execute
 274:main_serial.c **** 
 275:main_serial.c **** 		if (GetResponse(EXTERNAL_SERIAL, actuatorSouthClass, goalAddress))
 359              		.loc 1 275 0
 360 0338 0100A0E3 		mov	r0, #1
 361 033c FA10A0E3 		mov	r1, #250
 362 0340 0020A0E1 		mov	r2, r0
 363 0344 FEFFFFEB 		bl	GetResponse
 364 0348 050050E1 		cmp	r0, r5
 365 034c 1400000A 		beq	.L34
 366              	.LBB5:
 276:main_serial.c **** 		{
 277:main_serial.c **** 			rprintfu08(trgPkt->cmd);		//	VCOM_putchar(' ');
 367              		.loc 1 277 0
 368 0350 68409FE5 		ldr	r4, .L51+4
 369              	.LVL18:
 370 0354 0000D4E5 		ldrb	r0, [r4, #0]	@ zero_extendqisi2
 371 0358 FEFFFFEB 		bl	rprintfu08
 278:main_serial.c **** 			rprintfu08(trgPkt->paramCnt);	//	VCOM_putchar(' ');
 372              		.loc 1 278 0
 373 035c 8100D4E5 		ldrb	r0, [r4, #129]	@ zero_extendqisi2
 374 0360 FEFFFFEB 		bl	rprintfu08
 279:main_serial.c **** 			u08 i = 0;
 280:main_serial.c **** 			for(i=0; i<trgPkt->paramCnt; i++)
 375              		.loc 1 280 0
 376 0364 8130D4E5 		ldrb	r3, [r4, #129]	@ zero_extendqisi2
 377 0368 050053E1 		cmp	r3, r5
 378 036c 0900000A 		beq	.L36
 379 0370 0540A0E1 		mov	r4, r5
 380              	.LVL19:
 381 0374 44509FE5 		ldr	r5, .L51+4
 382              	.L38:
 281:main_serial.c **** 			{	
 282:main_serial.c **** 				rprintfu08(trgPkt->params[i]);//	VCOM_putchar(' ');
 383              		.loc 1 282 0
 384 0378 053084E0 		add	r3, r4, r5
 385 037c 0100D3E5 		ldrb	r0, [r3, #1]	@ zero_extendqisi2
 386 0380 FEFFFFEB 		bl	rprintfu08
 387              		.loc 1 280 0
 388 0384 013084E2 		add	r3, r4, #1
 389 0388 FF4003E2 		and	r4, r3, #255
 390 038c 8130D5E5 		ldrb	r3, [r5, #129]	@ zero_extendqisi2
 391 0390 040053E1 		cmp	r3, r4
 392 0394 F7FFFF8A 		bhi	.L38
 393              	.L36:
 283:main_serial.c **** 			};
 284:main_serial.c **** 			VCOM_putchar('\r');
 394              		.loc 1 284 0
 395 0398 0D00A0E3 		mov	r0, #13
 396 039c FEFFFFEB 		bl	VCOM_putchar
ARM GAS  D:\DOCUME~1\VIKTOR~1\LOCALS~1\Temp/ccmcbaaa.s 			page 13


 397 03a0 A0FFFFEA 		b	.L50
 398              	.LVL20:
 399              	.L34:
 400              	.LBE5:
 285:main_serial.c **** 		}
 286:main_serial.c **** 		else	{	rprintf(":(");	 VCOM_putchar('\r');	};
 401              		.loc 1 286 0
 402 03a4 0000A0E3 		mov	r0, #0
 403 03a8 14109FE5 		ldr	r1, .L51+8
 404 03ac FEFFFFEB 		bl	rprintf1RamRom
 405 03b0 0D00A0E3 		mov	r0, #13
 406 03b4 FEFFFFEB 		bl	VCOM_putchar
 407 03b8 9AFFFFEA 		b	.L50
 408              	.L52:
 409              		.align	2
 410              	.L51:
 411 03bc 00000000 		.word	VCOM_putchar
 412 03c0 00000000 		.word	ext_busRxPkt
 413 03c4 00000000 		.word	.LC0
 414              	.LFE4:
 415              		.size	main, .-main
 416              		.comm	cmdBufferData,128,1
 417              		.comm	cmdBuffer,12,4
 418              		.comm	int_busRxPkt,132,4
 419              		.comm	ext_busRxPkt,132,4
 420              		.section	.debug_frame,"",%progbits
 421              	.Lframe0:
 422 0000 0C000000 		.4byte	.LECIE0-.LSCIE0
 423              	.LSCIE0:
 424 0004 FFFFFFFF 		.4byte	0xffffffff
 425 0008 01       		.byte	0x1
 426 0009 00       		.ascii	"\000"
 427 000a 01       		.uleb128 0x1
 428 000b 7C       		.sleb128 -4
 429 000c 0E       		.byte	0xe
 430 000d 0C       		.byte	0xc
 431 000e 0D       		.uleb128 0xd
 432 000f 00       		.uleb128 0x0
 433              		.align	2
 434              	.LECIE0:
 435              	.LSFDE0:
 436 0010 14000000 		.4byte	.LEFDE0-.LASFDE0
 437              	.LASFDE0:
 438 0014 00000000 		.4byte	.Lframe0
 439 0018 00000000 		.4byte	.LFB2
 440 001c 1C000000 		.4byte	.LFE2-.LFB2
 441 0020 44       		.byte	0x4
 442              		.4byte	.LCFI0-.LFB2
 443 0021 0E       		.byte	0xe
 444 0022 04       		.uleb128 0x4
 445 0023 8E       		.byte	0x8e
 446 0024 01       		.uleb128 0x1
 447 0025 000000   		.align	2
 448              	.LEFDE0:
 449              	.LSFDE2:
 450 0028 1C000000 		.4byte	.LEFDE2-.LASFDE2
 451              	.LASFDE2:
ARM GAS  D:\DOCUME~1\VIKTOR~1\LOCALS~1\Temp/ccmcbaaa.s 			page 14


 452 002c 00000000 		.4byte	.Lframe0
 453 0030 1C000000 		.4byte	.LFB3
 454 0034 70000000 		.4byte	.LFE3-.LFB3
 455 0038 44       		.byte	0x4
 456              		.4byte	.LCFI1-.LFB3
 457 0039 0E       		.byte	0xe
 458 003a 18       		.uleb128 0x18
 459 003b 8E       		.byte	0x8e
 460 003c 01       		.uleb128 0x1
 461 003d 88       		.byte	0x88
 462 003e 02       		.uleb128 0x2
 463 003f 87       		.byte	0x87
 464 0040 03       		.uleb128 0x3
 465 0041 86       		.byte	0x86
 466 0042 04       		.uleb128 0x4
 467 0043 85       		.byte	0x85
 468 0044 05       		.uleb128 0x5
 469 0045 84       		.byte	0x84
 470 0046 06       		.uleb128 0x6
 471 0047 00       		.align	2
 472              	.LEFDE2:
 473              	.LSFDE4:
 474 0048 18000000 		.4byte	.LEFDE4-.LASFDE4
 475              	.LASFDE4:
 476 004c 00000000 		.4byte	.Lframe0
 477 0050 8C000000 		.4byte	.LFB4
 478 0054 3C030000 		.4byte	.LFE4-.LFB4
 479 0058 44       		.byte	0x4
 480              		.4byte	.LCFI2-.LFB4
 481 0059 0E       		.byte	0xe
 482 005a 0C       		.uleb128 0xc
 483 005b 44       		.byte	0x4
 484              		.4byte	.LCFI3-.LCFI2
 485 005c 0E       		.byte	0xe
 486 005d 50       		.uleb128 0x50
 487 005e 8E       		.byte	0x8e
 488 005f 01       		.uleb128 0x1
 489 0060 85       		.byte	0x85
 490 0061 02       		.uleb128 0x2
 491 0062 84       		.byte	0x84
 492 0063 03       		.uleb128 0x3
 493              		.align	2
 494              	.LEFDE4:
 495              		.file 2 "D:\\WinARM\\armlib/buffer.h"
 496              		.file 3 "D:\\WinARM\\armlib/armlibtypes.h"
 497              		.file 4 "molecubePacket.h"
 498              		.text
 499              	.Letext0: