ARM GAS  D:\DOCUME~1\VIKTOR~1\LOCALS~1\Temp/ccMbbaaa.s 			page 1


   1              		.file	"molecubePacket.c"
   8 0000 FF000000 		.text
   8      02006900 
   8      00000201 
   8      FB0E0D00 
   8      01010101 
   9              	.Ltext0:
  10              		.align	2
  11              		.global	cmd_PrintPacket
  12              		.type	cmd_PrintPacket, %function
  13              	cmd_PrintPacket:
  14              	.LFB9:
  15              		.file 1 "molecubePacket.c"
   1:molecubePacket.c **** #include <string.h>
   2:molecubePacket.c **** #include "global.h"
   3:molecubePacket.c **** #include "lpc2000.h"		// include LPC210x defines
   4:molecubePacket.c **** #include "processor.h"		// include processor initialization functions
   5:molecubePacket.c **** #include "buffer.h"
   6:molecubePacket.c **** #include "uartintr.h"
   7:molecubePacket.c **** #include "rprintf.h"
   8:molecubePacket.c **** 
   9:molecubePacket.c **** #include "molecubePacket.h"
  10:molecubePacket.c **** 
  11:molecubePacket.c **** void HD232_Init(void)
  12:molecubePacket.c **** {
  13:molecubePacket.c **** 	uart0Init(UART_BAUD(1000000), UART_8N1, UART_FIFO_8);
  14:molecubePacket.c **** 	uart1Init(UART_BAUD(1000000), UART_8N1, UART_FIFO_8);
  15:molecubePacket.c **** 	
  16:molecubePacket.c **** 	// Configure Enhanced baud rate at 1Mbaud
  17:molecubePacket.c **** 	// Enhanced uses FDR register allowing for lower error
  18:molecubePacket.c **** 	U1LCR = ULCR_DLAB_ENABLE;
  19:molecubePacket.c **** //	U1FDR = 0xd3;
  20:molecubePacket.c **** 	U1FDR = 0x41;
  21:molecubePacket.c **** 	U1DLL = 9;
  22:molecubePacket.c **** 	U1DLM = 0;
  23:molecubePacket.c **** 	U1LCR = UART_8N1;
  24:molecubePacket.c **** 	
  25:molecubePacket.c **** 	// Configure Enhanced baud rate at 1Mbaud
  26:molecubePacket.c **** 	// Enhanced uses FDR register allowing for lower error
  27:molecubePacket.c **** 	U0LCR = ULCR_DLAB_ENABLE;
  28:molecubePacket.c **** //	U0FDR = 0xd3;
  29:molecubePacket.c **** 	U1FDR = 0x41;
  30:molecubePacket.c **** 	U0DLL = 9;
  31:molecubePacket.c **** 	U0DLM = 0;
  32:molecubePacket.c **** 	U0LCR = UART_8N1;
  33:molecubePacket.c **** 
  34:molecubePacket.c **** 	// uart0 internal serial bus buffer pin config
  35:molecubePacket.c **** 	IO1DIR |= (1<<INT_TXDIRCTL);
  36:molecubePacket.c **** 	IO1CLR |= (1<<INT_TXDIRCTL);
  37:molecubePacket.c **** 	IO1DIR |= (1<<INT_RXDIRCTL);
  38:molecubePacket.c **** 	IO1CLR |= (1<<INT_RXDIRCTL);
ARM GAS  D:\DOCUME~1\VIKTOR~1\LOCALS~1\Temp/ccMbbaaa.s 			page 2


  39:molecubePacket.c **** 	
  40:molecubePacket.c **** 	// uart0 internal serial bus buffer pin config
  41:molecubePacket.c **** 	IO1DIR |= (1<<EXT_TXDIRCTL);
  42:molecubePacket.c **** 	IO1CLR |= (1<<EXT_TXDIRCTL);
  43:molecubePacket.c **** 	IO1DIR |= (1<<EXT_RXDIRCTL);
  44:molecubePacket.c **** 	IO1CLR |= (1<<EXT_RXDIRCTL);
  45:molecubePacket.c **** }
  46:molecubePacket.c **** 
  47:molecubePacket.c **** void cmd_Init(void) {
  48:molecubePacket.c **** 	bufferInit(&cmdBuffer, cmdBufferData, MAX_COMMAND_PACKET_SIZE);
  49:molecubePacket.c **** }
  50:molecubePacket.c **** 
  51:molecubePacket.c **** u08 cmd_AddByteToEnd(u08 b) {
  52:molecubePacket.c **** 	return bufferAddToEnd(&cmdBuffer, b);
  53:molecubePacket.c **** }
  54:molecubePacket.c **** 
  55:molecubePacket.c **** void cmd_Flush(void) {
  56:molecubePacket.c **** 	bufferFlush(&cmdBuffer);
  57:molecubePacket.c **** }
  58:molecubePacket.c **** 
  59:molecubePacket.c **** void cmd_Execute(u08 uart) {
  60:molecubePacket.c **** 	int (*uartSendFxn)(int) = NULL;
  61:molecubePacket.c **** 	unsigned char c;
  62:molecubePacket.c **** 	if(uart == INTERNAL_SERIAL)
  63:molecubePacket.c **** 	{
  64:molecubePacket.c **** 		uartSendFxn = &uart0SendByte;
  65:molecubePacket.c **** 		RS232_INT_DISABLE_RX;
  66:molecubePacket.c **** 		RS232_INT_ENABLE_TX;
  67:molecubePacket.c **** 	} else {
  68:molecubePacket.c **** 		uartSendFxn = &uart1SendByte;
  69:molecubePacket.c **** 		RS232_EXT_DISABLE_RX;
  70:molecubePacket.c **** 		RS232_EXT_ENABLE_TX;
  71:molecubePacket.c **** 	}
  72:molecubePacket.c **** 	CRITICAL_SECTION_BEGIN;
  73:molecubePacket.c **** 	while((MAX_COMMAND_PACKET_SIZE - bufferIsNotFull(&cmdBuffer)) > 0)
  74:molecubePacket.c **** 	{
  75:molecubePacket.c **** 		c = bufferGetFromFront(&cmdBuffer);
  76:molecubePacket.c **** 		uartSendFxn(c);
  77:molecubePacket.c **** 	};
  78:molecubePacket.c **** 	CRITICAL_SECTION_END;
  79:molecubePacket.c **** 
  80:molecubePacket.c **** 	if(uart == INTERNAL_SERIAL)
  81:molecubePacket.c **** 	{
  82:molecubePacket.c **** 		while( !(U0LSR & ULSR_TEMT) );
  83:molecubePacket.c **** 		RS232_INT_DISABLE_TX;
  84:molecubePacket.c **** 		RS232_INT_ENABLE_RX;
  85:molecubePacket.c **** 	} else {
  86:molecubePacket.c **** 		while( !(U1LSR & ULSR_TEMT) );
  87:molecubePacket.c **** 		RS232_EXT_DISABLE_TX;
  88:molecubePacket.c **** 		RS232_EXT_ENABLE_RX;
  89:molecubePacket.c **** 	}
  90:molecubePacket.c **** 	cmd_Flush();
  91:molecubePacket.c **** }
  92:molecubePacket.c **** 
  93:molecubePacket.c **** void cmd_BuildPacket(u08 dev_class, u08 id, u08 cmd, u08 p_count, u08 *params)
  94:molecubePacket.c **** {
  95:molecubePacket.c **** 	u08 i, chksum = 0;
ARM GAS  D:\DOCUME~1\VIKTOR~1\LOCALS~1\Temp/ccMbbaaa.s 			page 3


  96:molecubePacket.c **** 	cmd_Flush();
  97:molecubePacket.c **** 	cmd_AddByteToEnd(0xFF);
  98:molecubePacket.c **** 	cmd_AddByteToEnd(dev_class);
  99:molecubePacket.c **** 	cmd_AddByteToEnd(id);
 100:molecubePacket.c **** 	cmd_AddByteToEnd(p_count);
 101:molecubePacket.c **** 	cmd_AddByteToEnd(cmd);
 102:molecubePacket.c **** 
 103:molecubePacket.c **** 	chksum += id;
 104:molecubePacket.c **** 	chksum += (p_count);
 105:molecubePacket.c **** 	chksum += (cmd);
 106:molecubePacket.c **** 	
 107:molecubePacket.c **** 	for(i=0; i<p_count; i++)
 108:molecubePacket.c **** 	{
 109:molecubePacket.c **** 		cmd_AddByteToEnd(params[i]);
 110:molecubePacket.c **** 		chksum+=params[i];
 111:molecubePacket.c **** 	}
 112:molecubePacket.c **** 	cmd_AddByteToEnd(chksum);
 113:molecubePacket.c **** }
 114:molecubePacket.c **** 
 115:molecubePacket.c **** u08 packetRxProcess(u08 serBus, u08 devClass, u08 devAddress, cBuffer* rxBuffer)
 116:molecubePacket.c **** {
 117:molecubePacket.c **** 	u08 foundpacket = FALSE;
 118:molecubePacket.c **** 	u08 startFlag = FALSE;
 119:molecubePacket.c **** 	u08 rxchksum, chksum = 0;
 120:molecubePacket.c **** 	RXPKT *trgPkt;
 121:molecubePacket.c **** 	u16 i;
 122:molecubePacket.c **** 
 123:molecubePacket.c **** 	// process the receive buffer
 124:molecubePacket.c **** 	// go through buffer looking for packets
 125:molecubePacket.c **** 	while((rxBuffer->datalength) > 1)
 126:molecubePacket.c **** 	{
 127:molecubePacket.c **** 
 128:molecubePacket.c **** 		// look for a start of NMEA packet
 129:molecubePacket.c **** 		if((bufferGetAtIndex(rxBuffer,0) == 0xFF) &&
 130:molecubePacket.c **** 			((bufferGetAtIndex(rxBuffer,1) == devClass)	||				// !!!!!!!!!!!!!  CHECK FOR BAD COMM GLITCHES 
 131:molecubePacket.c **** 			(bufferGetAtIndex(rxBuffer,1) == broadcastClass)))			// !!!!!!!!!!!!!  CHECK FOR BAD COMM GLITCH
 132:molecubePacket.c **** 			// comparing two consecutive bits helps avoid nasty bugs 
 133:molecubePacket.c **** 			// when FF is a part of a packet addressed to a different
 134:molecubePacket.c **** 			// microprocessor. MAKE SURE there are no sequences that include
 135:molecubePacket.c **** 			// 2 bytes FF, FA..FF, this will result in bad glitches.
 136:molecubePacket.c **** 			// Can't get on-the fly frequency switching to work reliably.
 137:molecubePacket.c **** 		{
 138:molecubePacket.c **** 
 139:molecubePacket.c **** 			// found start
 140:molecubePacket.c **** 			startFlag = TRUE;
 141:molecubePacket.c **** 			// when start is found, we leave it intact in the receive buffer
 142:molecubePacket.c **** 			// in case the full NMEA string is not completely received.  The
 143:molecubePacket.c **** 			// start will be detected in the next nmeaProcess iteration.
 144:molecubePacket.c **** 
 145:molecubePacket.c **** 			// done looking for start
 146:molecubePacket.c **** 			break;
 147:molecubePacket.c **** 		}
 148:molecubePacket.c **** 		else
 149:molecubePacket.c **** 			bufferGetFromFront(rxBuffer);
 150:molecubePacket.c **** 	}
 151:molecubePacket.c **** 	
 152:molecubePacket.c **** 	// if we detected a start, look for end of packet
ARM GAS  D:\DOCUME~1\VIKTOR~1\LOCALS~1\Temp/ccMbbaaa.s 			page 4


 153:molecubePacket.c **** 	if(startFlag)
 154:molecubePacket.c **** 	{
 155:molecubePacket.c **** 		if(rxBuffer->datalength >= 4) // enough of packet has been read to determine length
 156:molecubePacket.c **** 		{
 157:molecubePacket.c **** 			u08 p_count = 0;
 158:molecubePacket.c **** 			if (devClass == 0xFF)	p_count = bufferGetAtIndex(rxBuffer,3) - 2;
 159:molecubePacket.c **** 			else					p_count = bufferGetAtIndex(rxBuffer,3);
 160:molecubePacket.c **** 
 161:molecubePacket.c **** 			u08 max_rx_buffer_size;
 162:molecubePacket.c **** 			if(serBus == EXTERNAL_SERIAL)
 163:molecubePacket.c **** 				max_rx_buffer_size = UART1_RX_BUFFER_SIZE;
 164:molecubePacket.c **** 			else 
 165:molecubePacket.c **** 				max_rx_buffer_size = UART0_RX_BUFFER_SIZE;
 166:molecubePacket.c **** 
 167:molecubePacket.c **** 			if(p_count + 6 > max_rx_buffer_size)
 168:molecubePacket.c **** 				bufferFlush(rxBuffer);
 169:molecubePacket.c **** 			else if(rxBuffer->datalength >= p_count + 6) 
 170:molecubePacket.c **** 				// entire packet has been rxed
 171:molecubePacket.c **** 			{
 172:molecubePacket.c **** 
 173:molecubePacket.c **** 				// Class and Address match
 174:molecubePacket.c **** 				if((bufferGetAtIndex(rxBuffer,1) == devClass) && 
 175:molecubePacket.c **** 					((bufferGetAtIndex(rxBuffer,2) == devAddress) || (bufferGetAtIndex(rxBuffer,2) == BROADCASTADD
 176:molecubePacket.c **** 	     		{
 177:molecubePacket.c **** 
 178:molecubePacket.c **** 					// grab checksum
 179:molecubePacket.c **** 
 180:molecubePacket.c **** 					rxchksum = bufferGetAtIndex(rxBuffer,p_count  + 5);
 181:molecubePacket.c **** 					chksum = 0;
 182:molecubePacket.c **** 					// calc checksum
 183:molecubePacket.c **** 					chksum += bufferGetAtIndex(rxBuffer,2); // id
 184:molecubePacket.c **** 					chksum += bufferGetAtIndex(rxBuffer,3); // p_count
 185:molecubePacket.c **** 					chksum += bufferGetAtIndex(rxBuffer,4); // cmd
 186:molecubePacket.c **** 					for(i=0; i<p_count; i++)
 187:molecubePacket.c **** 					{
 188:molecubePacket.c **** 						chksum += bufferGetAtIndex(rxBuffer,5+i); // params
 189:molecubePacket.c **** 					}
 190:molecubePacket.c **** 
 191:molecubePacket.c **** 					// this is specifically for communicating with the AX12 (not performed by controller)
 192:molecubePacket.c **** 					if (devClass == 0xFF)	chksum = ~chksum;
 193:molecubePacket.c **** 
 194:molecubePacket.c **** 					if(rxchksum == chksum)
 195:molecubePacket.c **** 					{
 196:molecubePacket.c **** 
 197:molecubePacket.c **** 						// command successfully received!
 198:molecubePacket.c **** 						if(serBus == INTERNAL_SERIAL)
 199:molecubePacket.c **** 						{
 200:molecubePacket.c **** 							trgPkt = &int_busRxPkt;
 201:molecubePacket.c **** 						} else {
 202:molecubePacket.c **** 							trgPkt = &ext_busRxPkt;
 203:molecubePacket.c **** 						}
 204:molecubePacket.c **** 
 205:molecubePacket.c **** 						trgPkt->cmd = bufferGetAtIndex(rxBuffer,4);
 206:molecubePacket.c **** 						trgPkt->paramCnt = p_count;
 207:molecubePacket.c **** 						for(i=0; i<p_count; i++)
 208:molecubePacket.c **** 						{
 209:molecubePacket.c **** 							trgPkt->params[i] = bufferGetAtIndex(rxBuffer,5+i);
ARM GAS  D:\DOCUME~1\VIKTOR~1\LOCALS~1\Temp/ccMbbaaa.s 			page 5


 210:molecubePacket.c **** 						}
 211:molecubePacket.c **** 						foundpacket = TRUE;
 212:molecubePacket.c **** 						bufferFlush(rxBuffer);
 213:molecubePacket.c **** 					} else
 214:molecubePacket.c **** 						bufferGetFromFront(rxBuffer);
 215:molecubePacket.c **** 				} else
 216:molecubePacket.c **** 					bufferGetFromFront(rxBuffer);
 217:molecubePacket.c **** 			}
 218:molecubePacket.c **** 		}
 219:molecubePacket.c **** 	}
 220:molecubePacket.c **** 	else if(rxBuffer->datalength >= rxBuffer->size-1)
 221:molecubePacket.c **** 	{
 222:molecubePacket.c **** 		// if we found no packet, and the buffer is full
 223:molecubePacket.c **** 		// we're logjammed, flush entire buffer
 224:molecubePacket.c **** 		bufferFlush(rxBuffer);
 225:molecubePacket.c **** 	}
 226:molecubePacket.c **** 
 227:molecubePacket.c **** 	return foundpacket;
 228:molecubePacket.c **** }
 229:molecubePacket.c **** 
 230:molecubePacket.c **** 
 231:molecubePacket.c **** void cmd_PrintPacket(void)
 232:molecubePacket.c **** {
  16              		.loc 1 232 0
  17              		@ args = 0, pretend = 0, frame = 0
  18              		@ frame_needed = 0, uses_anonymous_args = 0
  19 0000 30402DE9 		stmfd	sp!, {r4, r5, lr}
  20              	.LCFI0:
 233:molecubePacket.c **** 	u08 i;
 234:molecubePacket.c **** 	u08 len = (MAX_COMMAND_PACKET_SIZE - bufferIsNotFull(&cmdBuffer));
  21              		.loc 1 234 0
  22 0004 40009FE5 		ldr	r0, .L7
  23 0008 FEFFFFEB 		bl	bufferIsNotFull
  24 000c FF0460E2 		rsb	r0, r0, #-16777216
  25 0010 FF0880E2 		add	r0, r0, #16711680
  26 0014 FF0C80E2 		add	r0, r0, #65280
  27 0018 800080E2 		add	r0, r0, #128
 235:molecubePacket.c **** 	
 236:molecubePacket.c **** 	for(i=0; i<len; i++)
  28              		.loc 1 236 0
  29 001c FF5010E2 		ands	r5, r0, #255
  30              	.LVL0:
  31 0020 3080BD08 		ldmeqfd	sp!, {r4, r5, pc}
  32 0024 0040A0E3 		mov	r4, #0
  33              	.LVL1:
  34              	.L4:
 237:molecubePacket.c **** 	{
 238:molecubePacket.c **** 		rprintfu08(bufferGetAtIndex(&cmdBuffer, i));
  35              		.loc 1 238 0
  36 0028 1C009FE5 		ldr	r0, .L7
  37 002c 0410A0E1 		mov	r1, r4
  38 0030 FEFFFFEB 		bl	bufferGetAtIndex
  39 0034 FEFFFFEB 		bl	rprintfu08
  40              		.loc 1 236 0
  41 0038 013084E2 		add	r3, r4, #1
  42 003c FF4003E2 		and	r4, r3, #255
  43 0040 040055E1 		cmp	r5, r4
ARM GAS  D:\DOCUME~1\VIKTOR~1\LOCALS~1\Temp/ccMbbaaa.s 			page 6


  44 0044 F7FFFF1A 		bne	.L4
  45 0048 3080BDE8 		ldmfd	sp!, {r4, r5, pc}
  46              	.L8:
  47              		.align	2
  48              	.L7:
  49 004c 00000000 		.word	cmdBuffer
  50              	.LFE9:
  51              		.size	cmd_PrintPacket, .-cmd_PrintPacket
  52              		.align	2
  53              		.global	packetRxProcess
  54              		.type	packetRxProcess, %function
  55              	packetRxProcess:
  56              	.LFB8:
  57              		.loc 1 116 0
  58              		@ args = 0, pretend = 0, frame = 4
  59              		@ frame_needed = 0, uses_anonymous_args = 0
  60              	.LVL2:
  61 0050 F04F2DE9 		stmfd	sp!, {r4, r5, r6, r7, r8, r9, sl, fp, lr}
  62              	.LCFI1:
  63 0054 04D04DE2 		sub	sp, sp, #4
  64              	.LCFI2:
  65 0058 0350A0E1 		mov	r5, r3
  66 005c FFA000E2 		and	sl, r0, #255
  67 0060 FF6001E2 		and	r6, r1, #255
  68 0064 FF4002E2 		and	r4, r2, #255
  69              		.loc 1 125 0
  70 0068 B630D3E1 		ldrh	r3, [r3, #6]
  71              	.LVL3:
  72 006c 010053E3 		cmp	r3, #1
  73 0070 9300009A 		bls	.L10
  74              	.LVL4:
  75              	.L44:
  76              		.loc 1 129 0
  77 0074 0500A0E1 		mov	r0, r5
  78 0078 0010A0E3 		mov	r1, #0
  79 007c FEFFFFEB 		bl	bufferGetAtIndex
  80 0080 FF0050E3 		cmp	r0, #255
  81 0084 0900001A 		bne	.L12
  82 0088 0500A0E1 		mov	r0, r5
  83 008c 0110A0E3 		mov	r1, #1
  84 0090 FEFFFFEB 		bl	bufferGetAtIndex
  85 0094 000056E1 		cmp	r6, r0
  86 0098 0A00000A 		beq	.L14
  87 009c 0500A0E1 		mov	r0, r5
  88 00a0 0110A0E3 		mov	r1, #1
  89 00a4 FEFFFFEB 		bl	bufferGetAtIndex
  90 00a8 FE0050E3 		cmp	r0, #254
  91 00ac 0500000A 		beq	.L14
  92              	.L12:
  93              		.loc 1 149 0
  94 00b0 0500A0E1 		mov	r0, r5
  95 00b4 FEFFFFEB 		bl	bufferGetFromFront
  96              		.loc 1 125 0
  97 00b8 B630D5E1 		ldrh	r3, [r5, #6]
  98 00bc 010053E3 		cmp	r3, #1
  99 00c0 7F00009A 		bls	.L10
 100 00c4 EAFFFFEA 		b	.L44
ARM GAS  D:\DOCUME~1\VIKTOR~1\LOCALS~1\Temp/ccMbbaaa.s 			page 7


 101              	.L14:
 102              		.loc 1 155 0
 103 00c8 B630D5E1 		ldrh	r3, [r5, #6]
 104 00cc 030053E3 		cmp	r3, #3
 105 00d0 7900009A 		bls	.L16
 106              	.LBB2:
 107              		.loc 1 158 0
 108 00d4 FF0056E3 		cmp	r6, #255
 109 00d8 0500001A 		bne	.L18
 110 00dc 0500A0E1 		mov	r0, r5
 111 00e0 0310A0E3 		mov	r1, #3
 112 00e4 FEFFFFEB 		bl	bufferGetAtIndex
 113 00e8 020040E2 		sub	r0, r0, #2
 114 00ec FF8000E2 		and	r8, r0, #255
 115              	.LVL5:
 116 00f0 030000EA 		b	.L20
 117              	.LVL6:
 118              	.L18:
 119              		.loc 1 159 0
 120 00f4 0500A0E1 		mov	r0, r5
 121 00f8 0310A0E3 		mov	r1, #3
 122 00fc FEFFFFEB 		bl	bufferGetAtIndex
 123 0100 0080A0E1 		mov	r8, r0
 124              	.LVL7:
 125              	.L20:
 126              		.loc 1 167 0
 127 0104 062088E2 		add	r2, r8, #6
 128 0108 800052E3 		cmp	r2, #128
 129 010c 030000DA 		ble	.L21
 130              		.loc 1 168 0
 131 0110 0500A0E1 		mov	r0, r5
 132 0114 FEFFFFEB 		bl	bufferFlush
 133 0118 0000A0E3 		mov	r0, #0
 134              	.LVL8:
 135 011c 6E0000EA 		b	.L23
 136              	.LVL9:
 137              	.L21:
 138              		.loc 1 169 0
 139 0120 B630D5E1 		ldrh	r3, [r5, #6]
 140 0124 030052E1 		cmp	r2, r3
 141 0128 630000CA 		bgt	.L16
 142              		.loc 1 174 0
 143 012c 0500A0E1 		mov	r0, r5
 144 0130 0110A0E3 		mov	r1, #1
 145 0134 FEFFFFEB 		bl	bufferGetAtIndex
 146 0138 000056E1 		cmp	r6, r0
 147 013c 5600001A 		bne	.L25
 148 0140 0500A0E1 		mov	r0, r5
 149 0144 0210A0E3 		mov	r1, #2
 150 0148 FEFFFFEB 		bl	bufferGetAtIndex
 151 014c 040050E1 		cmp	r0, r4
 152 0150 0400000A 		beq	.L27
 153 0154 0500A0E1 		mov	r0, r5
 154 0158 0210A0E3 		mov	r1, #2
 155 015c FEFFFFEB 		bl	bufferGetAtIndex
 156 0160 FE0050E3 		cmp	r0, #254
 157 0164 4C00001A 		bne	.L25
ARM GAS  D:\DOCUME~1\VIKTOR~1\LOCALS~1\Temp/ccMbbaaa.s 			page 8


 158              	.L27:
 159              		.loc 1 180 0
 160 0168 08B0A0E1 		mov	fp, r8
 161              	.LVL10:
 162 016c 053088E2 		add	r3, r8, #5
 163 0170 0338A0E1 		mov	r3, r3, asl #16
 164 0174 2398A0E1 		mov	r9, r3, lsr #16
 165 0178 0500A0E1 		mov	r0, r5
 166 017c 0910A0E1 		mov	r1, r9
 167 0180 FEFFFFEB 		bl	bufferGetAtIndex
 168 0184 00008DE5 		str	r0, [sp, #0]
 169              	.LVL11:
 170              		.loc 1 183 0
 171 0188 0500A0E1 		mov	r0, r5
 172 018c 0210A0E3 		mov	r1, #2
 173 0190 FEFFFFEB 		bl	bufferGetAtIndex
 174 0194 0040A0E1 		mov	r4, r0
 175              	.LVL12:
 176              		.loc 1 184 0
 177 0198 0500A0E1 		mov	r0, r5
 178 019c 0310A0E3 		mov	r1, #3
 179 01a0 FEFFFFEB 		bl	bufferGetAtIndex
 180 01a4 004084E0 		add	r4, r4, r0
 181 01a8 FF4004E2 		and	r4, r4, #255
 182              	.LVL13:
 183              		.loc 1 185 0
 184 01ac 0500A0E1 		mov	r0, r5
 185 01b0 0410A0E3 		mov	r1, #4
 186 01b4 FEFFFFEB 		bl	bufferGetAtIndex
 187 01b8 004084E0 		add	r4, r4, r0
 188              	.LVL14:
 189 01bc FF7004E2 		and	r7, r4, #255
 190              	.LVL15:
 191              		.loc 1 186 0
 192 01c0 000058E3 		cmp	r8, #0
 193 01c4 0A00000A 		beq	.L29
 194 01c8 0540A0E3 		mov	r4, #5
 195              	.L31:
 196              		.loc 1 188 0
 197 01cc 0500A0E1 		mov	r0, r5
 198 01d0 0410A0E1 		mov	r1, r4
 199 01d4 FEFFFFEB 		bl	bufferGetAtIndex
 200 01d8 000087E0 		add	r0, r7, r0
 201 01dc FF7000E2 		and	r7, r0, #255
 202 01e0 013084E2 		add	r3, r4, #1
 203 01e4 0338A0E1 		mov	r3, r3, asl #16
 204 01e8 2348A0E1 		mov	r4, r3, lsr #16
 205              		.loc 1 186 0
 206 01ec 040059E1 		cmp	r9, r4
 207 01f0 F5FFFF1A 		bne	.L31
 208              	.L29:
 209              		.loc 1 192 0
 210 01f4 FF0056E3 		cmp	r6, #255
 211 01f8 0730E001 		mvneq	r3, r7
 212 01fc FF700302 		andeq	r7, r3, #255
 213              		.loc 1 194 0
 214 0200 00309DE5 		ldr	r3, [sp, #0]
ARM GAS  D:\DOCUME~1\VIKTOR~1\LOCALS~1\Temp/ccMbbaaa.s 			page 9


 215 0204 030057E1 		cmp	r7, r3
 216 0208 1F00001A 		bne	.L34
 217              		.loc 1 198 0
 218 020c D0209FE5 		ldr	r2, .L48
 219 0210 D0309FE5 		ldr	r3, .L48+4
 220 0214 00005AE3 		cmp	sl, #0
 221 0218 0370A011 		movne	r7, r3
 222              	.LVL16:
 223 021c 0270A001 		moveq	r7, r2
 224              		.loc 1 205 0
 225 0220 0500A0E1 		mov	r0, r5
 226 0224 0410A0E3 		mov	r1, #4
 227 0228 FEFFFFEB 		bl	bufferGetAtIndex
 228 022c 0000C7E5 		strb	r0, [r7, #0]
 229              	.LVL17:
 230              		.loc 1 206 0
 231 0230 8180C7E5 		strb	r8, [r7, #129]
 232              		.loc 1 207 0
 233 0234 000058E3 		cmp	r8, #0
 234 0238 0F00000A 		beq	.L39
 235 023c 0060A0E3 		mov	r6, #0
 236              	.LVL18:
 237 0240 01304BE2 		sub	r3, fp, #1
 238 0244 0338A0E1 		mov	r3, r3, asl #16
 239 0248 2338A0E1 		mov	r3, r3, lsr #16
 240 024c 018083E2 		add	r8, r3, #1
 241              	.LVL19:
 242              	.L41:
 243 0250 0618A0E1 		mov	r1, r6, asl #16
 244              		.loc 1 209 0
 245 0254 2148A0E1 		mov	r4, r1, lsr #16
 246              	.LVL20:
 247 0258 051881E2 		add	r1, r1, #327680
 248 025c 0500A0E1 		mov	r0, r5
 249 0260 2118A0E1 		mov	r1, r1, lsr #16
 250 0264 FEFFFFEB 		bl	bufferGetAtIndex
 251 0268 044087E0 		add	r4, r7, r4
 252              	.LVL21:
 253 026c 0100C4E5 		strb	r0, [r4, #1]
 254 0270 016086E2 		add	r6, r6, #1
 255              		.loc 1 207 0
 256 0274 060058E1 		cmp	r8, r6
 257 0278 F4FFFF1A 		bne	.L41
 258              	.LVL22:
 259              	.L39:
 260              		.loc 1 212 0
 261 027c 0500A0E1 		mov	r0, r5
 262 0280 FEFFFFEB 		bl	bufferFlush
 263 0284 FF00A0E3 		mov	r0, #255
 264              	.LVL23:
 265 0288 130000EA 		b	.L23
 266              	.LVL24:
 267              	.L34:
 268              		.loc 1 214 0
 269 028c 0500A0E1 		mov	r0, r5
 270 0290 FEFFFFEB 		bl	bufferGetFromFront
 271 0294 0000A0E3 		mov	r0, #0
ARM GAS  D:\DOCUME~1\VIKTOR~1\LOCALS~1\Temp/ccMbbaaa.s 			page 10


 272              	.LVL25:
 273 0298 0F0000EA 		b	.L23
 274              	.LVL26:
 275              	.L25:
 276              		.loc 1 216 0
 277 029c 0500A0E1 		mov	r0, r5
 278 02a0 FEFFFFEB 		bl	bufferGetFromFront
 279 02a4 0000A0E3 		mov	r0, #0
 280              	.LVL27:
 281 02a8 0B0000EA 		b	.L23
 282              	.LVL28:
 283              	.L42:
 284              	.LBE2:
 285              		.loc 1 224 0
 286 02ac 0500A0E1 		mov	r0, r5
 287 02b0 FEFFFFEB 		bl	bufferFlush
 288 02b4 0000A0E3 		mov	r0, #0
 289              	.LVL29:
 290 02b8 070000EA 		b	.L23
 291              	.LVL30:
 292              	.L16:
 293 02bc 0000A0E3 		mov	r0, #0
 294              	.LVL31:
 295 02c0 050000EA 		b	.L23
 296              	.LVL32:
 297              	.L10:
 298              		.loc 1 220 0
 299 02c4 B620D5E1 		ldrh	r2, [r5, #6]
 300 02c8 B430D5E1 		ldrh	r3, [r5, #4]
 301 02cc 013043E2 		sub	r3, r3, #1
 302 02d0 030052E1 		cmp	r2, r3
 303 02d4 F8FFFFBA 		blt	.L16
 304 02d8 F3FFFFEA 		b	.L42
 305              	.LVL33:
 306              	.L23:
 307              	.LVL34:
 308              		.loc 1 228 0
 309 02dc 04D08DE2 		add	sp, sp, #4
 310 02e0 F08FBDE8 		ldmfd	sp!, {r4, r5, r6, r7, r8, r9, sl, fp, pc}
 311              	.L49:
 312              		.align	2
 313              	.L48:
 314 02e4 00000000 		.word	int_busRxPkt
 315 02e8 00000000 		.word	ext_busRxPkt
 316              	.LFE8:
 317              		.size	packetRxProcess, .-packetRxProcess
 318              		.align	2
 319              		.global	cmd_Flush
 320              		.type	cmd_Flush, %function
 321              	cmd_Flush:
 322              	.LFB5:
 323              		.loc 1 55 0
 324              		@ args = 0, pretend = 0, frame = 0
 325              		@ frame_needed = 0, uses_anonymous_args = 0
 326 02ec 04E02DE5 		str	lr, [sp, #-4]!
 327              	.LCFI3:
 328              		.loc 1 56 0
ARM GAS  D:\DOCUME~1\VIKTOR~1\LOCALS~1\Temp/ccMbbaaa.s 			page 11


 329 02f0 04009FE5 		ldr	r0, .L52
 330 02f4 FEFFFFEB 		bl	bufferFlush
 331              		.loc 1 57 0
 332 02f8 04F09DE4 		ldr	pc, [sp], #4
 333              	.L53:
 334              		.align	2
 335              	.L52:
 336 02fc 00000000 		.word	cmdBuffer
 337              	.LFE5:
 338              		.size	cmd_Flush, .-cmd_Flush
 339              		.align	2
 340              		.global	cmd_Execute
 341              		.type	cmd_Execute, %function
 342              	cmd_Execute:
 343              	.LFB6:
 344              		.loc 1 59 0
 345              		@ args = 0, pretend = 0, frame = 0
 346              		@ frame_needed = 0, uses_anonymous_args = 0
 347              	.LVL35:
 348 0300 70402DE9 		stmfd	sp!, {r4, r5, r6, lr}
 349              	.LCFI4:
 350              		.loc 1 62 0
 351 0304 FF6010E2 		ands	r6, r0, #255
 352 0308 0900001A 		bne	.L55
 353              	.LVL36:
 354              		.loc 1 65 0
 355 030c 0E32A0E3 		mov	r3, #-536870912
 356 0310 0A3983E2 		add	r3, r3, #163840
 357 0314 1C2093E5 		ldr	r2, [r3, #28]
 358 0318 022882E3 		orr	r2, r2, #131072
 359 031c 1C2083E5 		str	r2, [r3, #28]
 360              		.loc 1 66 0
 361 0320 142093E5 		ldr	r2, [r3, #20]
 362 0324 012882E3 		orr	r2, r2, #65536
 363 0328 142083E5 		str	r2, [r3, #20]
 364 032c D8409FE5 		ldr	r4, .L72
 365              	.LVL37:
 366 0330 080000EA 		b	.L57
 367              	.LVL38:
 368              	.L55:
 369              		.loc 1 69 0
 370 0334 0E32A0E3 		mov	r3, #-536870912
 371 0338 0A3983E2 		add	r3, r3, #163840
 372 033c 1C2093E5 		ldr	r2, [r3, #28]
 373 0340 022782E3 		orr	r2, r2, #524288
 374 0344 1C2083E5 		str	r2, [r3, #28]
 375              		.loc 1 70 0
 376 0348 142093E5 		ldr	r2, [r3, #20]
 377 034c 012782E3 		orr	r2, r2, #262144
 378 0350 142083E5 		str	r2, [r3, #20]
 379 0354 B4409FE5 		ldr	r4, .L72+4
 380              	.LVL39:
 381              	.L57:
 382              		.loc 1 72 0
 383 0358 C000A0E3 		mov	r0, #192
 384 035c FEFFFFEB 		bl	processorDisableInt
 385 0360 0050A0E1 		mov	r5, r0
ARM GAS  D:\DOCUME~1\VIKTOR~1\LOCALS~1\Temp/ccMbbaaa.s 			page 12


 386              	.LVL40:
 387 0364 030000EA 		b	.L58
 388              	.L59:
 389              		.loc 1 75 0
 390 0368 A4009FE5 		ldr	r0, .L72+8
 391 036c FEFFFFEB 		bl	bufferGetFromFront
 392              		.loc 1 76 0
 393 0370 0FE0A0E1 		mov	lr, pc
 394 0374 14FF2FE1 		bx	r4
 395              	.L58:
 396              		.loc 1 73 0
 397 0378 94009FE5 		ldr	r0, .L72+8
 398 037c FEFFFFEB 		bl	bufferIsNotFull
 399 0380 800060E2 		rsb	r0, r0, #128
 400 0384 000050E3 		cmp	r0, #0
 401 0388 F6FFFFCA 		bgt	.L59
 402              		.loc 1 78 0
 403 038c 0500A0E1 		mov	r0, r5
 404 0390 FEFFFFEB 		bl	processorRestoreInt
 405              		.loc 1 80 0
 406 0394 000056E3 		cmp	r6, #0
 407 0398 0D00001A 		bne	.L67
 408 039c 0E32A0E3 		mov	r3, #-536870912
 409 03a0 032983E2 		add	r2, r3, #49152
 410              	.L62:
 411              		.loc 1 82 0
 412 03a4 1430D2E5 		ldrb	r3, [r2, #20]	@ zero_extendqisi2
 413 03a8 400013E3 		tst	r3, #64
 414 03ac FCFFFF0A 		beq	.L62
 415              		.loc 1 83 0
 416 03b0 0E32A0E3 		mov	r3, #-536870912
 417 03b4 0A3983E2 		add	r3, r3, #163840
 418 03b8 1C2093E5 		ldr	r2, [r3, #28]
 419 03bc 012882E3 		orr	r2, r2, #65536
 420 03c0 1C2083E5 		str	r2, [r3, #28]
 421              		.loc 1 84 0
 422 03c4 142093E5 		ldr	r2, [r3, #20]
 423 03c8 022882E3 		orr	r2, r2, #131072
 424 03cc 142083E5 		str	r2, [r3, #20]
 425 03d0 0B0000EA 		b	.L64
 426              	.L67:
 427              		.loc 1 86 0
 428 03d4 0E22A0E3 		mov	r2, #-536870912
 429 03d8 013882E2 		add	r3, r2, #65536
 430 03dc 1430D3E5 		ldrb	r3, [r3, #20]	@ zero_extendqisi2
 431 03e0 400013E3 		tst	r3, #64
 432 03e4 FAFFFF0A 		beq	.L67
 433              		.loc 1 87 0
 434 03e8 0A3982E2 		add	r3, r2, #163840
 435 03ec 1C2093E5 		ldr	r2, [r3, #28]
 436 03f0 012782E3 		orr	r2, r2, #262144
 437 03f4 1C2083E5 		str	r2, [r3, #28]
 438              		.loc 1 88 0
 439 03f8 142093E5 		ldr	r2, [r3, #20]
 440 03fc 022782E3 		orr	r2, r2, #524288
 441 0400 142083E5 		str	r2, [r3, #20]
 442              	.L64:
ARM GAS  D:\DOCUME~1\VIKTOR~1\LOCALS~1\Temp/ccMbbaaa.s 			page 13


 443              		.loc 1 90 0
 444 0404 FEFFFFEB 		bl	cmd_Flush
 445              		.loc 1 91 0
 446 0408 7080BDE8 		ldmfd	sp!, {r4, r5, r6, pc}
 447              	.L73:
 448              		.align	2
 449              	.L72:
 450 040c 00000000 		.word	uart0SendByte
 451 0410 00000000 		.word	uart1SendByte
 452 0414 00000000 		.word	cmdBuffer
 453              	.LFE6:
 454              		.size	cmd_Execute, .-cmd_Execute
 455              		.align	2
 456              		.global	cmd_AddByteToEnd
 457              		.type	cmd_AddByteToEnd, %function
 458              	cmd_AddByteToEnd:
 459              	.LFB4:
 460              		.loc 1 51 0
 461              		@ args = 0, pretend = 0, frame = 0
 462              		@ frame_needed = 0, uses_anonymous_args = 0
 463              	.LVL41:
 464 0418 04E02DE5 		str	lr, [sp, #-4]!
 465              	.LCFI5:
 466 041c FF1000E2 		and	r1, r0, #255
 467              		.loc 1 52 0
 468 0420 04009FE5 		ldr	r0, .L76
 469              	.LVL42:
 470 0424 FEFFFFEB 		bl	bufferAddToEnd
 471              	.LVL43:
 472              		.loc 1 53 0
 473 0428 04F09DE4 		ldr	pc, [sp], #4
 474              	.L77:
 475              		.align	2
 476              	.L76:
 477 042c 00000000 		.word	cmdBuffer
 478              	.LFE4:
 479              		.size	cmd_AddByteToEnd, .-cmd_AddByteToEnd
 480              		.align	2
 481              		.global	cmd_BuildPacket
 482              		.type	cmd_BuildPacket, %function
 483              	cmd_BuildPacket:
 484              	.LFB7:
 485              		.loc 1 94 0
 486              		@ args = 4, pretend = 0, frame = 0
 487              		@ frame_needed = 0, uses_anonymous_args = 0
 488              	.LVL44:
 489 0430 F0412DE9 		stmfd	sp!, {r4, r5, r6, r7, r8, lr}
 490              	.LCFI6:
 491 0434 18809DE5 		ldr	r8, [sp, #24]
 492 0438 FF5000E2 		and	r5, r0, #255
 493 043c FF4001E2 		and	r4, r1, #255
 494 0440 FF6002E2 		and	r6, r2, #255
 495 0444 FF7003E2 		and	r7, r3, #255
 496              		.loc 1 96 0
 497 0448 FEFFFFEB 		bl	cmd_Flush
 498              	.LVL45:
 499              		.loc 1 97 0
ARM GAS  D:\DOCUME~1\VIKTOR~1\LOCALS~1\Temp/ccMbbaaa.s 			page 14


 500 044c FF00A0E3 		mov	r0, #255
 501 0450 FEFFFFEB 		bl	cmd_AddByteToEnd
 502              		.loc 1 98 0
 503 0454 0500A0E1 		mov	r0, r5
 504 0458 FEFFFFEB 		bl	cmd_AddByteToEnd
 505              		.loc 1 99 0
 506 045c 0400A0E1 		mov	r0, r4
 507 0460 FEFFFFEB 		bl	cmd_AddByteToEnd
 508              		.loc 1 100 0
 509 0464 0700A0E1 		mov	r0, r7
 510 0468 FEFFFFEB 		bl	cmd_AddByteToEnd
 511              		.loc 1 101 0
 512 046c 0600A0E1 		mov	r0, r6
 513 0470 FEFFFFEB 		bl	cmd_AddByteToEnd
 514              		.loc 1 104 0
 515 0474 064084E0 		add	r4, r4, r6
 516              	.LVL46:
 517              		.loc 1 105 0
 518 0478 074084E0 		add	r4, r4, r7
 519 047c FF4004E2 		and	r4, r4, #255
 520              	.LVL47:
 521              		.loc 1 107 0
 522 0480 000057E3 		cmp	r7, #0
 523 0484 0900000A 		beq	.L79
 524              	.LVL48:
 525 0488 0050A0E3 		mov	r5, #0
 526              	.LVL49:
 527              	.L81:
 528              		.loc 1 109 0
 529 048c 0800D5E7 		ldrb	r0, [r5, r8]	@ zero_extendqisi2
 530 0490 FEFFFFEB 		bl	cmd_AddByteToEnd
 531              		.loc 1 110 0
 532 0494 0830D5E7 		ldrb	r3, [r5, r8]	@ zero_extendqisi2
 533 0498 033084E0 		add	r3, r4, r3
 534 049c FF4003E2 		and	r4, r3, #255
 535              		.loc 1 107 0
 536 04a0 013085E2 		add	r3, r5, #1
 537 04a4 FF5003E2 		and	r5, r3, #255
 538 04a8 050057E1 		cmp	r7, r5
 539 04ac F6FFFF1A 		bne	.L81
 540              	.LVL50:
 541              	.L79:
 542              		.loc 1 112 0
 543 04b0 0400A0E1 		mov	r0, r4
 544 04b4 FEFFFFEB 		bl	cmd_AddByteToEnd
 545              		.loc 1 113 0
 546 04b8 F081BDE8 		ldmfd	sp!, {r4, r5, r6, r7, r8, pc}
 547              	.LFE7:
 548              		.size	cmd_BuildPacket, .-cmd_BuildPacket
 549              		.align	2
 550              		.global	cmd_Init
 551              		.type	cmd_Init, %function
 552              	cmd_Init:
 553              	.LFB3:
 554              		.loc 1 47 0
 555              		@ args = 0, pretend = 0, frame = 0
 556              		@ frame_needed = 0, uses_anonymous_args = 0
ARM GAS  D:\DOCUME~1\VIKTOR~1\LOCALS~1\Temp/ccMbbaaa.s 			page 15


 557 04bc 04E02DE5 		str	lr, [sp, #-4]!
 558              	.LCFI7:
 559              		.loc 1 48 0
 560 04c0 0C009FE5 		ldr	r0, .L86
 561 04c4 0C109FE5 		ldr	r1, .L86+4
 562 04c8 8020A0E3 		mov	r2, #128
 563 04cc FEFFFFEB 		bl	bufferInit
 564              		.loc 1 49 0
 565 04d0 04F09DE4 		ldr	pc, [sp], #4
 566              	.L87:
 567              		.align	2
 568              	.L86:
 569 04d4 00000000 		.word	cmdBuffer
 570 04d8 00000000 		.word	cmdBufferData
 571              	.LFE3:
 572              		.size	cmd_Init, .-cmd_Init
 573              		.align	2
 574              		.global	HD232_Init
 575              		.type	HD232_Init, %function
 576              	HD232_Init:
 577              	.LFB2:
 578              		.loc 1 12 0
 579              		@ args = 0, pretend = 0, frame = 0
 580              		@ frame_needed = 0, uses_anonymous_args = 0
 581 04dc 30402DE9 		stmfd	sp!, {r4, r5, lr}
 582              	.LCFI8:
 583              		.loc 1 13 0
 584 04e0 0400A0E3 		mov	r0, #4
 585 04e4 0310A0E3 		mov	r1, #3
 586 04e8 8120A0E3 		mov	r2, #129
 587 04ec FEFFFFEB 		bl	uart0Init
 588              		.loc 1 14 0
 589 04f0 0400A0E3 		mov	r0, #4
 590 04f4 0310A0E3 		mov	r1, #3
 591 04f8 8120A0E3 		mov	r2, #129
 592 04fc FEFFFFEB 		bl	uart1Init
 593              		.loc 1 18 0
 594 0500 0E22A0E3 		mov	r2, #-536870912
 595 0504 011882E2 		add	r1, r2, #65536
 596 0508 7F50E0E3 		mvn	r5, #127
 597 050c 0C50C1E5 		strb	r5, [r1, #12]
 598              		.loc 1 20 0
 599 0510 4140A0E3 		mov	r4, #65
 600 0514 2840C1E5 		strb	r4, [r1, #40]
 601              		.loc 1 21 0
 602 0518 09E0A0E3 		mov	lr, #9
 603 051c 00E0C1E5 		strb	lr, [r1, #0]
 604              		.loc 1 22 0
 605 0520 00C0A0E3 		mov	ip, #0
 606 0524 04C0C1E5 		strb	ip, [r1, #4]
 607              		.loc 1 23 0
 608 0528 0300A0E3 		mov	r0, #3
 609 052c 0C00C1E5 		strb	r0, [r1, #12]
 610              		.loc 1 27 0
 611 0530 033982E2 		add	r3, r2, #49152
 612 0534 0C50C3E5 		strb	r5, [r3, #12]
 613              		.loc 1 29 0
ARM GAS  D:\DOCUME~1\VIKTOR~1\LOCALS~1\Temp/ccMbbaaa.s 			page 16


 614 0538 2840C1E5 		strb	r4, [r1, #40]
 615              		.loc 1 30 0
 616 053c 00E0C3E5 		strb	lr, [r3, #0]
 617              		.loc 1 31 0
 618 0540 04C0C3E5 		strb	ip, [r3, #4]
 619              		.loc 1 32 0
 620 0544 0C00C3E5 		strb	r0, [r3, #12]
 621              		.loc 1 35 0
 622 0548 0A2982E2 		add	r2, r2, #163840
 623 054c 183092E5 		ldr	r3, [r2, #24]
 624 0550 013883E3 		orr	r3, r3, #65536
 625 0554 183082E5 		str	r3, [r2, #24]
 626              		.loc 1 36 0
 627 0558 1C3092E5 		ldr	r3, [r2, #28]
 628 055c 013883E3 		orr	r3, r3, #65536
 629 0560 1C3082E5 		str	r3, [r2, #28]
 630              		.loc 1 37 0
 631 0564 183092E5 		ldr	r3, [r2, #24]
 632 0568 023883E3 		orr	r3, r3, #131072
 633 056c 183082E5 		str	r3, [r2, #24]
 634              		.loc 1 38 0
 635 0570 1C3092E5 		ldr	r3, [r2, #28]
 636 0574 023883E3 		orr	r3, r3, #131072
 637 0578 1C3082E5 		str	r3, [r2, #28]
 638              		.loc 1 41 0
 639 057c 183092E5 		ldr	r3, [r2, #24]
 640 0580 013783E3 		orr	r3, r3, #262144
 641 0584 183082E5 		str	r3, [r2, #24]
 642              		.loc 1 42 0
 643 0588 1C3092E5 		ldr	r3, [r2, #28]
 644 058c 013783E3 		orr	r3, r3, #262144
 645 0590 1C3082E5 		str	r3, [r2, #28]
 646              		.loc 1 43 0
 647 0594 183092E5 		ldr	r3, [r2, #24]
 648 0598 023783E3 		orr	r3, r3, #524288
 649 059c 183082E5 		str	r3, [r2, #24]
 650              		.loc 1 44 0
 651 05a0 1C3092E5 		ldr	r3, [r2, #28]
 652 05a4 023783E3 		orr	r3, r3, #524288
 653 05a8 1C3082E5 		str	r3, [r2, #28]
 654              		.loc 1 45 0
 655 05ac 3080BDE8 		ldmfd	sp!, {r4, r5, pc}
 656              	.LFE2:
 657              		.size	HD232_Init, .-HD232_Init
 658              		.comm	cmdBufferData,128,1
 659              		.comm	cmdBuffer,12,4
 660              		.comm	int_busRxPkt,132,4
 661              		.comm	ext_busRxPkt,132,4
 662              		.section	.debug_frame,"",%progbits
 663              	.Lframe0:
 664 0000 0C000000 		.4byte	.LECIE0-.LSCIE0
 665              	.LSCIE0:
 666 0004 FFFFFFFF 		.4byte	0xffffffff
 667 0008 01       		.byte	0x1
 668 0009 00       		.ascii	"\000"
 669 000a 01       		.uleb128 0x1
 670 000b 7C       		.sleb128 -4
ARM GAS  D:\DOCUME~1\VIKTOR~1\LOCALS~1\Temp/ccMbbaaa.s 			page 17


 671 000c 0E       		.byte	0xe
 672 000d 0C       		.byte	0xc
 673 000e 0D       		.uleb128 0xd
 674 000f 00       		.uleb128 0x0
 675              		.align	2
 676              	.LECIE0:
 677              	.LSFDE0:
 678 0010 18000000 		.4byte	.LEFDE0-.LASFDE0
 679              	.LASFDE0:
 680 0014 00000000 		.4byte	.Lframe0
 681 0018 00000000 		.4byte	.LFB9
 682 001c 50000000 		.4byte	.LFE9-.LFB9
 683 0020 44       		.byte	0x4
 684              		.4byte	.LCFI0-.LFB9
 685 0021 0E       		.byte	0xe
 686 0022 0C       		.uleb128 0xc
 687 0023 8E       		.byte	0x8e
 688 0024 01       		.uleb128 0x1
 689 0025 85       		.byte	0x85
 690 0026 02       		.uleb128 0x2
 691 0027 84       		.byte	0x84
 692 0028 03       		.uleb128 0x3
 693 0029 000000   		.align	2
 694              	.LEFDE0:
 695              	.LSFDE2:
 696 002c 24000000 		.4byte	.LEFDE2-.LASFDE2
 697              	.LASFDE2:
 698 0030 00000000 		.4byte	.Lframe0
 699 0034 50000000 		.4byte	.LFB8
 700 0038 9C020000 		.4byte	.LFE8-.LFB8
 701 003c 44       		.byte	0x4
 702              		.4byte	.LCFI1-.LFB8
 703 003d 0E       		.byte	0xe
 704 003e 24       		.uleb128 0x24
 705 003f 44       		.byte	0x4
 706              		.4byte	.LCFI2-.LCFI1
 707 0040 0E       		.byte	0xe
 708 0041 28       		.uleb128 0x28
 709 0042 8E       		.byte	0x8e
 710 0043 01       		.uleb128 0x1
 711 0044 8B       		.byte	0x8b
 712 0045 02       		.uleb128 0x2
 713 0046 8A       		.byte	0x8a
 714 0047 03       		.uleb128 0x3
 715 0048 89       		.byte	0x89
 716 0049 04       		.uleb128 0x4
 717 004a 88       		.byte	0x88
 718 004b 05       		.uleb128 0x5
 719 004c 87       		.byte	0x87
 720 004d 06       		.uleb128 0x6
 721 004e 86       		.byte	0x86
 722 004f 07       		.uleb128 0x7
 723 0050 85       		.byte	0x85
 724 0051 08       		.uleb128 0x8
 725 0052 84       		.byte	0x84
 726 0053 09       		.uleb128 0x9
 727              		.align	2
ARM GAS  D:\DOCUME~1\VIKTOR~1\LOCALS~1\Temp/ccMbbaaa.s 			page 18


 728              	.LEFDE2:
 729              	.LSFDE4:
 730 0054 14000000 		.4byte	.LEFDE4-.LASFDE4
 731              	.LASFDE4:
 732 0058 00000000 		.4byte	.Lframe0
 733 005c EC020000 		.4byte	.LFB5
 734 0060 14000000 		.4byte	.LFE5-.LFB5
 735 0064 44       		.byte	0x4
 736              		.4byte	.LCFI3-.LFB5
 737 0065 0E       		.byte	0xe
 738 0066 04       		.uleb128 0x4
 739 0067 8E       		.byte	0x8e
 740 0068 01       		.uleb128 0x1
 741 0069 000000   		.align	2
 742              	.LEFDE4:
 743              	.LSFDE6:
 744 006c 18000000 		.4byte	.LEFDE6-.LASFDE6
 745              	.LASFDE6:
 746 0070 00000000 		.4byte	.Lframe0
 747 0074 00030000 		.4byte	.LFB6
 748 0078 18010000 		.4byte	.LFE6-.LFB6
 749 007c 44       		.byte	0x4
 750              		.4byte	.LCFI4-.LFB6
 751 007d 0E       		.byte	0xe
 752 007e 10       		.uleb128 0x10
 753 007f 8E       		.byte	0x8e
 754 0080 01       		.uleb128 0x1
 755 0081 86       		.byte	0x86
 756 0082 02       		.uleb128 0x2
 757 0083 85       		.byte	0x85
 758 0084 03       		.uleb128 0x3
 759 0085 84       		.byte	0x84
 760 0086 04       		.uleb128 0x4
 761 0087 00       		.align	2
 762              	.LEFDE6:
 763              	.LSFDE8:
 764 0088 14000000 		.4byte	.LEFDE8-.LASFDE8
 765              	.LASFDE8:
 766 008c 00000000 		.4byte	.Lframe0
 767 0090 18040000 		.4byte	.LFB4
 768 0094 18000000 		.4byte	.LFE4-.LFB4
 769 0098 44       		.byte	0x4
 770              		.4byte	.LCFI5-.LFB4
 771 0099 0E       		.byte	0xe
 772 009a 04       		.uleb128 0x4
 773 009b 8E       		.byte	0x8e
 774 009c 01       		.uleb128 0x1
 775 009d 000000   		.align	2
 776              	.LEFDE8:
 777              	.LSFDE10:
 778 00a0 1C000000 		.4byte	.LEFDE10-.LASFDE10
 779              	.LASFDE10:
 780 00a4 00000000 		.4byte	.Lframe0
 781 00a8 30040000 		.4byte	.LFB7
 782 00ac 8C000000 		.4byte	.LFE7-.LFB7
 783 00b0 44       		.byte	0x4
 784              		.4byte	.LCFI6-.LFB7
ARM GAS  D:\DOCUME~1\VIKTOR~1\LOCALS~1\Temp/ccMbbaaa.s 			page 19


 785 00b1 0E       		.byte	0xe
 786 00b2 18       		.uleb128 0x18
 787 00b3 8E       		.byte	0x8e
 788 00b4 01       		.uleb128 0x1
 789 00b5 88       		.byte	0x88
 790 00b6 02       		.uleb128 0x2
 791 00b7 87       		.byte	0x87
 792 00b8 03       		.uleb128 0x3
 793 00b9 86       		.byte	0x86
 794 00ba 04       		.uleb128 0x4
 795 00bb 85       		.byte	0x85
 796 00bc 05       		.uleb128 0x5
 797 00bd 84       		.byte	0x84
 798 00be 06       		.uleb128 0x6
 799 00bf 00       		.align	2
 800              	.LEFDE10:
 801              	.LSFDE12:
 802 00c0 14000000 		.4byte	.LEFDE12-.LASFDE12
 803              	.LASFDE12:
 804 00c4 00000000 		.4byte	.Lframe0
 805 00c8 BC040000 		.4byte	.LFB3
 806 00cc 20000000 		.4byte	.LFE3-.LFB3
 807 00d0 44       		.byte	0x4
 808              		.4byte	.LCFI7-.LFB3
 809 00d1 0E       		.byte	0xe
 810 00d2 04       		.uleb128 0x4
 811 00d3 8E       		.byte	0x8e
 812 00d4 01       		.uleb128 0x1
 813 00d5 000000   		.align	2
 814              	.LEFDE12:
 815              	.LSFDE14:
 816 00d8 18000000 		.4byte	.LEFDE14-.LASFDE14
 817              	.LASFDE14:
 818 00dc 00000000 		.4byte	.Lframe0
 819 00e0 DC040000 		.4byte	.LFB2
 820 00e4 D4000000 		.4byte	.LFE2-.LFB2
 821 00e8 44       		.byte	0x4
 822              		.4byte	.LCFI8-.LFB2
 823 00e9 0E       		.byte	0xe
 824 00ea 0C       		.uleb128 0xc
 825 00eb 8E       		.byte	0x8e
 826 00ec 01       		.uleb128 0x1
 827 00ed 85       		.byte	0x85
 828 00ee 02       		.uleb128 0x2
 829 00ef 84       		.byte	0x84
 830 00f0 03       		.uleb128 0x3
 831 00f1 000000   		.align	2
 832              	.LEFDE14:
 833              		.file 2 "D:\\WinARM\\armlib/armlibtypes.h"
 834              		.file 3 "D:\\WinARM\\armlib/buffer.h"
 835              		.file 4 "molecubePacket.h"
 836              		.text
 837              	.Letext0: