ARM GAS  D:\DOCUME~1\VIKTOR~1\LOCALS~1\Temp/ccAzaaaa.s 			page 1


   1              		.file	"usb.c"
   8 0000 C5000000 		.text
   8      02005900 
   8      00000201 
   8      FB0E0D00 
   8      01010101 
   9              	.Ltext0:
  10              		.align	2
  11              		.type	USBIntHandler, %function
  12              	USBIntHandler:
  13              	.LFB8:
  14              		.file 1 "usb.c"
   1:usb.c         **** #include "global.h"			// include our global project settings
   2:usb.c         **** #include "processor.h"		// include processor initialization functions
   3:usb.c         **** #include "lpc2000.h"		// include LPC210x defines
   4:usb.c         **** #include "buffer.h"
   5:usb.c         **** #include "usb.h"
   6:usb.c         **** 
   7:usb.c         **** static unsigned char uartRxData[UART_RX_BUFFER_SIZE];
   8:usb.c         **** static unsigned char uartTxData[UART_TX_BUFFER_SIZE];
   9:usb.c         **** cBuffer uartRxBuffer;				///< uart receive buffer
  10:usb.c         **** cBuffer uartTxBuffer;				///< uart transmit buffer
  11:usb.c         **** unsigned short uartRxOverflow;		///< receive overflow counter
  12:usb.c         **** 
  13:usb.c         **** 
  14:usb.c         **** // data structure for GET_LINE_CODING / SET_LINE_CODING class requests
  15:usb.c         **** typedef struct {
  16:usb.c         **** 	U32		dwDTERate;
  17:usb.c         **** 	U8		bCharFormat;
  18:usb.c         **** 	U8		bParityType;
  19:usb.c         **** 	U8		bDataBits;
  20:usb.c         **** } TLineCoding;
  21:usb.c         **** 
  22:usb.c         **** //static TLineCoding LineCoding = {115200, 0, 0, 8};
  23:usb.c         **** static TLineCoding LineCoding = {1000000, 0, 0, 8};
  24:usb.c         **** static U8 abBulkBuf[64];
  25:usb.c         **** static U8 abClassReqData[8];
  26:usb.c         **** 
  27:usb.c         **** // forward declaration of interrupt handler
  28:usb.c         **** static void USBIntHandler(void) __attribute__ ((interrupt("IRQ")));
  29:usb.c         **** 
  30:usb.c         **** 
  31:usb.c         **** static const U8 abDescriptors[] = {
  32:usb.c         **** 
  33:usb.c         **** // device descriptor
  34:usb.c         **** 	0x12,
  35:usb.c         **** 	DESC_DEVICE,
  36:usb.c         **** 	LE_WORD(0x0101),			// bcdUSB
  37:usb.c         **** 	0x02,						// bDeviceClass
  38:usb.c         **** 	0x00,						// bDeviceSubClass
  39:usb.c         **** 	0x00,						// bDeviceProtocol
ARM GAS  D:\DOCUME~1\VIKTOR~1\LOCALS~1\Temp/ccAzaaaa.s 			page 2


  40:usb.c         **** 	MAX_PACKET_SIZE0,			// bMaxPacketSize
  41:usb.c         **** 	LE_WORD(0xFFFF),			// idVendor
  42:usb.c         **** 	LE_WORD(0x0005),			// idProduct
  43:usb.c         **** 	LE_WORD(0x0100),			// bcdDevice
  44:usb.c         **** 	0x01,						// iManufacturer
  45:usb.c         **** 	0x02,						// iProduct
  46:usb.c         **** 	0x03,						// iSerialNumber
  47:usb.c         **** 	0x01,						// bNumConfigurations
  48:usb.c         **** 
  49:usb.c         **** // configuration descriptor
  50:usb.c         **** 	0x09,
  51:usb.c         **** 	DESC_CONFIGURATION,
  52:usb.c         **** 	LE_WORD(67),				// wTotalLength
  53:usb.c         **** 	0x02,						// bNumInterfaces
  54:usb.c         **** 	0x01,						// bConfigurationValue
  55:usb.c         **** 	0x00,						// iConfiguration
  56:usb.c         **** 	0xC0,						// bmAttributes
  57:usb.c         **** 	0x32,						// bMaxPower
  58:usb.c         **** // control class interface
  59:usb.c         **** 	0x09,
  60:usb.c         **** 	DESC_INTERFACE,
  61:usb.c         **** 	0x00,						// bInterfaceNumber
  62:usb.c         **** 	0x00,						// bAlternateSetting
  63:usb.c         **** 	0x01,						// bNumEndPoints
  64:usb.c         **** 	0x02,						// bInterfaceClass
  65:usb.c         **** 	0x02,						// bInterfaceSubClass
  66:usb.c         **** 	0x01,						// bInterfaceProtocol, linux requires value of 1 for the cdc_acm module
  67:usb.c         **** 	0x00,						// iInterface
  68:usb.c         **** // header functional descriptor
  69:usb.c         **** 	0x05,
  70:usb.c         **** 	CS_INTERFACE,
  71:usb.c         **** 	0x00,
  72:usb.c         **** 	LE_WORD(0x0110),
  73:usb.c         **** // call management functional descriptor
  74:usb.c         **** 	0x05,
  75:usb.c         **** 	CS_INTERFACE,
  76:usb.c         **** 	0x01,
  77:usb.c         **** 	0x01,						// bmCapabilities = device handles call management
  78:usb.c         **** 	0x01,						// bDataInterface
  79:usb.c         **** // ACM functional descriptor
  80:usb.c         **** 	0x04,
  81:usb.c         **** 	CS_INTERFACE,
  82:usb.c         **** 	0x02,
  83:usb.c         **** 	0x02,						// bmCapabilities
  84:usb.c         **** // union functional descriptor
  85:usb.c         **** 	0x05,
  86:usb.c         **** 	CS_INTERFACE,
  87:usb.c         **** 	0x06,
  88:usb.c         **** 	0x00,						// bMasterInterface
  89:usb.c         **** 	0x01,						// bSlaveInterface0
  90:usb.c         **** // notification EP
  91:usb.c         **** 	0x07,
  92:usb.c         **** 	DESC_ENDPOINT,
  93:usb.c         **** 	INT_IN_EP,					// bEndpointAddress
  94:usb.c         **** 	0x03,						// bmAttributes = intr
  95:usb.c         **** 	LE_WORD(8),					// wMaxPacketSize
  96:usb.c         **** 	0x0A,						// bInterval
ARM GAS  D:\DOCUME~1\VIKTOR~1\LOCALS~1\Temp/ccAzaaaa.s 			page 3


  97:usb.c         **** // data class interface descriptor
  98:usb.c         **** 	0x09,
  99:usb.c         **** 	DESC_INTERFACE,
 100:usb.c         **** 	0x01,						// bInterfaceNumber
 101:usb.c         **** 	0x00,						// bAlternateSetting
 102:usb.c         **** 	0x02,						// bNumEndPoints
 103:usb.c         **** 	0x0A,						// bInterfaceClass = data
 104:usb.c         **** 	0x00,						// bInterfaceSubClass
 105:usb.c         **** 	0x00,						// bInterfaceProtocol
 106:usb.c         **** 	0x00,						// iInterface
 107:usb.c         **** // data EP OUT
 108:usb.c         **** 	0x07,
 109:usb.c         **** 	DESC_ENDPOINT,
 110:usb.c         **** 	BULK_OUT_EP,				// bEndpointAddress
 111:usb.c         **** 	0x02,						// bmAttributes = bulk
 112:usb.c         **** 	LE_WORD(MAX_PACKET_SIZE),	// wMaxPacketSize
 113:usb.c         **** 	0x00,						// bInterval
 114:usb.c         **** // data EP in
 115:usb.c         **** 	0x07,
 116:usb.c         **** 	DESC_ENDPOINT,
 117:usb.c         **** 	BULK_IN_EP,					// bEndpointAddress
 118:usb.c         **** 	0x02,						// bmAttributes = bulk
 119:usb.c         **** 	LE_WORD(MAX_PACKET_SIZE),	// wMaxPacketSize
 120:usb.c         **** 	0x00,						// bInterval
 121:usb.c         **** 	
 122:usb.c         **** 	// string descriptors
 123:usb.c         **** 	0x04,
 124:usb.c         **** 	DESC_STRING,
 125:usb.c         **** 	LE_WORD(0x0409),
 126:usb.c         **** 
 127:usb.c         **** 	0x0E,
 128:usb.c         **** 	DESC_STRING,
 129:usb.c         **** 	'L', 0, 'P', 0, 'C', 0, 'U', 0, 'S', 0, 'B', 0,
 130:usb.c         **** 
 131:usb.c         **** 	0x14,
 132:usb.c         **** 	DESC_STRING,
 133:usb.c         **** 	'U', 0, 'S', 0, 'B', 0, 'S', 0, 'e', 0, 'r', 0, 'i', 0, 'a', 0, 'l', 0,
 134:usb.c         **** 
 135:usb.c         **** 	0x12,
 136:usb.c         **** 	DESC_STRING,
 137:usb.c         **** 	'D', 0, 'E', 0, 'A', 0, 'D', 0, 'C', 0, '0', 0, 'D', 0, 'E', 0,
 138:usb.c         **** 
 139:usb.c         **** // terminating zero
 140:usb.c         **** 	0
 141:usb.c         **** };
 142:usb.c         **** 
 143:usb.c         **** 
 144:usb.c         **** /**
 145:usb.c         **** 	Local function to handle incoming bulk data
 146:usb.c         **** 		
 147:usb.c         **** 	@param [in] bEP
 148:usb.c         **** 	@param [in] bEPStatus
 149:usb.c         ****  */
 150:usb.c         **** static void BulkOut(U8 bEP, U8 bEPStatus)
 151:usb.c         **** {
 152:usb.c         **** 	int i, iLen;
 153:usb.c         **** 
ARM GAS  D:\DOCUME~1\VIKTOR~1\LOCALS~1\Temp/ccAzaaaa.s 			page 4


 154:usb.c         **** 	
 155:usb.c         **** 	//if (fifo_free(&rxfifo) < MAX_PACKET_SIZE) {
 156:usb.c         **** 	if (bufferIsNotFull(&uartRxBuffer) < MAX_PACKET_SIZE) {
 157:usb.c         **** 		// may not fit into fifo
 158:usb.c         **** 		return;
 159:usb.c         **** 	}
 160:usb.c         **** 
 161:usb.c         **** 	// get data from USB into intermediate buffer
 162:usb.c         **** 	iLen = USBHwEPRead(bEP, abBulkBuf, sizeof(abBulkBuf));
 163:usb.c         **** 	for (i = 0; i < iLen; i++) {
 164:usb.c         **** 		// put into FIFO
 165:usb.c         **** 		//if (!fifo_put(&rxfifo, abBulkBuf[i])) {
 166:usb.c         **** 		if(!bufferAddToEnd(&uartRxBuffer, abBulkBuf[i])) {	
 167:usb.c         **** 			// overflow... :(
 168:usb.c         **** 			//ASSERT(FALSE);
 169:usb.c         **** 			break;
 170:usb.c         **** 		}
 171:usb.c         **** 	}
 172:usb.c         **** }
 173:usb.c         **** 
 174:usb.c         **** 
 175:usb.c         **** /**
 176:usb.c         **** 	Local function to handle outgoing bulk data
 177:usb.c         **** 		
 178:usb.c         **** 	@param [in] bEP
 179:usb.c         **** 	@param [in] bEPStatus
 180:usb.c         ****  */
 181:usb.c         **** static void BulkIn(U8 bEP, U8 bEPStatus)
 182:usb.c         **** {
 183:usb.c         **** 	int i, iLen;
 184:usb.c         **** 	unsigned char c;
 185:usb.c         **** 
 186:usb.c         **** 	//if (fifo_avail(&txfifo) == 0) {
 187:usb.c         **** 	if (!bufferIsNotFull(&uartTxBuffer)) {
 188:usb.c         **** 		// no more data, disable further NAK interrupts until next USB frame
 189:usb.c         **** 		USBHwNakIntEnable(0);
 190:usb.c         **** 		return;
 191:usb.c         **** 	}
 192:usb.c         **** 
 193:usb.c         **** 	// get bytes from transmit FIFO into intermediate buffer
 194:usb.c         **** 	for (i = 0; i < MAX_PACKET_SIZE; i++) {
 195:usb.c         **** 		c = bufferGetFromFront(&uartTxBuffer);
 196:usb.c         **** 		if(!c) {
 197:usb.c         **** 		//if (!fifo_get(&txfifo, &abBulkBuf[i])) {
 198:usb.c         **** 			break;
 199:usb.c         **** 		} else {
 200:usb.c         **** 			abBulkBuf[i] = c;
 201:usb.c         **** 		}
 202:usb.c         **** 	}
 203:usb.c         **** 	iLen = i;
 204:usb.c         **** 	
 205:usb.c         **** 	// send over USB
 206:usb.c         **** 	if (iLen > 0) {
 207:usb.c         **** 		USBHwEPWrite(bEP, abBulkBuf, iLen);
 208:usb.c         **** 	}
 209:usb.c         **** }
 210:usb.c         **** 
ARM GAS  D:\DOCUME~1\VIKTOR~1\LOCALS~1\Temp/ccAzaaaa.s 			page 5


 211:usb.c         **** 
 212:usb.c         **** /**
 213:usb.c         **** 	Local function to handle the USB-CDC class requests
 214:usb.c         **** 		
 215:usb.c         **** 	@param [in] pSetup
 216:usb.c         **** 	@param [out] piLen
 217:usb.c         **** 	@param [out] ppbData
 218:usb.c         ****  */
 219:usb.c         **** static BOOL HandleClassRequest(TSetupPacket *pSetup, int *piLen, U8 **ppbData)
 220:usb.c         **** {
 221:usb.c         **** 	switch (pSetup->bRequest) {
 222:usb.c         **** 
 223:usb.c         **** 	// set line coding
 224:usb.c         **** 	case SET_LINE_CODING:
 225:usb.c         **** //DBG("SET_LINE_CODING\n");
 226:usb.c         **** 		memcpy((U8 *)&LineCoding, *ppbData, 7);
 227:usb.c         **** 		*piLen = 7;
 228:usb.c         **** //DBG("dwDTERate=%u, bCharFormat=%u, bParityType=%u, bDataBits=%u\n",
 229:usb.c         **** //	LineCoding.dwDTERate,
 230:usb.c         **** //	LineCoding.bCharFormat,
 231:usb.c         **** //	LineCoding.bParityType,
 232:usb.c         **** //	LineCoding.bDataBits);
 233:usb.c         **** 		break;
 234:usb.c         **** 
 235:usb.c         **** 	// get line coding
 236:usb.c         **** 	case GET_LINE_CODING:
 237:usb.c         **** //DBG("GET_LINE_CODING\n");
 238:usb.c         **** 		*ppbData = (U8 *)&LineCoding;
 239:usb.c         **** 		*piLen = 7;
 240:usb.c         **** 		break;
 241:usb.c         **** 
 242:usb.c         **** 	// set control line state
 243:usb.c         **** 	case SET_CONTROL_LINE_STATE:
 244:usb.c         **** 		// bit0 = DTR, bit = RTS
 245:usb.c         **** //DBG("SET_CONTROL_LINE_STATE %X\n", pSetup->wValue);
 246:usb.c         **** 		break;
 247:usb.c         **** 
 248:usb.c         **** 	default:
 249:usb.c         **** 		return FALSE;
 250:usb.c         **** 	}
 251:usb.c         **** 	return TRUE;
 252:usb.c         **** }
 253:usb.c         **** 
 254:usb.c         **** 
 255:usb.c         **** /**
 256:usb.c         **** 	Initialises the VCOM port.
 257:usb.c         **** 	Call this function before using VCOM_putchar or VCOM_getchar
 258:usb.c         ****  */
 259:usb.c         **** void VCOM_init(void)
 260:usb.c         **** {
 261:usb.c         **** 	//fifo_init(&txfifo, txdata);
 262:usb.c         **** 	//fifo_init(&rxfifo, rxdata);
 263:usb.c         **** 	bufferInit(&uartTxBuffer, uartTxData, UART_TX_BUFFER_SIZE);
 264:usb.c         **** 	bufferInit(&uartRxBuffer, uartRxData, UART_RX_BUFFER_SIZE);
 265:usb.c         **** }
 266:usb.c         **** 
 267:usb.c         **** 
ARM GAS  D:\DOCUME~1\VIKTOR~1\LOCALS~1\Temp/ccAzaaaa.s 			page 6


 268:usb.c         **** /**
 269:usb.c         **** 	Writes one character to VCOM port
 270:usb.c         **** 	
 271:usb.c         **** 	@param [in] c character to write
 272:usb.c         **** 	@returns character written, or EOF if character could not be written
 273:usb.c         ****  */
 274:usb.c         **** int VCOM_putchar(int c)
 275:usb.c         **** {
 276:usb.c         **** 	//return fifo_put(&txfifo, c) ? c : EOF;
 277:usb.c         **** 	return bufferAddToEnd(&uartTxBuffer, c) ? c : EOF;
 278:usb.c         **** }
 279:usb.c         **** 
 280:usb.c         **** 
 281:usb.c         **** /**
 282:usb.c         **** 	Reads one character from VCOM port
 283:usb.c         **** 	
 284:usb.c         **** 	@returns character read, or EOF if character could not be read
 285:usb.c         ****  */
 286:usb.c         **** int VCOM_getchar(void)
 287:usb.c         **** {
 288:usb.c         **** 	U8 c;
 289:usb.c         **** 	c = bufferGetFromFront(&uartRxBuffer);
 290:usb.c         **** 	//return fifo_get(&rxfifo, &c) ? c : EOF;
 291:usb.c         **** 	return c ? c : EOF;
 292:usb.c         **** }
 293:usb.c         **** 
 294:usb.c         **** 
 295:usb.c         **** /**
 296:usb.c         **** 	Interrupt handler
 297:usb.c         **** 	
 298:usb.c         **** 	Simply calls the USB ISR, then signals end of interrupt to VIC
 299:usb.c         ****  */
 300:usb.c         **** static void USBIntHandler(void)
 301:usb.c         **** {
  15              		.loc 1 301 0
  16              		@ Interrupt Service Routine.
  17              		@ args = 0, pretend = 0, frame = 0
  18              		@ frame_needed = 0, uses_anonymous_args = 0
  19 0000 04E04EE2 		sub	lr, lr, #4
  20 0004 0F502DE9 		stmfd	sp!, {r0, r1, r2, r3, ip, lr}
  21              	.LCFI0:
 302:usb.c         **** 	USBHwISR();
  22              		.loc 1 302 0
  23 0008 FEFFFFEB 		bl	USBHwISR
 303:usb.c         **** 	VICVectAddr = 0x00;    // dummy write to VIC to signal end of ISR 	
  24              		.loc 1 303 0
  25 000c 0020A0E3 		mov	r2, #0
  26 0010 0F3CE0E3 		mvn	r3, #3840
  27 0014 CF2003E5 		str	r2, [r3, #-207]
 304:usb.c         **** }
  28              		.loc 1 304 0
  29 0018 0F90FDE8 		ldmfd	sp!, {r0, r1, r2, r3, ip, pc}^
  30              	.LFE8:
  31              		.size	USBIntHandler, .-USBIntHandler
  32              		.align	2
  33              		.type	USBFrameHandler, %function
  34              	USBFrameHandler:
ARM GAS  D:\DOCUME~1\VIKTOR~1\LOCALS~1\Temp/ccAzaaaa.s 			page 7


  35              	.LFB9:
 305:usb.c         **** 
 306:usb.c         **** 
 307:usb.c         **** static void USBFrameHandler(U16 wFrame)
 308:usb.c         **** {
  36              		.loc 1 308 0
  37              		@ args = 0, pretend = 0, frame = 0
  38              		@ frame_needed = 0, uses_anonymous_args = 0
  39              	.LVL0:
  40 001c 04E02DE5 		str	lr, [sp, #-4]!
  41              	.LCFI1:
 309:usb.c         **** 	//if (fifo_avail(&txfifo) > 0) {
 310:usb.c         **** 	if (bufferIsNotFull(&uartTxBuffer)) {
  42              		.loc 1 310 0
  43 0020 14009FE5 		ldr	r0, .L7
  44              	.LVL1:
  45 0024 FEFFFFEB 		bl	bufferIsNotFull
  46 0028 000050E3 		cmp	r0, #0
  47 002c 04F09D04 		ldreq	pc, [sp], #4
 311:usb.c         **** 		// data available, enable NAK interrupt on bulk in
 312:usb.c         **** 		USBHwNakIntEnable(INACK_BI);
  48              		.loc 1 312 0
  49 0030 2000A0E3 		mov	r0, #32
  50 0034 FEFFFFEB 		bl	USBHwNakIntEnable
  51 0038 04F09DE4 		ldr	pc, [sp], #4
  52              	.L8:
  53              		.align	2
  54              	.L7:
  55 003c 00000000 		.word	uartTxBuffer
  56              	.LFE9:
  57              		.size	USBFrameHandler, .-USBFrameHandler
  58              		.align	2
  59              		.global	VCOM_putchar
  60              		.type	VCOM_putchar, %function
  61              	VCOM_putchar:
  62              	.LFB6:
  63              		.loc 1 275 0
  64              		@ args = 0, pretend = 0, frame = 0
  65              		@ frame_needed = 0, uses_anonymous_args = 0
  66              	.LVL2:
  67 0040 10402DE9 		stmfd	sp!, {r4, lr}
  68              	.LCFI2:
  69 0044 0040A0E1 		mov	r4, r0
  70              		.loc 1 277 0
  71 0048 FF1000E2 		and	r1, r0, #255
  72 004c 10009FE5 		ldr	r0, .L13
  73              	.LVL3:
  74 0050 FEFFFFEB 		bl	bufferAddToEnd
  75 0054 000050E3 		cmp	r0, #0
  76              		.loc 1 278 0
  77 0058 0400A011 		movne	r0, r4
  78 005c 0000E003 		mvneq	r0, #0
  79 0060 1080BDE8 		ldmfd	sp!, {r4, pc}
  80              	.L14:
  81              		.align	2
  82              	.L13:
  83 0064 00000000 		.word	uartTxBuffer
ARM GAS  D:\DOCUME~1\VIKTOR~1\LOCALS~1\Temp/ccAzaaaa.s 			page 8


  84              	.LFE6:
  85              		.size	VCOM_putchar, .-VCOM_putchar
  86              		.align	2
  87              		.type	BulkOut, %function
  88              	BulkOut:
  89              	.LFB2:
  90              		.loc 1 151 0
  91              		@ args = 0, pretend = 0, frame = 0
  92              		@ frame_needed = 0, uses_anonymous_args = 0
  93              	.LVL4:
  94 0068 70402DE9 		stmfd	sp!, {r4, r5, r6, lr}
  95              	.LCFI3:
  96 006c FF4000E2 		and	r4, r0, #255
  97              		.loc 1 156 0
  98 0070 4C009FE5 		ldr	r0, .L23
  99              	.LVL5:
 100 0074 FEFFFFEB 		bl	bufferIsNotFull
 101              	.LVL6:
 102 0078 3F0050E3 		cmp	r0, #63
 103 007c 7080BD98 		ldmlsfd	sp!, {r4, r5, r6, pc}
 104              		.loc 1 162 0
 105 0080 0400A0E1 		mov	r0, r4
 106 0084 3C109FE5 		ldr	r1, .L23+4
 107 0088 4020A0E3 		mov	r2, #64
 108 008c FEFFFFEB 		bl	USBHwEPRead
 109              		.loc 1 163 0
 110 0090 005050E2 		subs	r5, r0, #0
 111              	.LVL7:
 112 0094 7080BDD8 		ldmlefd	sp!, {r4, r5, r6, pc}
 113 0098 0040A0E3 		mov	r4, #0
 114              	.LVL8:
 115 009c 24609FE5 		ldr	r6, .L23+4
 116              	.L19:
 117              		.loc 1 166 0
 118 00a0 1C009FE5 		ldr	r0, .L23
 119 00a4 0610D4E7 		ldrb	r1, [r4, r6]	@ zero_extendqisi2
 120 00a8 FEFFFFEB 		bl	bufferAddToEnd
 121 00ac 000050E3 		cmp	r0, #0
 122 00b0 7080BD08 		ldmeqfd	sp!, {r4, r5, r6, pc}
 123              		.loc 1 163 0
 124 00b4 014084E2 		add	r4, r4, #1
 125 00b8 040055E1 		cmp	r5, r4
 126 00bc F7FFFF1A 		bne	.L19
 127 00c0 7080BDE8 		ldmfd	sp!, {r4, r5, r6, pc}
 128              	.L24:
 129              		.align	2
 130              	.L23:
 131 00c4 00000000 		.word	uartRxBuffer
 132 00c8 00010000 		.word	abBulkBuf
 133              	.LFE2:
 134              		.size	BulkOut, .-BulkOut
 135              		.align	2
 136              		.global	VCOM_getchar
 137              		.type	VCOM_getchar, %function
 138              	VCOM_getchar:
 139              	.LFB7:
 140              		.loc 1 287 0
ARM GAS  D:\DOCUME~1\VIKTOR~1\LOCALS~1\Temp/ccAzaaaa.s 			page 9


 141              		@ args = 0, pretend = 0, frame = 0
 142              		@ frame_needed = 0, uses_anonymous_args = 0
 143 00cc 04E02DE5 		str	lr, [sp, #-4]!
 144              	.LCFI4:
 145              		.loc 1 289 0
 146 00d0 0C009FE5 		ldr	r0, .L30
 147 00d4 FEFFFFEB 		bl	bufferGetFromFront
 148              		.loc 1 291 0
 149 00d8 000050E3 		cmp	r0, #0
 150              	.LVL9:
 151              		.loc 1 292 0
 152 00dc 0000E003 		mvneq	r0, #0
 153              	.LVL10:
 154 00e0 04F09DE4 		ldr	pc, [sp], #4
 155              	.L31:
 156              		.align	2
 157              	.L30:
 158 00e4 00000000 		.word	uartRxBuffer
 159              	.LFE7:
 160              		.size	VCOM_getchar, .-VCOM_getchar
 161              		.align	2
 162              		.type	BulkIn, %function
 163              	BulkIn:
 164              	.LFB3:
 165              		.loc 1 182 0
 166              		@ args = 0, pretend = 0, frame = 0
 167              		@ frame_needed = 0, uses_anonymous_args = 0
 168              	.LVL11:
 169 00e8 70402DE9 		stmfd	sp!, {r4, r5, r6, lr}
 170              	.LCFI5:
 171 00ec FF6000E2 		and	r6, r0, #255
 172              		.loc 1 187 0
 173 00f0 58009FE5 		ldr	r0, .L42
 174              	.LVL12:
 175 00f4 FEFFFFEB 		bl	bufferIsNotFull
 176              	.LVL13:
 177 00f8 000050E3 		cmp	r0, #0
 178              		.loc 1 190 0
 179 00fc 0040A013 		movne	r4, #0
 180              	.LVL14:
 181 0100 4C509F15 		ldrne	r5, .L42+4
 182              		.loc 1 187 0
 183 0104 0100001A 		bne	.L36
 184              		.loc 1 189 0
 185 0108 FEFFFFEB 		bl	USBHwNakIntEnable
 186 010c 7080BDE8 		ldmfd	sp!, {r4, r5, r6, pc}
 187              	.LVL15:
 188              	.L36:
 189              		.loc 1 195 0
 190 0110 38009FE5 		ldr	r0, .L42
 191              	.LVL16:
 192 0114 FEFFFFEB 		bl	bufferGetFromFront
 193              		.loc 1 196 0
 194 0118 000050E3 		cmp	r0, #0
 195              	.LVL17:
 196 011c 0200001A 		bne	.L37
 197              		.loc 1 206 0
ARM GAS  D:\DOCUME~1\VIKTOR~1\LOCALS~1\Temp/ccAzaaaa.s 			page 10


 198 0120 000054E3 		cmp	r4, #0
 199 0124 7080BDD8 		ldmlefd	sp!, {r4, r5, r6, pc}
 200 0128 030000EA 		b	.L39
 201              	.L37:
 202              		.loc 1 200 0
 203 012c 0500C4E7 		strb	r0, [r4, r5]
 204              		.loc 1 194 0
 205 0130 014084E2 		add	r4, r4, #1
 206 0134 400054E3 		cmp	r4, #64
 207 0138 F4FFFF1A 		bne	.L36
 208              	.L39:
 209              		.loc 1 207 0
 210 013c 0600A0E1 		mov	r0, r6
 211              	.LVL18:
 212 0140 0C109FE5 		ldr	r1, .L42+4
 213 0144 0420A0E1 		mov	r2, r4
 214 0148 FEFFFFEB 		bl	USBHwEPWrite
 215 014c 7080BDE8 		ldmfd	sp!, {r4, r5, r6, pc}
 216              	.L43:
 217              		.align	2
 218              	.L42:
 219 0150 00000000 		.word	uartTxBuffer
 220 0154 00010000 		.word	abBulkBuf
 221              	.LFE3:
 222              		.size	BulkIn, .-BulkIn
 223              		.align	2
 224              		.type	HandleClassRequest, %function
 225              	HandleClassRequest:
 226              	.LFB4:
 227              		.loc 1 220 0
 228              		@ args = 0, pretend = 0, frame = 0
 229              		@ frame_needed = 0, uses_anonymous_args = 0
 230              	.LVL19:
 231 0158 30402DE9 		stmfd	sp!, {r4, r5, lr}
 232              	.LCFI6:
 233 015c 0150A0E1 		mov	r5, r1
 234              		.loc 1 221 0
 235 0160 0130D0E5 		ldrb	r3, [r0, #1]	@ zero_extendqisi2
 236 0164 210053E3 		cmp	r3, #33
 237 0168 0D00000A 		beq	.L47
 238              	.LVL20:
 239 016c 220053E3 		cmp	r3, #34
 240 0170 FF00A003 		moveq	r0, #255
 241              	.LVL21:
 242 0174 3080BD08 		ldmeqfd	sp!, {r4, r5, pc}
 243 0178 200053E3 		cmp	r3, #32
 244 017c 0000A013 		movne	r0, #0
 245 0180 3080BD18 		ldmnefd	sp!, {r4, r5, pc}
 246              		.loc 1 226 0
 247 0184 0740A0E3 		mov	r4, #7
 248 0188 2C009FE5 		ldr	r0, .L51
 249 018c 001092E5 		ldr	r1, [r2, #0]
 250 0190 0420A0E1 		mov	r2, r4
 251              	.LVL22:
 252 0194 FEFFFFEB 		bl	memcpy
 253              		.loc 1 227 0
 254 0198 004085E5 		str	r4, [r5, #0]
ARM GAS  D:\DOCUME~1\VIKTOR~1\LOCALS~1\Temp/ccAzaaaa.s 			page 11


 255 019c FF00A0E3 		mov	r0, #255
 256 01a0 3080BDE8 		ldmfd	sp!, {r4, r5, pc}
 257              	.LVL23:
 258              	.L47:
 259              		.loc 1 238 0
 260 01a4 10309FE5 		ldr	r3, .L51
 261 01a8 003082E5 		str	r3, [r2, #0]
 262              		.loc 1 239 0
 263 01ac 0730A0E3 		mov	r3, #7
 264 01b0 003081E5 		str	r3, [r1, #0]
 265 01b4 FF00A0E3 		mov	r0, #255
 266              	.LVL24:
 267              		.loc 1 252 0
 268 01b8 3080BDE8 		ldmfd	sp!, {r4, r5, pc}
 269              	.L52:
 270              		.align	2
 271              	.L51:
 272 01bc 00000000 		.word	LineCoding
 273              	.LFE4:
 274              		.size	HandleClassRequest, .-HandleClassRequest
 275              		.align	2
 276              		.global	VCOM_init
 277              		.type	VCOM_init, %function
 278              	VCOM_init:
 279              	.LFB5:
 280              		.loc 1 260 0
 281              		@ args = 0, pretend = 0, frame = 0
 282              		@ frame_needed = 0, uses_anonymous_args = 0
 283 01c0 04E02DE5 		str	lr, [sp, #-4]!
 284              	.LCFI7:
 285              		.loc 1 263 0
 286 01c4 1C009FE5 		ldr	r0, .L55
 287 01c8 1C109FE5 		ldr	r1, .L55+4
 288 01cc 8020A0E3 		mov	r2, #128
 289 01d0 FEFFFFEB 		bl	bufferInit
 290              		.loc 1 264 0
 291 01d4 14009FE5 		ldr	r0, .L55+8
 292 01d8 14109FE5 		ldr	r1, .L55+12
 293 01dc 8020A0E3 		mov	r2, #128
 294 01e0 FEFFFFEB 		bl	bufferInit
 295              		.loc 1 265 0
 296 01e4 04F09DE4 		ldr	pc, [sp], #4
 297              	.L56:
 298              		.align	2
 299              	.L55:
 300 01e8 00000000 		.word	uartTxBuffer
 301 01ec 80000000 		.word	uartTxData
 302 01f0 00000000 		.word	uartRxBuffer
 303 01f4 00000000 		.word	uartRxData
 304              	.LFE5:
 305              		.size	VCOM_init, .-VCOM_init
 306              		.align	2
 307              		.global	usbSetup
 308              		.type	usbSetup, %function
 309              	usbSetup:
 310              	.LFB10:
 313:usb.c         **** 	}
ARM GAS  D:\DOCUME~1\VIKTOR~1\LOCALS~1\Temp/ccAzaaaa.s 			page 12


 314:usb.c         **** }
 315:usb.c         **** 
 316:usb.c         **** void usbSetup(void)
 317:usb.c         **** {
 311              		.loc 1 317 0
 312              		@ args = 0, pretend = 0, frame = 0
 313              		@ frame_needed = 0, uses_anonymous_args = 0
 314 01f8 04E02DE5 		str	lr, [sp, #-4]!
 315              	.LCFI8:
 318:usb.c         **** 	
 319:usb.c         **** 	// init DBG
 320:usb.c         **** 	//ConsoleInit(60000000 / (16 * BAUD_RATE));
 321:usb.c         **** 
 322:usb.c         **** 	//DBG("Initialising USB stack\n");
 323:usb.c         **** 
 324:usb.c         **** 	// initialise stack
 325:usb.c         **** 	USBInit();
 316              		.loc 1 325 0
 317 01fc FEFFFFEB 		bl	USBInit
 326:usb.c         **** 
 327:usb.c         **** 	// register descriptors
 328:usb.c         **** 	USBRegisterDescriptors(abDescriptors);
 318              		.loc 1 328 0
 319 0200 8C009FE5 		ldr	r0, .L59
 320 0204 FEFFFFEB 		bl	USBRegisterDescriptors
 329:usb.c         **** 
 330:usb.c         **** 	// register class request handler
 331:usb.c         **** 	USBRegisterRequestHandler(REQTYPE_TYPE_CLASS, HandleClassRequest, abClassReqData);
 321              		.loc 1 331 0
 322 0208 0100A0E3 		mov	r0, #1
 323 020c 84109FE5 		ldr	r1, .L59+4
 324 0210 84209FE5 		ldr	r2, .L59+8
 325 0214 FEFFFFEB 		bl	USBRegisterRequestHandler
 332:usb.c         **** 
 333:usb.c         **** 	// register endpoint handlers
 334:usb.c         **** 	USBHwRegisterEPIntHandler(INT_IN_EP, NULL);
 326              		.loc 1 334 0
 327 0218 8100A0E3 		mov	r0, #129
 328 021c 0010A0E3 		mov	r1, #0
 329 0220 FEFFFFEB 		bl	USBHwRegisterEPIntHandler
 335:usb.c         **** 	USBHwRegisterEPIntHandler(BULK_IN_EP, BulkIn);
 330              		.loc 1 335 0
 331 0224 8200A0E3 		mov	r0, #130
 332 0228 70109FE5 		ldr	r1, .L59+12
 333 022c FEFFFFEB 		bl	USBHwRegisterEPIntHandler
 336:usb.c         **** 	USBHwRegisterEPIntHandler(BULK_OUT_EP, BulkOut);
 334              		.loc 1 336 0
 335 0230 0500A0E3 		mov	r0, #5
 336 0234 68109FE5 		ldr	r1, .L59+16
 337 0238 FEFFFFEB 		bl	USBHwRegisterEPIntHandler
 337:usb.c         **** 	
 338:usb.c         **** 	// register frame handler
 339:usb.c         **** 	USBHwRegisterFrameHandler(USBFrameHandler);
 338              		.loc 1 339 0
 339 023c 64009FE5 		ldr	r0, .L59+20
 340 0240 FEFFFFEB 		bl	USBHwRegisterFrameHandler
 340:usb.c         **** 
ARM GAS  D:\DOCUME~1\VIKTOR~1\LOCALS~1\Temp/ccAzaaaa.s 			page 13


 341:usb.c         **** 	// enable bulk-in interrupts on NAKs
 342:usb.c         **** 	USBHwNakIntEnable(INACK_BI);
 341              		.loc 1 342 0
 342 0244 2000A0E3 		mov	r0, #32
 343 0248 FEFFFFEB 		bl	USBHwNakIntEnable
 343:usb.c         **** 
 344:usb.c         **** 	// initialise VCOM
 345:usb.c         **** 	VCOM_init();
 344              		.loc 1 345 0
 345 024c FEFFFFEB 		bl	VCOM_init
 346:usb.c         **** 
 347:usb.c         **** 	//DBG("Starting USB communication\n");
 348:usb.c         **** 
 349:usb.c         **** 	// set up USB interrupt
 350:usb.c         **** 	VICIntSelect &= ~(1<<22);               // select IRQ for USB
 346              		.loc 1 350 0
 347 0250 0F2CE0E3 		mvn	r2, #3840
 348 0254 F33012E5 		ldr	r3, [r2, #-243]
 349 0258 0135C3E3 		bic	r3, r3, #4194304
 350 025c F33002E5 		str	r3, [r2, #-243]
 351:usb.c         **** 	VICIntEnable |= (1<<22);
 351              		.loc 1 351 0
 352 0260 EF3012E5 		ldr	r3, [r2, #-239]
 353 0264 013583E3 		orr	r3, r3, #4194304
 354 0268 EF3002E5 		str	r3, [r2, #-239]
 352:usb.c         **** 
 353:usb.c         **** 	(*(&VICVectCntl0+INT_VECT_NUM)) = 0x20 | 22; // choose highest priority ISR slot 	
 355              		.loc 1 353 0
 356 026c 0F2C82E2 		add	r2, r2, #3840
 357 0270 3630A0E3 		mov	r3, #54
 358 0274 FF3D02E5 		str	r3, [r2, #-3583]
 354:usb.c         **** 	(*(&VICVectAddr0+INT_VECT_NUM)) = (int)USBIntHandler;
 359              		.loc 1 354 0
 360 0278 2C309FE5 		ldr	r3, .L59+24
 361 027c FF3E02E5 		str	r3, [r2, #-3839]
 355:usb.c         **** 	
 356:usb.c         **** 	processorEnableInt(CPSR_MASK_IRQ);
 362              		.loc 1 356 0
 363 0280 8000A0E3 		mov	r0, #128
 364 0284 FEFFFFEB 		bl	processorEnableInt
 357:usb.c         **** 	//enableIRQ();
 358:usb.c         **** 	
 359:usb.c         **** 	
 360:usb.c         **** 	// connect to bus
 361:usb.c         **** 	USBHwConnect(TRUE);
 365              		.loc 1 361 0
 366 0288 FF00A0E3 		mov	r0, #255
 367 028c FEFFFFEB 		bl	USBHwConnect
 362:usb.c         **** }
 368              		.loc 1 362 0
 369 0290 04F09DE4 		ldr	pc, [sp], #4
 370              	.L60:
 371              		.align	2
 372              	.L59:
 373 0294 00000000 		.word	abDescriptors
 374 0298 58010000 		.word	HandleClassRequest
 375 029c 40010000 		.word	abClassReqData
ARM GAS  D:\DOCUME~1\VIKTOR~1\LOCALS~1\Temp/ccAzaaaa.s 			page 14


 376 02a0 E8000000 		.word	BulkIn
 377 02a4 68000000 		.word	BulkOut
 378 02a8 1C000000 		.word	USBFrameHandler
 379 02ac 00000000 		.word	USBIntHandler
 380              	.LFE10:
 381              		.size	usbSetup, .-usbSetup
 382              		.section	.rodata
 383              		.type	abDescriptors, %object
 384              		.size	abDescriptors, 142
 385              	abDescriptors:
 386 0000 12       		.byte	18
 387 0001 01       		.byte	1
 388 0002 01       		.byte	1
 389 0003 01       		.byte	1
 390 0004 02       		.byte	2
 391 0005 00       		.byte	0
 392 0006 00       		.byte	0
 393 0007 40       		.byte	64
 394 0008 FF       		.byte	-1
 395 0009 FF       		.byte	-1
 396 000a 05       		.byte	5
 397 000b 00       		.byte	0
 398 000c 00       		.byte	0
 399 000d 01       		.byte	1
 400 000e 01       		.byte	1
 401 000f 02       		.byte	2
 402 0010 03       		.byte	3
 403 0011 01       		.byte	1
 404 0012 09       		.byte	9
 405 0013 02       		.byte	2
 406 0014 43       		.byte	67
 407 0015 00       		.byte	0
 408 0016 02       		.byte	2
 409 0017 01       		.byte	1
 410 0018 00       		.byte	0
 411 0019 C0       		.byte	-64
 412 001a 32       		.byte	50
 413 001b 09       		.byte	9
 414 001c 04       		.byte	4
 415 001d 00       		.byte	0
 416 001e 00       		.byte	0
 417 001f 01       		.byte	1
 418 0020 02       		.byte	2
 419 0021 02       		.byte	2
 420 0022 01       		.byte	1
 421 0023 00       		.byte	0
 422 0024 05       		.byte	5
 423 0025 24       		.byte	36
 424 0026 00       		.byte	0
 425 0027 10       		.byte	16
 426 0028 01       		.byte	1
 427 0029 05       		.byte	5
 428 002a 24       		.byte	36
 429 002b 01       		.byte	1
 430 002c 01       		.byte	1
 431 002d 01       		.byte	1
 432 002e 04       		.byte	4
ARM GAS  D:\DOCUME~1\VIKTOR~1\LOCALS~1\Temp/ccAzaaaa.s 			page 15


 433 002f 24       		.byte	36
 434 0030 02       		.byte	2
 435 0031 02       		.byte	2
 436 0032 05       		.byte	5
 437 0033 24       		.byte	36
 438 0034 06       		.byte	6
 439 0035 00       		.byte	0
 440 0036 01       		.byte	1
 441 0037 07       		.byte	7
 442 0038 05       		.byte	5
 443 0039 81       		.byte	-127
 444 003a 03       		.byte	3
 445 003b 08       		.byte	8
 446 003c 00       		.byte	0
 447 003d 0A       		.byte	10
 448 003e 09       		.byte	9
 449 003f 04       		.byte	4
 450 0040 01       		.byte	1
 451 0041 00       		.byte	0
 452 0042 02       		.byte	2
 453 0043 0A       		.byte	10
 454 0044 00       		.byte	0
 455 0045 00       		.byte	0
 456 0046 00       		.byte	0
 457 0047 07       		.byte	7
 458 0048 05       		.byte	5
 459 0049 05       		.byte	5
 460 004a 02       		.byte	2
 461 004b 40       		.byte	64
 462 004c 00       		.byte	0
 463 004d 00       		.byte	0
 464 004e 07       		.byte	7
 465 004f 05       		.byte	5
 466 0050 82       		.byte	-126
 467 0051 02       		.byte	2
 468 0052 40       		.byte	64
 469 0053 00       		.byte	0
 470 0054 00       		.byte	0
 471 0055 04       		.byte	4
 472 0056 03       		.byte	3
 473 0057 09       		.byte	9
 474 0058 04       		.byte	4
 475 0059 0E       		.byte	14
 476 005a 03       		.byte	3
 477 005b 4C       		.byte	76
 478 005c 00       		.byte	0
 479 005d 50       		.byte	80
 480 005e 00       		.byte	0
 481 005f 43       		.byte	67
 482 0060 00       		.byte	0
 483 0061 55       		.byte	85
 484 0062 00       		.byte	0
 485 0063 53       		.byte	83
 486 0064 00       		.byte	0
 487 0065 42       		.byte	66
 488 0066 00       		.byte	0
 489 0067 14       		.byte	20
ARM GAS  D:\DOCUME~1\VIKTOR~1\LOCALS~1\Temp/ccAzaaaa.s 			page 16


 490 0068 03       		.byte	3
 491 0069 55       		.byte	85
 492 006a 00       		.byte	0
 493 006b 53       		.byte	83
 494 006c 00       		.byte	0
 495 006d 42       		.byte	66
 496 006e 00       		.byte	0
 497 006f 53       		.byte	83
 498 0070 00       		.byte	0
 499 0071 65       		.byte	101
 500 0072 00       		.byte	0
 501 0073 72       		.byte	114
 502 0074 00       		.byte	0
 503 0075 69       		.byte	105
 504 0076 00       		.byte	0
 505 0077 61       		.byte	97
 506 0078 00       		.byte	0
 507 0079 6C       		.byte	108
 508 007a 00       		.byte	0
 509 007b 12       		.byte	18
 510 007c 03       		.byte	3
 511 007d 44       		.byte	68
 512 007e 00       		.byte	0
 513 007f 45       		.byte	69
 514 0080 00       		.byte	0
 515 0081 41       		.byte	65
 516 0082 00       		.byte	0
 517 0083 44       		.byte	68
 518 0084 00       		.byte	0
 519 0085 43       		.byte	67
 520 0086 00       		.byte	0
 521 0087 30       		.byte	48
 522 0088 00       		.byte	0
 523 0089 44       		.byte	68
 524 008a 00       		.byte	0
 525 008b 45       		.byte	69
 526 008c 00       		.byte	0
 527 008d 00       		.byte	0
 528              		.data
 529              		.align	2
 530              		.type	LineCoding, %object
 531              		.size	LineCoding, 8
 532              	LineCoding:
 533 0000 40420F00 		.word	1000000
 534 0004 00       		.byte	0
 535 0005 00       		.byte	0
 536 0006 08       		.byte	8
 537 0007 00       		.space	1
 538              		.bss
 539              	uartRxData:
 540 0000 00000000 		.space	128
 540      00000000 
 540      00000000 
 540      00000000 
 540      00000000 
 541              	uartTxData:
 542 0080 00000000 		.space	128
ARM GAS  D:\DOCUME~1\VIKTOR~1\LOCALS~1\Temp/ccAzaaaa.s 			page 17


 542      00000000 
 542      00000000 
 542      00000000 
 542      00000000 
 543              	abBulkBuf:
 544 0100 00000000 		.space	64
 544      00000000 
 544      00000000 
 544      00000000 
 544      00000000 
 545              	abClassReqData:
 546 0140 00000000 		.space	8
 546      00000000 
 547              		.comm	uartRxBuffer,12,4
 548              		.comm	uartTxBuffer,12,4
 549              		.comm	uartRxOverflow,2,2
 550              		.section	.debug_frame,"",%progbits
 551              	.Lframe0:
 552 0000 0C000000 		.4byte	.LECIE0-.LSCIE0
 553              	.LSCIE0:
 554 0004 FFFFFFFF 		.4byte	0xffffffff
 555 0008 01       		.byte	0x1
 556 0009 00       		.ascii	"\000"
 557 000a 01       		.uleb128 0x1
 558 000b 7C       		.sleb128 -4
 559 000c 0E       		.byte	0xe
 560 000d 0C       		.byte	0xc
 561 000e 0D       		.uleb128 0xd
 562 000f 00       		.uleb128 0x0
 563              		.align	2
 564              	.LECIE0:
 565              	.LSFDE0:
 566 0010 1C000000 		.4byte	.LEFDE0-.LASFDE0
 567              	.LASFDE0:
 568 0014 00000000 		.4byte	.Lframe0
 569 0018 00000000 		.4byte	.LFB8
 570 001c 1C000000 		.4byte	.LFE8-.LFB8
 571 0020 48       		.byte	0x4
 572              		.4byte	.LCFI0-.LFB8
 573 0021 0E       		.byte	0xe
 574 0022 18       		.uleb128 0x18
 575 0023 8E       		.byte	0x8e
 576 0024 01       		.uleb128 0x1
 577 0025 8C       		.byte	0x8c
 578 0026 02       		.uleb128 0x2
 579 0027 83       		.byte	0x83
 580 0028 03       		.uleb128 0x3
 581 0029 82       		.byte	0x82
 582 002a 04       		.uleb128 0x4
 583 002b 81       		.byte	0x81
 584 002c 05       		.uleb128 0x5
 585 002d 80       		.byte	0x80
 586 002e 06       		.uleb128 0x6
 587 002f 00       		.align	2
 588              	.LEFDE0:
 589              	.LSFDE2:
 590 0030 14000000 		.4byte	.LEFDE2-.LASFDE2
ARM GAS  D:\DOCUME~1\VIKTOR~1\LOCALS~1\Temp/ccAzaaaa.s 			page 18


 591              	.LASFDE2:
 592 0034 00000000 		.4byte	.Lframe0
 593 0038 1C000000 		.4byte	.LFB9
 594 003c 24000000 		.4byte	.LFE9-.LFB9
 595 0040 44       		.byte	0x4
 596              		.4byte	.LCFI1-.LFB9
 597 0041 0E       		.byte	0xe
 598 0042 04       		.uleb128 0x4
 599 0043 8E       		.byte	0x8e
 600 0044 01       		.uleb128 0x1
 601 0045 000000   		.align	2
 602              	.LEFDE2:
 603              	.LSFDE4:
 604 0048 14000000 		.4byte	.LEFDE4-.LASFDE4
 605              	.LASFDE4:
 606 004c 00000000 		.4byte	.Lframe0
 607 0050 40000000 		.4byte	.LFB6
 608 0054 28000000 		.4byte	.LFE6-.LFB6
 609 0058 44       		.byte	0x4
 610              		.4byte	.LCFI2-.LFB6
 611 0059 0E       		.byte	0xe
 612 005a 08       		.uleb128 0x8
 613 005b 8E       		.byte	0x8e
 614 005c 01       		.uleb128 0x1
 615 005d 84       		.byte	0x84
 616 005e 02       		.uleb128 0x2
 617 005f 00       		.align	2
 618              	.LEFDE4:
 619              	.LSFDE6:
 620 0060 18000000 		.4byte	.LEFDE6-.LASFDE6
 621              	.LASFDE6:
 622 0064 00000000 		.4byte	.Lframe0
 623 0068 68000000 		.4byte	.LFB2
 624 006c 64000000 		.4byte	.LFE2-.LFB2
 625 0070 44       		.byte	0x4
 626              		.4byte	.LCFI3-.LFB2
 627 0071 0E       		.byte	0xe
 628 0072 10       		.uleb128 0x10
 629 0073 8E       		.byte	0x8e
 630 0074 01       		.uleb128 0x1
 631 0075 86       		.byte	0x86
 632 0076 02       		.uleb128 0x2
 633 0077 85       		.byte	0x85
 634 0078 03       		.uleb128 0x3
 635 0079 84       		.byte	0x84
 636 007a 04       		.uleb128 0x4
 637 007b 00       		.align	2
 638              	.LEFDE6:
 639              	.LSFDE8:
 640 007c 14000000 		.4byte	.LEFDE8-.LASFDE8
 641              	.LASFDE8:
 642 0080 00000000 		.4byte	.Lframe0
 643 0084 CC000000 		.4byte	.LFB7
 644 0088 1C000000 		.4byte	.LFE7-.LFB7
 645 008c 44       		.byte	0x4
 646              		.4byte	.LCFI4-.LFB7
 647 008d 0E       		.byte	0xe
ARM GAS  D:\DOCUME~1\VIKTOR~1\LOCALS~1\Temp/ccAzaaaa.s 			page 19


 648 008e 04       		.uleb128 0x4
 649 008f 8E       		.byte	0x8e
 650 0090 01       		.uleb128 0x1
 651 0091 000000   		.align	2
 652              	.LEFDE8:
 653              	.LSFDE10:
 654 0094 18000000 		.4byte	.LEFDE10-.LASFDE10
 655              	.LASFDE10:
 656 0098 00000000 		.4byte	.Lframe0
 657 009c E8000000 		.4byte	.LFB3
 658 00a0 70000000 		.4byte	.LFE3-.LFB3
 659 00a4 44       		.byte	0x4
 660              		.4byte	.LCFI5-.LFB3
 661 00a5 0E       		.byte	0xe
 662 00a6 10       		.uleb128 0x10
 663 00a7 8E       		.byte	0x8e
 664 00a8 01       		.uleb128 0x1
 665 00a9 86       		.byte	0x86
 666 00aa 02       		.uleb128 0x2
 667 00ab 85       		.byte	0x85
 668 00ac 03       		.uleb128 0x3
 669 00ad 84       		.byte	0x84
 670 00ae 04       		.uleb128 0x4
 671 00af 00       		.align	2
 672              	.LEFDE10:
 673              	.LSFDE12:
 674 00b0 18000000 		.4byte	.LEFDE12-.LASFDE12
 675              	.LASFDE12:
 676 00b4 00000000 		.4byte	.Lframe0
 677 00b8 58010000 		.4byte	.LFB4
 678 00bc 68000000 		.4byte	.LFE4-.LFB4
 679 00c0 44       		.byte	0x4
 680              		.4byte	.LCFI6-.LFB4
 681 00c1 0E       		.byte	0xe
 682 00c2 0C       		.uleb128 0xc
 683 00c3 8E       		.byte	0x8e
 684 00c4 01       		.uleb128 0x1
 685 00c5 85       		.byte	0x85
 686 00c6 02       		.uleb128 0x2
 687 00c7 84       		.byte	0x84
 688 00c8 03       		.uleb128 0x3
 689 00c9 000000   		.align	2
 690              	.LEFDE12:
 691              	.LSFDE14:
 692 00cc 14000000 		.4byte	.LEFDE14-.LASFDE14
 693              	.LASFDE14:
 694 00d0 00000000 		.4byte	.Lframe0
 695 00d4 C0010000 		.4byte	.LFB5
 696 00d8 38000000 		.4byte	.LFE5-.LFB5
 697 00dc 44       		.byte	0x4
 698              		.4byte	.LCFI7-.LFB5
 699 00dd 0E       		.byte	0xe
 700 00de 04       		.uleb128 0x4
 701 00df 8E       		.byte	0x8e
 702 00e0 01       		.uleb128 0x1
 703 00e1 000000   		.align	2
 704              	.LEFDE14:
ARM GAS  D:\DOCUME~1\VIKTOR~1\LOCALS~1\Temp/ccAzaaaa.s 			page 20


 705              	.LSFDE16:
 706 00e4 14000000 		.4byte	.LEFDE16-.LASFDE16
 707              	.LASFDE16:
 708 00e8 00000000 		.4byte	.Lframe0
 709 00ec F8010000 		.4byte	.LFB10
 710 00f0 B8000000 		.4byte	.LFE10-.LFB10
 711 00f4 44       		.byte	0x4
 712              		.4byte	.LCFI8-.LFB10
 713 00f5 0E       		.byte	0xe
 714 00f6 04       		.uleb128 0x4
 715 00f7 8E       		.byte	0x8e
 716 00f8 01       		.uleb128 0x1
 717 00f9 000000   		.align	2
 718              	.LEFDE16:
 719              		.file 2 "D:\\WinARM\\armlib/armlibtypes.h"
 720              		.file 3 "usbstruct.h"
 721              		.file 4 "D:\\WinARM\\armlib/buffer.h"
 722              		.text
 723              	.Letext0: